
Inverter.elf:     file format elf32-littlearm

Sections:
Idx Name          Size      VMA       LMA       File off  Algn
  0 .isr_vector   000001f8  08000000  08000000  00001000  2**0
                  CONTENTS, ALLOC, LOAD, READONLY, DATA
  1 .text         00005d08  080001f8  080001f8  000011f8  2**3
                  CONTENTS, ALLOC, LOAD, READONLY, CODE
  2 .ccmram       000004d4  08005f00  08005f00  00006f00  2**2
                  CONTENTS, ALLOC, LOAD, READONLY, CODE
  3 .rodata       00008200  080063d8  080063d8  000073d8  2**3
                  CONTENTS, ALLOC, LOAD, READONLY, DATA
  4 .ARM.extab    00000000  0800e5d8  0800e5d8  000101c4  2**0
                  CONTENTS
  5 .ARM          00000008  0800e5d8  0800e5d8  0000f5d8  2**2
                  CONTENTS, ALLOC, LOAD, READONLY, DATA
  6 .preinit_array 00000000  0800e5e0  0800e5e0  000101c4  2**0
                  CONTENTS, ALLOC, LOAD, DATA
  7 .init_array   00000004  0800e5e0  0800e5e0  0000f5e0  2**2
                  CONTENTS, ALLOC, LOAD, DATA
  8 .fini_array   00000004  0800e5e4  0800e5e4  0000f5e4  2**2
                  CONTENTS, ALLOC, LOAD, DATA
  9 .data         000001c4  20000000  0800e5e8  00010000  2**2
                  CONTENTS, ALLOC, LOAD, DATA
 10 .bss          00000878  200001c8  0800e7ac  000101c8  2**3
                  ALLOC
 11 ._user_heap_stack 00000600  20000a40  0800e7ac  00010a40  2**0
                  ALLOC
 12 .ARM.attributes 0000002e  00000000  00000000  000101c4  2**0
                  CONTENTS, READONLY
 13 .debug_info   0002ba07  00000000  00000000  000101f2  2**0
                  CONTENTS, READONLY, DEBUGGING, OCTETS
 14 .debug_abbrev 00005a36  00000000  00000000  0003bbf9  2**0
                  CONTENTS, READONLY, DEBUGGING, OCTETS
 15 .debug_loclists 0000fb24  00000000  00000000  0004162f  2**0
                  CONTENTS, READONLY, DEBUGGING, OCTETS
 16 .debug_aranges 00001410  00000000  00000000  00051158  2**3
                  CONTENTS, READONLY, DEBUGGING, OCTETS
 17 .debug_rnglists 00001f4c  00000000  00000000  00052568  2**0
                  CONTENTS, READONLY, DEBUGGING, OCTETS
 18 .debug_macro  0002c4f7  00000000  00000000  000544b4  2**0
                  CONTENTS, READONLY, DEBUGGING, OCTETS
 19 .debug_line   0002b9d1  00000000  00000000  000809ab  2**0
                  CONTENTS, READONLY, DEBUGGING, OCTETS
 20 .debug_str    00105a01  00000000  00000000  000ac37c  2**0
                  CONTENTS, READONLY, DEBUGGING, OCTETS
 21 .comment      00000043  00000000  00000000  001b1d7d  2**0
                  CONTENTS, READONLY
 22 .debug_frame  00003c48  00000000  00000000  001b1dc0  2**2
                  CONTENTS, READONLY, DEBUGGING, OCTETS
 23 .debug_line_str 0000005a  00000000  00000000  001b5a08  2**0
                  CONTENTS, READONLY, DEBUGGING, OCTETS

Disassembly of section .text:

080001f8 <__do_global_dtors_aux>:
 80001f8:	b510      	push	{r4, lr}
 80001fa:	4c05      	ldr	r4, [pc, #20]	@ (8000210 <__do_global_dtors_aux+0x18>)
 80001fc:	7823      	ldrb	r3, [r4, #0]
 80001fe:	b933      	cbnz	r3, 800020e <__do_global_dtors_aux+0x16>
 8000200:	4b04      	ldr	r3, [pc, #16]	@ (8000214 <__do_global_dtors_aux+0x1c>)
 8000202:	b113      	cbz	r3, 800020a <__do_global_dtors_aux+0x12>
 8000204:	4804      	ldr	r0, [pc, #16]	@ (8000218 <__do_global_dtors_aux+0x20>)
 8000206:	f3af 8000 	nop.w
 800020a:	2301      	movs	r3, #1
 800020c:	7023      	strb	r3, [r4, #0]
 800020e:	bd10      	pop	{r4, pc}
 8000210:	200001c8 	.word	0x200001c8
 8000214:	00000000 	.word	0x00000000
 8000218:	08005ee8 	.word	0x08005ee8

0800021c <frame_dummy>:
 800021c:	b508      	push	{r3, lr}
 800021e:	4b03      	ldr	r3, [pc, #12]	@ (800022c <frame_dummy+0x10>)
 8000220:	b11b      	cbz	r3, 800022a <frame_dummy+0xe>
 8000222:	4903      	ldr	r1, [pc, #12]	@ (8000230 <frame_dummy+0x14>)
 8000224:	4803      	ldr	r0, [pc, #12]	@ (8000234 <frame_dummy+0x18>)
 8000226:	f3af 8000 	nop.w
 800022a:	bd08      	pop	{r3, pc}
 800022c:	00000000 	.word	0x00000000
 8000230:	200001cc 	.word	0x200001cc
 8000234:	08005ee8 	.word	0x08005ee8

08000238 <__aeabi_drsub>:
 8000238:	f081 4100 	eor.w	r1, r1, #2147483648	@ 0x80000000
 800023c:	e002      	b.n	8000244 <__adddf3>
 800023e:	bf00      	nop

08000240 <__aeabi_dsub>:
 8000240:	f083 4300 	eor.w	r3, r3, #2147483648	@ 0x80000000

08000244 <__adddf3>:
 8000244:	b530      	push	{r4, r5, lr}
 8000246:	ea4f 0441 	mov.w	r4, r1, lsl #1
 800024a:	ea4f 0543 	mov.w	r5, r3, lsl #1
 800024e:	ea94 0f05 	teq	r4, r5
 8000252:	bf08      	it	eq
 8000254:	ea90 0f02 	teqeq	r0, r2
 8000258:	bf1f      	itttt	ne
 800025a:	ea54 0c00 	orrsne.w	ip, r4, r0
 800025e:	ea55 0c02 	orrsne.w	ip, r5, r2
 8000262:	ea7f 5c64 	mvnsne.w	ip, r4, asr #21
 8000266:	ea7f 5c65 	mvnsne.w	ip, r5, asr #21
 800026a:	f000 80e2 	beq.w	8000432 <__adddf3+0x1ee>
 800026e:	ea4f 5454 	mov.w	r4, r4, lsr #21
 8000272:	ebd4 5555 	rsbs	r5, r4, r5, lsr #21
 8000276:	bfb8      	it	lt
 8000278:	426d      	neglt	r5, r5
 800027a:	dd0c      	ble.n	8000296 <__adddf3+0x52>
 800027c:	442c      	add	r4, r5
 800027e:	ea80 0202 	eor.w	r2, r0, r2
 8000282:	ea81 0303 	eor.w	r3, r1, r3
 8000286:	ea82 0000 	eor.w	r0, r2, r0
 800028a:	ea83 0101 	eor.w	r1, r3, r1
 800028e:	ea80 0202 	eor.w	r2, r0, r2
 8000292:	ea81 0303 	eor.w	r3, r1, r3
 8000296:	2d36      	cmp	r5, #54	@ 0x36
 8000298:	bf88      	it	hi
 800029a:	bd30      	pophi	{r4, r5, pc}
 800029c:	f011 4f00 	tst.w	r1, #2147483648	@ 0x80000000
 80002a0:	ea4f 3101 	mov.w	r1, r1, lsl #12
 80002a4:	f44f 1c80 	mov.w	ip, #1048576	@ 0x100000
 80002a8:	ea4c 3111 	orr.w	r1, ip, r1, lsr #12
 80002ac:	d002      	beq.n	80002b4 <__adddf3+0x70>
 80002ae:	4240      	negs	r0, r0
 80002b0:	eb61 0141 	sbc.w	r1, r1, r1, lsl #1
 80002b4:	f013 4f00 	tst.w	r3, #2147483648	@ 0x80000000
 80002b8:	ea4f 3303 	mov.w	r3, r3, lsl #12
 80002bc:	ea4c 3313 	orr.w	r3, ip, r3, lsr #12
 80002c0:	d002      	beq.n	80002c8 <__adddf3+0x84>
 80002c2:	4252      	negs	r2, r2
 80002c4:	eb63 0343 	sbc.w	r3, r3, r3, lsl #1
 80002c8:	ea94 0f05 	teq	r4, r5
 80002cc:	f000 80a7 	beq.w	800041e <__adddf3+0x1da>
 80002d0:	f1a4 0401 	sub.w	r4, r4, #1
 80002d4:	f1d5 0e20 	rsbs	lr, r5, #32
 80002d8:	db0d      	blt.n	80002f6 <__adddf3+0xb2>
 80002da:	fa02 fc0e 	lsl.w	ip, r2, lr
 80002de:	fa22 f205 	lsr.w	r2, r2, r5
 80002e2:	1880      	adds	r0, r0, r2
 80002e4:	f141 0100 	adc.w	r1, r1, #0
 80002e8:	fa03 f20e 	lsl.w	r2, r3, lr
 80002ec:	1880      	adds	r0, r0, r2
 80002ee:	fa43 f305 	asr.w	r3, r3, r5
 80002f2:	4159      	adcs	r1, r3
 80002f4:	e00e      	b.n	8000314 <__adddf3+0xd0>
 80002f6:	f1a5 0520 	sub.w	r5, r5, #32
 80002fa:	f10e 0e20 	add.w	lr, lr, #32
 80002fe:	2a01      	cmp	r2, #1
 8000300:	fa03 fc0e 	lsl.w	ip, r3, lr
 8000304:	bf28      	it	cs
 8000306:	f04c 0c02 	orrcs.w	ip, ip, #2
 800030a:	fa43 f305 	asr.w	r3, r3, r5
 800030e:	18c0      	adds	r0, r0, r3
 8000310:	eb51 71e3 	adcs.w	r1, r1, r3, asr #31
 8000314:	f001 4500 	and.w	r5, r1, #2147483648	@ 0x80000000
 8000318:	d507      	bpl.n	800032a <__adddf3+0xe6>
 800031a:	f04f 0e00 	mov.w	lr, #0
 800031e:	f1dc 0c00 	rsbs	ip, ip, #0
 8000322:	eb7e 0000 	sbcs.w	r0, lr, r0
 8000326:	eb6e 0101 	sbc.w	r1, lr, r1
 800032a:	f5b1 1f80 	cmp.w	r1, #1048576	@ 0x100000
 800032e:	d31b      	bcc.n	8000368 <__adddf3+0x124>
 8000330:	f5b1 1f00 	cmp.w	r1, #2097152	@ 0x200000
 8000334:	d30c      	bcc.n	8000350 <__adddf3+0x10c>
 8000336:	0849      	lsrs	r1, r1, #1
 8000338:	ea5f 0030 	movs.w	r0, r0, rrx
 800033c:	ea4f 0c3c 	mov.w	ip, ip, rrx
 8000340:	f104 0401 	add.w	r4, r4, #1
 8000344:	ea4f 5244 	mov.w	r2, r4, lsl #21
 8000348:	f512 0f80 	cmn.w	r2, #4194304	@ 0x400000
 800034c:	f080 809a 	bcs.w	8000484 <__adddf3+0x240>
 8000350:	f1bc 4f00 	cmp.w	ip, #2147483648	@ 0x80000000
 8000354:	bf08      	it	eq
 8000356:	ea5f 0c50 	movseq.w	ip, r0, lsr #1
 800035a:	f150 0000 	adcs.w	r0, r0, #0
 800035e:	eb41 5104 	adc.w	r1, r1, r4, lsl #20
 8000362:	ea41 0105 	orr.w	r1, r1, r5
 8000366:	bd30      	pop	{r4, r5, pc}
 8000368:	ea5f 0c4c 	movs.w	ip, ip, lsl #1
 800036c:	4140      	adcs	r0, r0
 800036e:	eb41 0101 	adc.w	r1, r1, r1
 8000372:	3c01      	subs	r4, #1
 8000374:	bf28      	it	cs
 8000376:	f5b1 1f80 	cmpcs.w	r1, #1048576	@ 0x100000
 800037a:	d2e9      	bcs.n	8000350 <__adddf3+0x10c>
 800037c:	f091 0f00 	teq	r1, #0
 8000380:	bf04      	itt	eq
 8000382:	4601      	moveq	r1, r0
 8000384:	2000      	moveq	r0, #0
 8000386:	fab1 f381 	clz	r3, r1
 800038a:	bf08      	it	eq
 800038c:	3320      	addeq	r3, #32
 800038e:	f1a3 030b 	sub.w	r3, r3, #11
 8000392:	f1b3 0220 	subs.w	r2, r3, #32
 8000396:	da0c      	bge.n	80003b2 <__adddf3+0x16e>
 8000398:	320c      	adds	r2, #12
 800039a:	dd08      	ble.n	80003ae <__adddf3+0x16a>
 800039c:	f102 0c14 	add.w	ip, r2, #20
 80003a0:	f1c2 020c 	rsb	r2, r2, #12
 80003a4:	fa01 f00c 	lsl.w	r0, r1, ip
 80003a8:	fa21 f102 	lsr.w	r1, r1, r2
 80003ac:	e00c      	b.n	80003c8 <__adddf3+0x184>
 80003ae:	f102 0214 	add.w	r2, r2, #20
 80003b2:	bfd8      	it	le
 80003b4:	f1c2 0c20 	rsble	ip, r2, #32
 80003b8:	fa01 f102 	lsl.w	r1, r1, r2
 80003bc:	fa20 fc0c 	lsr.w	ip, r0, ip
 80003c0:	bfdc      	itt	le
 80003c2:	ea41 010c 	orrle.w	r1, r1, ip
 80003c6:	4090      	lslle	r0, r2
 80003c8:	1ae4      	subs	r4, r4, r3
 80003ca:	bfa2      	ittt	ge
 80003cc:	eb01 5104 	addge.w	r1, r1, r4, lsl #20
 80003d0:	4329      	orrge	r1, r5
 80003d2:	bd30      	popge	{r4, r5, pc}
 80003d4:	ea6f 0404 	mvn.w	r4, r4
 80003d8:	3c1f      	subs	r4, #31
 80003da:	da1c      	bge.n	8000416 <__adddf3+0x1d2>
 80003dc:	340c      	adds	r4, #12
 80003de:	dc0e      	bgt.n	80003fe <__adddf3+0x1ba>
 80003e0:	f104 0414 	add.w	r4, r4, #20
 80003e4:	f1c4 0220 	rsb	r2, r4, #32
 80003e8:	fa20 f004 	lsr.w	r0, r0, r4
 80003ec:	fa01 f302 	lsl.w	r3, r1, r2
 80003f0:	ea40 0003 	orr.w	r0, r0, r3
 80003f4:	fa21 f304 	lsr.w	r3, r1, r4
 80003f8:	ea45 0103 	orr.w	r1, r5, r3
 80003fc:	bd30      	pop	{r4, r5, pc}
 80003fe:	f1c4 040c 	rsb	r4, r4, #12
 8000402:	f1c4 0220 	rsb	r2, r4, #32
 8000406:	fa20 f002 	lsr.w	r0, r0, r2
 800040a:	fa01 f304 	lsl.w	r3, r1, r4
 800040e:	ea40 0003 	orr.w	r0, r0, r3
 8000412:	4629      	mov	r1, r5
 8000414:	bd30      	pop	{r4, r5, pc}
 8000416:	fa21 f004 	lsr.w	r0, r1, r4
 800041a:	4629      	mov	r1, r5
 800041c:	bd30      	pop	{r4, r5, pc}
 800041e:	f094 0f00 	teq	r4, #0
 8000422:	f483 1380 	eor.w	r3, r3, #1048576	@ 0x100000
 8000426:	bf06      	itte	eq
 8000428:	f481 1180 	eoreq.w	r1, r1, #1048576	@ 0x100000
 800042c:	3401      	addeq	r4, #1
 800042e:	3d01      	subne	r5, #1
 8000430:	e74e      	b.n	80002d0 <__adddf3+0x8c>
 8000432:	ea7f 5c64 	mvns.w	ip, r4, asr #21
 8000436:	bf18      	it	ne
 8000438:	ea7f 5c65 	mvnsne.w	ip, r5, asr #21
 800043c:	d029      	beq.n	8000492 <__adddf3+0x24e>
 800043e:	ea94 0f05 	teq	r4, r5
 8000442:	bf08      	it	eq
 8000444:	ea90 0f02 	teqeq	r0, r2
 8000448:	d005      	beq.n	8000456 <__adddf3+0x212>
 800044a:	ea54 0c00 	orrs.w	ip, r4, r0
 800044e:	bf04      	itt	eq
 8000450:	4619      	moveq	r1, r3
 8000452:	4610      	moveq	r0, r2
 8000454:	bd30      	pop	{r4, r5, pc}
 8000456:	ea91 0f03 	teq	r1, r3
 800045a:	bf1e      	ittt	ne
 800045c:	2100      	movne	r1, #0
 800045e:	2000      	movne	r0, #0
 8000460:	bd30      	popne	{r4, r5, pc}
 8000462:	ea5f 5c54 	movs.w	ip, r4, lsr #21
 8000466:	d105      	bne.n	8000474 <__adddf3+0x230>
 8000468:	0040      	lsls	r0, r0, #1
 800046a:	4149      	adcs	r1, r1
 800046c:	bf28      	it	cs
 800046e:	f041 4100 	orrcs.w	r1, r1, #2147483648	@ 0x80000000
 8000472:	bd30      	pop	{r4, r5, pc}
 8000474:	f514 0480 	adds.w	r4, r4, #4194304	@ 0x400000
 8000478:	bf3c      	itt	cc
 800047a:	f501 1180 	addcc.w	r1, r1, #1048576	@ 0x100000
 800047e:	bd30      	popcc	{r4, r5, pc}
 8000480:	f001 4500 	and.w	r5, r1, #2147483648	@ 0x80000000
 8000484:	f045 41fe 	orr.w	r1, r5, #2130706432	@ 0x7f000000
 8000488:	f441 0170 	orr.w	r1, r1, #15728640	@ 0xf00000
 800048c:	f04f 0000 	mov.w	r0, #0
 8000490:	bd30      	pop	{r4, r5, pc}
 8000492:	ea7f 5c64 	mvns.w	ip, r4, asr #21
 8000496:	bf1a      	itte	ne
 8000498:	4619      	movne	r1, r3
 800049a:	4610      	movne	r0, r2
 800049c:	ea7f 5c65 	mvnseq.w	ip, r5, asr #21
 80004a0:	bf1c      	itt	ne
 80004a2:	460b      	movne	r3, r1
 80004a4:	4602      	movne	r2, r0
 80004a6:	ea50 3401 	orrs.w	r4, r0, r1, lsl #12
 80004aa:	bf06      	itte	eq
 80004ac:	ea52 3503 	orrseq.w	r5, r2, r3, lsl #12
 80004b0:	ea91 0f03 	teqeq	r1, r3
 80004b4:	f441 2100 	orrne.w	r1, r1, #524288	@ 0x80000
 80004b8:	bd30      	pop	{r4, r5, pc}
 80004ba:	bf00      	nop

080004bc <__aeabi_ui2d>:
 80004bc:	f090 0f00 	teq	r0, #0
 80004c0:	bf04      	itt	eq
 80004c2:	2100      	moveq	r1, #0
 80004c4:	4770      	bxeq	lr
 80004c6:	b530      	push	{r4, r5, lr}
 80004c8:	f44f 6480 	mov.w	r4, #1024	@ 0x400
 80004cc:	f104 0432 	add.w	r4, r4, #50	@ 0x32
 80004d0:	f04f 0500 	mov.w	r5, #0
 80004d4:	f04f 0100 	mov.w	r1, #0
 80004d8:	e750      	b.n	800037c <__adddf3+0x138>
 80004da:	bf00      	nop

080004dc <__aeabi_i2d>:
 80004dc:	f090 0f00 	teq	r0, #0
 80004e0:	bf04      	itt	eq
 80004e2:	2100      	moveq	r1, #0
 80004e4:	4770      	bxeq	lr
 80004e6:	b530      	push	{r4, r5, lr}
 80004e8:	f44f 6480 	mov.w	r4, #1024	@ 0x400
 80004ec:	f104 0432 	add.w	r4, r4, #50	@ 0x32
 80004f0:	f010 4500 	ands.w	r5, r0, #2147483648	@ 0x80000000
 80004f4:	bf48      	it	mi
 80004f6:	4240      	negmi	r0, r0
 80004f8:	f04f 0100 	mov.w	r1, #0
 80004fc:	e73e      	b.n	800037c <__adddf3+0x138>
 80004fe:	bf00      	nop

08000500 <__aeabi_f2d>:
 8000500:	0042      	lsls	r2, r0, #1
 8000502:	ea4f 01e2 	mov.w	r1, r2, asr #3
 8000506:	ea4f 0131 	mov.w	r1, r1, rrx
 800050a:	ea4f 7002 	mov.w	r0, r2, lsl #28
 800050e:	bf1f      	itttt	ne
 8000510:	f012 437f 	andsne.w	r3, r2, #4278190080	@ 0xff000000
 8000514:	f093 4f7f 	teqne	r3, #4278190080	@ 0xff000000
 8000518:	f081 5160 	eorne.w	r1, r1, #939524096	@ 0x38000000
 800051c:	4770      	bxne	lr
 800051e:	f032 427f 	bics.w	r2, r2, #4278190080	@ 0xff000000
 8000522:	bf08      	it	eq
 8000524:	4770      	bxeq	lr
 8000526:	f093 4f7f 	teq	r3, #4278190080	@ 0xff000000
 800052a:	bf04      	itt	eq
 800052c:	f441 2100 	orreq.w	r1, r1, #524288	@ 0x80000
 8000530:	4770      	bxeq	lr
 8000532:	b530      	push	{r4, r5, lr}
 8000534:	f44f 7460 	mov.w	r4, #896	@ 0x380
 8000538:	f001 4500 	and.w	r5, r1, #2147483648	@ 0x80000000
 800053c:	f021 4100 	bic.w	r1, r1, #2147483648	@ 0x80000000
 8000540:	e71c      	b.n	800037c <__adddf3+0x138>
 8000542:	bf00      	nop

08000544 <__aeabi_ul2d>:
 8000544:	ea50 0201 	orrs.w	r2, r0, r1
 8000548:	bf08      	it	eq
 800054a:	4770      	bxeq	lr
 800054c:	b530      	push	{r4, r5, lr}
 800054e:	f04f 0500 	mov.w	r5, #0
 8000552:	e00a      	b.n	800056a <__aeabi_l2d+0x16>

08000554 <__aeabi_l2d>:
 8000554:	ea50 0201 	orrs.w	r2, r0, r1
 8000558:	bf08      	it	eq
 800055a:	4770      	bxeq	lr
 800055c:	b530      	push	{r4, r5, lr}
 800055e:	f011 4500 	ands.w	r5, r1, #2147483648	@ 0x80000000
 8000562:	d502      	bpl.n	800056a <__aeabi_l2d+0x16>
 8000564:	4240      	negs	r0, r0
 8000566:	eb61 0141 	sbc.w	r1, r1, r1, lsl #1
 800056a:	f44f 6480 	mov.w	r4, #1024	@ 0x400
 800056e:	f104 0432 	add.w	r4, r4, #50	@ 0x32
 8000572:	ea5f 5c91 	movs.w	ip, r1, lsr #22
 8000576:	f43f aed8 	beq.w	800032a <__adddf3+0xe6>
 800057a:	f04f 0203 	mov.w	r2, #3
 800057e:	ea5f 0cdc 	movs.w	ip, ip, lsr #3
 8000582:	bf18      	it	ne
 8000584:	3203      	addne	r2, #3
 8000586:	ea5f 0cdc 	movs.w	ip, ip, lsr #3
 800058a:	bf18      	it	ne
 800058c:	3203      	addne	r2, #3
 800058e:	eb02 02dc 	add.w	r2, r2, ip, lsr #3
 8000592:	f1c2 0320 	rsb	r3, r2, #32
 8000596:	fa00 fc03 	lsl.w	ip, r0, r3
 800059a:	fa20 f002 	lsr.w	r0, r0, r2
 800059e:	fa01 fe03 	lsl.w	lr, r1, r3
 80005a2:	ea40 000e 	orr.w	r0, r0, lr
 80005a6:	fa21 f102 	lsr.w	r1, r1, r2
 80005aa:	4414      	add	r4, r2
 80005ac:	e6bd      	b.n	800032a <__adddf3+0xe6>
 80005ae:	bf00      	nop

080005b0 <__aeabi_uldivmod>:
 80005b0:	b953      	cbnz	r3, 80005c8 <__aeabi_uldivmod+0x18>
 80005b2:	b94a      	cbnz	r2, 80005c8 <__aeabi_uldivmod+0x18>
 80005b4:	2900      	cmp	r1, #0
 80005b6:	bf08      	it	eq
 80005b8:	2800      	cmpeq	r0, #0
 80005ba:	bf1c      	itt	ne
 80005bc:	f04f 31ff 	movne.w	r1, #4294967295
 80005c0:	f04f 30ff 	movne.w	r0, #4294967295
 80005c4:	f000 b96a 	b.w	800089c <__aeabi_idiv0>
 80005c8:	f1ad 0c08 	sub.w	ip, sp, #8
 80005cc:	e96d ce04 	strd	ip, lr, [sp, #-16]!
 80005d0:	f000 f806 	bl	80005e0 <__udivmoddi4>
 80005d4:	f8dd e004 	ldr.w	lr, [sp, #4]
 80005d8:	e9dd 2302 	ldrd	r2, r3, [sp, #8]
 80005dc:	b004      	add	sp, #16
 80005de:	4770      	bx	lr

080005e0 <__udivmoddi4>:
 80005e0:	e92d 47f0 	stmdb	sp!, {r4, r5, r6, r7, r8, r9, sl, lr}
 80005e4:	9d08      	ldr	r5, [sp, #32]
 80005e6:	460c      	mov	r4, r1
 80005e8:	2b00      	cmp	r3, #0
 80005ea:	d14e      	bne.n	800068a <__udivmoddi4+0xaa>
 80005ec:	4694      	mov	ip, r2
 80005ee:	458c      	cmp	ip, r1
 80005f0:	4686      	mov	lr, r0
 80005f2:	fab2 f282 	clz	r2, r2
 80005f6:	d962      	bls.n	80006be <__udivmoddi4+0xde>
 80005f8:	b14a      	cbz	r2, 800060e <__udivmoddi4+0x2e>
 80005fa:	f1c2 0320 	rsb	r3, r2, #32
 80005fe:	4091      	lsls	r1, r2
 8000600:	fa20 f303 	lsr.w	r3, r0, r3
 8000604:	fa0c fc02 	lsl.w	ip, ip, r2
 8000608:	4319      	orrs	r1, r3
 800060a:	fa00 fe02 	lsl.w	lr, r0, r2
 800060e:	ea4f 471c 	mov.w	r7, ip, lsr #16
 8000612:	fa1f f68c 	uxth.w	r6, ip
 8000616:	fbb1 f4f7 	udiv	r4, r1, r7
 800061a:	ea4f 431e 	mov.w	r3, lr, lsr #16
 800061e:	fb07 1114 	mls	r1, r7, r4, r1
 8000622:	ea43 4301 	orr.w	r3, r3, r1, lsl #16
 8000626:	fb04 f106 	mul.w	r1, r4, r6
 800062a:	4299      	cmp	r1, r3
 800062c:	d90a      	bls.n	8000644 <__udivmoddi4+0x64>
 800062e:	eb1c 0303 	adds.w	r3, ip, r3
 8000632:	f104 30ff 	add.w	r0, r4, #4294967295
 8000636:	f080 8112 	bcs.w	800085e <__udivmoddi4+0x27e>
 800063a:	4299      	cmp	r1, r3
 800063c:	f240 810f 	bls.w	800085e <__udivmoddi4+0x27e>
 8000640:	3c02      	subs	r4, #2
 8000642:	4463      	add	r3, ip
 8000644:	1a59      	subs	r1, r3, r1
 8000646:	fa1f f38e 	uxth.w	r3, lr
 800064a:	fbb1 f0f7 	udiv	r0, r1, r7
 800064e:	fb07 1110 	mls	r1, r7, r0, r1
 8000652:	ea43 4301 	orr.w	r3, r3, r1, lsl #16
 8000656:	fb00 f606 	mul.w	r6, r0, r6
 800065a:	429e      	cmp	r6, r3
 800065c:	d90a      	bls.n	8000674 <__udivmoddi4+0x94>
 800065e:	eb1c 0303 	adds.w	r3, ip, r3
 8000662:	f100 31ff 	add.w	r1, r0, #4294967295
 8000666:	f080 80fc 	bcs.w	8000862 <__udivmoddi4+0x282>
 800066a:	429e      	cmp	r6, r3
 800066c:	f240 80f9 	bls.w	8000862 <__udivmoddi4+0x282>
 8000670:	4463      	add	r3, ip
 8000672:	3802      	subs	r0, #2
 8000674:	1b9b      	subs	r3, r3, r6
 8000676:	ea40 4004 	orr.w	r0, r0, r4, lsl #16
 800067a:	2100      	movs	r1, #0
 800067c:	b11d      	cbz	r5, 8000686 <__udivmoddi4+0xa6>
 800067e:	40d3      	lsrs	r3, r2
 8000680:	2200      	movs	r2, #0
 8000682:	e9c5 3200 	strd	r3, r2, [r5]
 8000686:	e8bd 87f0 	ldmia.w	sp!, {r4, r5, r6, r7, r8, r9, sl, pc}
 800068a:	428b      	cmp	r3, r1
 800068c:	d905      	bls.n	800069a <__udivmoddi4+0xba>
 800068e:	b10d      	cbz	r5, 8000694 <__udivmoddi4+0xb4>
 8000690:	e9c5 0100 	strd	r0, r1, [r5]
 8000694:	2100      	movs	r1, #0
 8000696:	4608      	mov	r0, r1
 8000698:	e7f5      	b.n	8000686 <__udivmoddi4+0xa6>
 800069a:	fab3 f183 	clz	r1, r3
 800069e:	2900      	cmp	r1, #0
 80006a0:	d146      	bne.n	8000730 <__udivmoddi4+0x150>
 80006a2:	42a3      	cmp	r3, r4
 80006a4:	d302      	bcc.n	80006ac <__udivmoddi4+0xcc>
 80006a6:	4290      	cmp	r0, r2
 80006a8:	f0c0 80f0 	bcc.w	800088c <__udivmoddi4+0x2ac>
 80006ac:	1a86      	subs	r6, r0, r2
 80006ae:	eb64 0303 	sbc.w	r3, r4, r3
 80006b2:	2001      	movs	r0, #1
 80006b4:	2d00      	cmp	r5, #0
 80006b6:	d0e6      	beq.n	8000686 <__udivmoddi4+0xa6>
 80006b8:	e9c5 6300 	strd	r6, r3, [r5]
 80006bc:	e7e3      	b.n	8000686 <__udivmoddi4+0xa6>
 80006be:	2a00      	cmp	r2, #0
 80006c0:	f040 8090 	bne.w	80007e4 <__udivmoddi4+0x204>
 80006c4:	eba1 040c 	sub.w	r4, r1, ip
 80006c8:	ea4f 481c 	mov.w	r8, ip, lsr #16
 80006cc:	fa1f f78c 	uxth.w	r7, ip
 80006d0:	2101      	movs	r1, #1
 80006d2:	fbb4 f6f8 	udiv	r6, r4, r8
 80006d6:	ea4f 431e 	mov.w	r3, lr, lsr #16
 80006da:	fb08 4416 	mls	r4, r8, r6, r4
 80006de:	ea43 4304 	orr.w	r3, r3, r4, lsl #16
 80006e2:	fb07 f006 	mul.w	r0, r7, r6
 80006e6:	4298      	cmp	r0, r3
 80006e8:	d908      	bls.n	80006fc <__udivmoddi4+0x11c>
 80006ea:	eb1c 0303 	adds.w	r3, ip, r3
 80006ee:	f106 34ff 	add.w	r4, r6, #4294967295
 80006f2:	d202      	bcs.n	80006fa <__udivmoddi4+0x11a>
 80006f4:	4298      	cmp	r0, r3
 80006f6:	f200 80cd 	bhi.w	8000894 <__udivmoddi4+0x2b4>
 80006fa:	4626      	mov	r6, r4
 80006fc:	1a1c      	subs	r4, r3, r0
 80006fe:	fa1f f38e 	uxth.w	r3, lr
 8000702:	fbb4 f0f8 	udiv	r0, r4, r8
 8000706:	fb08 4410 	mls	r4, r8, r0, r4
 800070a:	ea43 4304 	orr.w	r3, r3, r4, lsl #16
 800070e:	fb00 f707 	mul.w	r7, r0, r7
 8000712:	429f      	cmp	r7, r3
 8000714:	d908      	bls.n	8000728 <__udivmoddi4+0x148>
 8000716:	eb1c 0303 	adds.w	r3, ip, r3
 800071a:	f100 34ff 	add.w	r4, r0, #4294967295
 800071e:	d202      	bcs.n	8000726 <__udivmoddi4+0x146>
 8000720:	429f      	cmp	r7, r3
 8000722:	f200 80b0 	bhi.w	8000886 <__udivmoddi4+0x2a6>
 8000726:	4620      	mov	r0, r4
 8000728:	1bdb      	subs	r3, r3, r7
 800072a:	ea40 4006 	orr.w	r0, r0, r6, lsl #16
 800072e:	e7a5      	b.n	800067c <__udivmoddi4+0x9c>
 8000730:	f1c1 0620 	rsb	r6, r1, #32
 8000734:	408b      	lsls	r3, r1
 8000736:	fa22 f706 	lsr.w	r7, r2, r6
 800073a:	431f      	orrs	r7, r3
 800073c:	fa20 fc06 	lsr.w	ip, r0, r6
 8000740:	fa04 f301 	lsl.w	r3, r4, r1
 8000744:	ea43 030c 	orr.w	r3, r3, ip
 8000748:	40f4      	lsrs	r4, r6
 800074a:	fa00 f801 	lsl.w	r8, r0, r1
 800074e:	0c38      	lsrs	r0, r7, #16
 8000750:	ea4f 4913 	mov.w	r9, r3, lsr #16
 8000754:	fbb4 fef0 	udiv	lr, r4, r0
 8000758:	fa1f fc87 	uxth.w	ip, r7
 800075c:	fb00 441e 	mls	r4, r0, lr, r4
 8000760:	ea49 4404 	orr.w	r4, r9, r4, lsl #16
 8000764:	fb0e f90c 	mul.w	r9, lr, ip
 8000768:	45a1      	cmp	r9, r4
 800076a:	fa02 f201 	lsl.w	r2, r2, r1
 800076e:	d90a      	bls.n	8000786 <__udivmoddi4+0x1a6>
 8000770:	193c      	adds	r4, r7, r4
 8000772:	f10e 3aff 	add.w	sl, lr, #4294967295
 8000776:	f080 8084 	bcs.w	8000882 <__udivmoddi4+0x2a2>
 800077a:	45a1      	cmp	r9, r4
 800077c:	f240 8081 	bls.w	8000882 <__udivmoddi4+0x2a2>
 8000780:	f1ae 0e02 	sub.w	lr, lr, #2
 8000784:	443c      	add	r4, r7
 8000786:	eba4 0409 	sub.w	r4, r4, r9
 800078a:	fa1f f983 	uxth.w	r9, r3
 800078e:	fbb4 f3f0 	udiv	r3, r4, r0
 8000792:	fb00 4413 	mls	r4, r0, r3, r4
 8000796:	ea49 4404 	orr.w	r4, r9, r4, lsl #16
 800079a:	fb03 fc0c 	mul.w	ip, r3, ip
 800079e:	45a4      	cmp	ip, r4
 80007a0:	d907      	bls.n	80007b2 <__udivmoddi4+0x1d2>
 80007a2:	193c      	adds	r4, r7, r4
 80007a4:	f103 30ff 	add.w	r0, r3, #4294967295
 80007a8:	d267      	bcs.n	800087a <__udivmoddi4+0x29a>
 80007aa:	45a4      	cmp	ip, r4
 80007ac:	d965      	bls.n	800087a <__udivmoddi4+0x29a>
 80007ae:	3b02      	subs	r3, #2
 80007b0:	443c      	add	r4, r7
 80007b2:	ea43 400e 	orr.w	r0, r3, lr, lsl #16
 80007b6:	fba0 9302 	umull	r9, r3, r0, r2
 80007ba:	eba4 040c 	sub.w	r4, r4, ip
 80007be:	429c      	cmp	r4, r3
 80007c0:	46ce      	mov	lr, r9
 80007c2:	469c      	mov	ip, r3
 80007c4:	d351      	bcc.n	800086a <__udivmoddi4+0x28a>
 80007c6:	d04e      	beq.n	8000866 <__udivmoddi4+0x286>
 80007c8:	b155      	cbz	r5, 80007e0 <__udivmoddi4+0x200>
 80007ca:	ebb8 030e 	subs.w	r3, r8, lr
 80007ce:	eb64 040c 	sbc.w	r4, r4, ip
 80007d2:	fa04 f606 	lsl.w	r6, r4, r6
 80007d6:	40cb      	lsrs	r3, r1
 80007d8:	431e      	orrs	r6, r3
 80007da:	40cc      	lsrs	r4, r1
 80007dc:	e9c5 6400 	strd	r6, r4, [r5]
 80007e0:	2100      	movs	r1, #0
 80007e2:	e750      	b.n	8000686 <__udivmoddi4+0xa6>
 80007e4:	f1c2 0320 	rsb	r3, r2, #32
 80007e8:	fa20 f103 	lsr.w	r1, r0, r3
 80007ec:	fa0c fc02 	lsl.w	ip, ip, r2
 80007f0:	fa24 f303 	lsr.w	r3, r4, r3
 80007f4:	4094      	lsls	r4, r2
 80007f6:	430c      	orrs	r4, r1
 80007f8:	ea4f 481c 	mov.w	r8, ip, lsr #16
 80007fc:	fa00 fe02 	lsl.w	lr, r0, r2
 8000800:	fa1f f78c 	uxth.w	r7, ip
 8000804:	fbb3 f0f8 	udiv	r0, r3, r8
 8000808:	fb08 3110 	mls	r1, r8, r0, r3
 800080c:	0c23      	lsrs	r3, r4, #16
 800080e:	ea43 4301 	orr.w	r3, r3, r1, lsl #16
 8000812:	fb00 f107 	mul.w	r1, r0, r7
 8000816:	4299      	cmp	r1, r3
 8000818:	d908      	bls.n	800082c <__udivmoddi4+0x24c>
 800081a:	eb1c 0303 	adds.w	r3, ip, r3
 800081e:	f100 36ff 	add.w	r6, r0, #4294967295
 8000822:	d22c      	bcs.n	800087e <__udivmoddi4+0x29e>
 8000824:	4299      	cmp	r1, r3
 8000826:	d92a      	bls.n	800087e <__udivmoddi4+0x29e>
 8000828:	3802      	subs	r0, #2
 800082a:	4463      	add	r3, ip
 800082c:	1a5b      	subs	r3, r3, r1
 800082e:	b2a4      	uxth	r4, r4
 8000830:	fbb3 f1f8 	udiv	r1, r3, r8
 8000834:	fb08 3311 	mls	r3, r8, r1, r3
 8000838:	ea44 4403 	orr.w	r4, r4, r3, lsl #16
 800083c:	fb01 f307 	mul.w	r3, r1, r7
 8000840:	42a3      	cmp	r3, r4
 8000842:	d908      	bls.n	8000856 <__udivmoddi4+0x276>
 8000844:	eb1c 0404 	adds.w	r4, ip, r4
 8000848:	f101 36ff 	add.w	r6, r1, #4294967295
 800084c:	d213      	bcs.n	8000876 <__udivmoddi4+0x296>
 800084e:	42a3      	cmp	r3, r4
 8000850:	d911      	bls.n	8000876 <__udivmoddi4+0x296>
 8000852:	3902      	subs	r1, #2
 8000854:	4464      	add	r4, ip
 8000856:	1ae4      	subs	r4, r4, r3
 8000858:	ea41 4100 	orr.w	r1, r1, r0, lsl #16
 800085c:	e739      	b.n	80006d2 <__udivmoddi4+0xf2>
 800085e:	4604      	mov	r4, r0
 8000860:	e6f0      	b.n	8000644 <__udivmoddi4+0x64>
 8000862:	4608      	mov	r0, r1
 8000864:	e706      	b.n	8000674 <__udivmoddi4+0x94>
 8000866:	45c8      	cmp	r8, r9
 8000868:	d2ae      	bcs.n	80007c8 <__udivmoddi4+0x1e8>
 800086a:	ebb9 0e02 	subs.w	lr, r9, r2
 800086e:	eb63 0c07 	sbc.w	ip, r3, r7
 8000872:	3801      	subs	r0, #1
 8000874:	e7a8      	b.n	80007c8 <__udivmoddi4+0x1e8>
 8000876:	4631      	mov	r1, r6
 8000878:	e7ed      	b.n	8000856 <__udivmoddi4+0x276>
 800087a:	4603      	mov	r3, r0
 800087c:	e799      	b.n	80007b2 <__udivmoddi4+0x1d2>
 800087e:	4630      	mov	r0, r6
 8000880:	e7d4      	b.n	800082c <__udivmoddi4+0x24c>
 8000882:	46d6      	mov	lr, sl
 8000884:	e77f      	b.n	8000786 <__udivmoddi4+0x1a6>
 8000886:	4463      	add	r3, ip
 8000888:	3802      	subs	r0, #2
 800088a:	e74d      	b.n	8000728 <__udivmoddi4+0x148>
 800088c:	4606      	mov	r6, r0
 800088e:	4623      	mov	r3, r4
 8000890:	4608      	mov	r0, r1
 8000892:	e70f      	b.n	80006b4 <__udivmoddi4+0xd4>
 8000894:	3e02      	subs	r6, #2
 8000896:	4463      	add	r3, ip
 8000898:	e730      	b.n	80006fc <__udivmoddi4+0x11c>
 800089a:	bf00      	nop

0800089c <__aeabi_idiv0>:
 800089c:	4770      	bx	lr
 800089e:	bf00      	nop

080008a0 <send_CAN_message>:
  *
  * @param hcan Pointer to the CAN handle structure.
  * @param dbc_msg Pointer to the structure containing CAN message information from CAN1db.h.
  * @param data Pointer to the array of float data to be sent.
  */
void send_CAN_message(CAN_HandleTypeDef *hcan, void *dbc_msg, const float *data) {
 80008a0:	e92d 4ff0 	stmdb	sp!, {r4, r5, r6, r7, r8, r9, sl, fp, lr}
    uint8_t ide = ((const uint8_t*)dbc_msg)[4];
    uint8_t dlc = ((const uint8_t*)dbc_msg)[5];
    const struct signal_positioned *signals = (const struct signal_positioned*)((const uint8_t*)dbc_msg + 12);

    // Prepare data array
    uint8_t txData[8] = {0};
 80008a4:	2300      	movs	r3, #0
void send_CAN_message(CAN_HandleTypeDef *hcan, void *dbc_msg, const float *data) {
 80008a6:	b089      	sub	sp, #36	@ 0x24
    uint8_t dlc = ((const uint8_t*)dbc_msg)[5];
 80008a8:	794f      	ldrb	r7, [r1, #5]
    uint32_t id = ((const uint32_t*)dbc_msg)[0];
 80008aa:	f8d1 9000 	ldr.w	r9, [r1]
    uint8_t ide = ((const uint8_t*)dbc_msg)[4];
 80008ae:	f891 8004 	ldrb.w	r8, [r1, #4]
    uint8_t txData[8] = {0};
 80008b2:	e9cd 3300 	strd	r3, r3, [sp]

    // Loop through signals
    for (int i = 0; i < dlc; i++) {
 80008b6:	2f00      	cmp	r7, #0
 80008b8:	d048      	beq.n	800094c <send_CAN_message+0xac>
 80008ba:	468c      	mov	ip, r1
 80008bc:	4614      	mov	r4, r2
 80008be:	eb02 0687 	add.w	r6, r2, r7, lsl #2
        // Extract signal properties
        uint8_t lengthBits = signals[i].attributes->lengthBits;
 80008c2:	f8dc 3010 	ldr.w	r3, [ip, #16]
        float factor = signals[i].attributes->factor;
        float offset = signals[i].attributes->offset;

        // Convert float data to integer
        uint32_t intData = (uint32_t)((data[i] - offset) / factor);
 80008c6:	ecf4 7a01 	vldmia	r4!, {s15}
 80008ca:	ed93 7a04 	vldr	s14, [r3, #16]
 80008ce:	edd3 6a03 	vldr	s13, [r3, #12]
 80008d2:	ee77 7ac7 	vsub.f32	s15, s15, s14

        // Pack the data into bytes
        for (int j = 0; j < lengthBits / 8; j++) {
 80008d6:	7a5a      	ldrb	r2, [r3, #9]
 80008d8:	08d2      	lsrs	r2, r2, #3
        uint32_t intData = (uint32_t)((data[i] - offset) / factor);
 80008da:	ee87 7aa6 	vdiv.f32	s14, s15, s13
 80008de:	eefc 7ac7 	vcvt.u32.f32	s15, s14
 80008e2:	ee17 1a90 	vmov	r1, s15
        for (int j = 0; j < lengthBits / 8; j++) {
 80008e6:	d02d      	beq.n	8000944 <send_CAN_message+0xa4>
            txData[signals[i].position / 8 + j] |= (intData >> (8 * j)) & 0xFF;
 80008e8:	f89c 300c 	ldrb.w	r3, [ip, #12]
 80008ec:	ad08      	add	r5, sp, #32
        for (int j = 0; j < lengthBits / 8; j++) {
 80008ee:	2a01      	cmp	r2, #1
            txData[signals[i].position / 8 + j] |= (intData >> (8 * j)) & 0xFF;
 80008f0:	eb05 05d3 	add.w	r5, r5, r3, lsr #3
 80008f4:	ea4f 03d3 	mov.w	r3, r3, lsr #3
 80008f8:	f815 bc20 	ldrb.w	fp, [r5, #-32]
 80008fc:	f103 0e21 	add.w	lr, r3, #33	@ 0x21
 8000900:	f103 0a22 	add.w	sl, r3, #34	@ 0x22
 8000904:	ea4b 0b01 	orr.w	fp, fp, r1
 8000908:	f103 0323 	add.w	r3, r3, #35	@ 0x23
 800090c:	44ee      	add	lr, sp
 800090e:	44ea      	add	sl, sp
 8000910:	446b      	add	r3, sp
 8000912:	f805 bc20 	strb.w	fp, [r5, #-32]
        for (int j = 0; j < lengthBits / 8; j++) {
 8000916:	d015      	beq.n	8000944 <send_CAN_message+0xa4>
            txData[signals[i].position / 8 + j] |= (intData >> (8 * j)) & 0xFF;
 8000918:	f81e 5c20 	ldrb.w	r5, [lr, #-32]
        for (int j = 0; j < lengthBits / 8; j++) {
 800091c:	2a02      	cmp	r2, #2
            txData[signals[i].position / 8 + j] |= (intData >> (8 * j)) & 0xFF;
 800091e:	ea45 2511 	orr.w	r5, r5, r1, lsr #8
 8000922:	f80e 5c20 	strb.w	r5, [lr, #-32]
        for (int j = 0; j < lengthBits / 8; j++) {
 8000926:	d00d      	beq.n	8000944 <send_CAN_message+0xa4>
            txData[signals[i].position / 8 + j] |= (intData >> (8 * j)) & 0xFF;
 8000928:	f81a 5c20 	ldrb.w	r5, [sl, #-32]
        for (int j = 0; j < lengthBits / 8; j++) {
 800092c:	2a03      	cmp	r2, #3
            txData[signals[i].position / 8 + j] |= (intData >> (8 * j)) & 0xFF;
 800092e:	ea45 4511 	orr.w	r5, r5, r1, lsr #16
 8000932:	f80a 5c20 	strb.w	r5, [sl, #-32]
        for (int j = 0; j < lengthBits / 8; j++) {
 8000936:	d005      	beq.n	8000944 <send_CAN_message+0xa4>
            txData[signals[i].position / 8 + j] |= (intData >> (8 * j)) & 0xFF;
 8000938:	f813 2c20 	ldrb.w	r2, [r3, #-32]
 800093c:	ea42 6211 	orr.w	r2, r2, r1, lsr #24
 8000940:	f803 2c20 	strb.w	r2, [r3, #-32]
    for (int i = 0; i < dlc; i++) {
 8000944:	42a6      	cmp	r6, r4
 8000946:	f10c 0c08 	add.w	ip, ip, #8
 800094a:	d1ba      	bne.n	80008c2 <send_CAN_message+0x22>

    // Prepare CAN header
    CAN_TxHeaderTypeDef txHeader;
    txHeader.StdId = id;
    txHeader.IDE = ide;
    txHeader.RTR = CAN_RTR_DATA;
 800094c:	2300      	movs	r3, #0
    txHeader.DLC = dlc;

    // Send the CAN message
    HAL_CAN_AddTxMessage(hcan, &txHeader, txData, NULL);
 800094e:	466a      	mov	r2, sp
 8000950:	a902      	add	r1, sp, #8
    txHeader.StdId = id;
 8000952:	f8cd 9008 	str.w	r9, [sp, #8]
    txHeader.IDE = ide;
 8000956:	f8cd 8010 	str.w	r8, [sp, #16]
    txHeader.DLC = dlc;
 800095a:	e9cd 3705 	strd	r3, r7, [sp, #20]
    HAL_CAN_AddTxMessage(hcan, &txHeader, txData, NULL);
 800095e:	f002 fadb 	bl	8002f18 <HAL_CAN_AddTxMessage>
}
 8000962:	b009      	add	sp, #36	@ 0x24
 8000964:	e8bd 8ff0 	ldmia.w	sp!, {r4, r5, r6, r7, r8, r9, sl, fp, pc}

08000968 <handle_CAN>:
void handle_CAN(CAN_HandleTypeDef *hcan) {
 8000968:	b530      	push	{r4, r5, lr}
 800096a:	b08f      	sub	sp, #60	@ 0x3c
    HAL_CAN_GetRxMessage(hcan, CAN_RX_FIFO0, &rxHeader, rxData);
 800096c:	2100      	movs	r1, #0
void handle_CAN(CAN_HandleTypeDef *hcan) {
 800096e:	4604      	mov	r4, r0
    HAL_CAN_GetRxMessage(hcan, CAN_RX_FIFO0, &rxHeader, rxData);
 8000970:	ab01      	add	r3, sp, #4
 8000972:	aa07      	add	r2, sp, #28
 8000974:	f002 fb22 	bl	8002fbc <HAL_CAN_GetRxMessage>
    if (rxHeader.StdId == DBC_CAN1DB_MSG_AP_ETAS_Synchronism.ID) {
 8000978:	9b07      	ldr	r3, [sp, #28]
 800097a:	2b80      	cmp	r3, #128	@ 0x80
 800097c:	d001      	beq.n	8000982 <handle_CAN+0x1a>
}
 800097e:	b00f      	add	sp, #60	@ 0x3c
 8000980:	bd30      	pop	{r4, r5, pc}
    	keepAlive++;
 8000982:	4d0c      	ldr	r5, [pc, #48]	@ (80009b4 <handle_CAN+0x4c>)
        send_CAN_message(hcan, &DBC_CAN1DB_MSG_AP_InvRear_Temperatures, temperatures);
 8000984:	4620      	mov	r0, r4
        float temperatures[] = {inverter_left.tempInverter, inverter_right.tempInverter, inverter_left.tempMotor, inverter_right.tempMotor};
 8000986:	490c      	ldr	r1, [pc, #48]	@ (80009b8 <handle_CAN+0x50>)
    	keepAlive++;
 8000988:	782b      	ldrb	r3, [r5, #0]
        float temperatures[] = {inverter_left.tempInverter, inverter_right.tempInverter, inverter_left.tempMotor, inverter_right.tempMotor};
 800098a:	4a0c      	ldr	r2, [pc, #48]	@ (80009bc <handle_CAN+0x54>)
    	keepAlive++;
 800098c:	3301      	adds	r3, #1
        float temperatures[] = {inverter_left.tempInverter, inverter_right.tempInverter, inverter_left.tempMotor, inverter_right.tempMotor};
 800098e:	f8d1 c07c 	ldr.w	ip, [r1, #124]	@ 0x7c
    	keepAlive++;
 8000992:	702b      	strb	r3, [r5, #0]
        float temperatures[] = {inverter_left.tempInverter, inverter_right.tempInverter, inverter_left.tempMotor, inverter_right.tempMotor};
 8000994:	6fd5      	ldr	r5, [r2, #124]	@ 0x7c
 8000996:	f8d1 4080 	ldr.w	r4, [r1, #128]	@ 0x80
 800099a:	f8d2 3080 	ldr.w	r3, [r2, #128]	@ 0x80
        send_CAN_message(hcan, &DBC_CAN1DB_MSG_AP_InvRear_Temperatures, temperatures);
 800099e:	aa03      	add	r2, sp, #12
 80009a0:	4907      	ldr	r1, [pc, #28]	@ (80009c0 <handle_CAN+0x58>)
        float temperatures[] = {inverter_left.tempInverter, inverter_right.tempInverter, inverter_left.tempMotor, inverter_right.tempMotor};
 80009a2:	f8cd c00c 	str.w	ip, [sp, #12]
 80009a6:	9504      	str	r5, [sp, #16]
 80009a8:	9405      	str	r4, [sp, #20]
 80009aa:	9306      	str	r3, [sp, #24]
        send_CAN_message(hcan, &DBC_CAN1DB_MSG_AP_InvRear_Temperatures, temperatures);
 80009ac:	f7ff ff78 	bl	80008a0 <send_CAN_message>
}
 80009b0:	b00f      	add	sp, #60	@ 0x3c
 80009b2:	bd30      	pop	{r4, r5, pc}
 80009b4:	200001e4 	.word	0x200001e4
 80009b8:	20000348 	.word	0x20000348
 80009bc:	200001e8 	.word	0x200001e8
 80009c0:	20000000 	.word	0x20000000
 80009c4:	00000000 	.word	0x00000000

080009c8 <calc_current_reference>:
    static int8_t signTorqueRef = 1;

    float isRefCTC;
    float gammaRefMTPA;

	if (torqueRef >= 0){
 80009c8:	eef5 0ac0 	vcmpe.f32	s1, #0.0
 80009cc:	eeff 7a00 	vmov.f32	s15, #240	@ 0xbf800000 -1.0
void calc_current_reference(float we, float torqueRef, float vsRef, MotorParameters * motor, volatile float * idRef, volatile float * iqRef){
 80009d0:	b5f8      	push	{r3, r4, r5, r6, r7, lr}
 80009d2:	eef1 fa10 	vmrs	APSR_nzcv, fpscr
 80009d6:	4615      	mov	r5, r2

	torqueRef = fabs(torqueRef);


    // CTC
    if (gammaRef == M_PI_2 || torqueRef == 0.0F || motor->Ld == motor->Lq) {
 80009d8:	eef5 0a40 	vcmp.f32	s1, #0.0
 80009dc:	4b56      	ldr	r3, [pc, #344]	@ (8000b38 <calc_current_reference+0x170>)
 80009de:	4f57      	ldr	r7, [pc, #348]	@ (8000b3c <calc_current_reference+0x174>)
void calc_current_reference(float we, float torqueRef, float vsRef, MotorParameters * motor, volatile float * idRef, volatile float * iqRef){
 80009e0:	4604      	mov	r4, r0
 80009e2:	bfac      	ite	ge
 80009e4:	2201      	movge	r2, #1
 80009e6:	f04f 32ff 	movlt.w	r2, #4294967295
 80009ea:	460e      	mov	r6, r1
 80009ec:	ed2d 8b04 	vpush	{d8-d9}
 80009f0:	eeb7 9a00 	vmov.f32	s18, #112	@ 0x3f800000  1.0
    if (gammaRef == M_PI_2 || torqueRef == 0.0F || motor->Ld == motor->Lq) {
 80009f4:	ed97 8a00 	vldr	s16, [r7]
	torqueRef = fabs(torqueRef);
 80009f8:	eef0 8ae0 	vabs.f32	s17, s1
 80009fc:	701a      	strb	r2, [r3, #0]
    if (gammaRef == M_PI_2 || torqueRef == 0.0F || motor->Ld == motor->Lq) {
 80009fe:	fe29 9a27 	vselge.f32	s18, s18, s15
 8000a02:	eef1 fa10 	vmrs	APSR_nzcv, fpscr
 8000a06:	d008      	beq.n	8000a1a <calc_current_reference+0x52>
 8000a08:	eeb7 7ac8 	vcvt.f64.f32	d7, s16
 8000a0c:	ed9f 6b48 	vldr	d6, [pc, #288]	@ 8000b30 <calc_current_reference+0x168>
 8000a10:	eeb4 7b46 	vcmp.f64	d7, d6
 8000a14:	eef1 fa10 	vmrs	APSR_nzcv, fpscr
 8000a18:	d151      	bne.n	8000abe <calc_current_reference+0xf6>
        isRefCTC = 2.0F * torqueRef * motor->constants.invThreePpLambda;
 8000a1a:	ed94 8a0e 	vldr	s16, [r4, #56]	@ 0x38
        float temp = motor->constants.fourTimesOneMinusXi * torqueRef * motor->constants.invTorqueBase;
        isRefCTC = motor->constants.isc * (sqrtf(sinGammaRef * sinGammaRef + sin2GammaRef * temp) - sinGammaRef) / (sin2GammaRef * motor->constants.oneMinusXi);
    }

    // isRef = min(isRefCTC .... iMax)
    isRef = (isRefCTC < motor->iMax) ? isRefCTC : motor->iMax;
 8000a1e:	edd4 7a0a 	vldr	s15, [r4, #40]	@ 0x28
        isRefCTC = 2.0F * torqueRef * motor->constants.invThreePpLambda;
 8000a22:	ee38 8a08 	vadd.f32	s16, s16, s16
 8000a26:	ee28 8a28 	vmul.f32	s16, s16, s17
    isRef = (isRefCTC < motor->iMax) ? isRefCTC : motor->iMax;
 8000a2a:	fe88 8a67 	vminnm.f32	s16, s16, s15

    // MTPA
    if (isRef == 0.0F || motor->Ld == motor->Lq) {
 8000a2e:	eeb5 8a40 	vcmp.f32	s16, #0.0
 8000a32:	eef1 fa10 	vmrs	APSR_nzcv, fpscr
 8000a36:	d11a      	bne.n	8000a6e <calc_current_reference+0xa6>
        gammaRefMTPA = M_PI_2;
 8000a38:	eddf 8a41 	vldr	s17, [pc, #260]	@ 8000b40 <calc_current_reference+0x178>
    } else {
        gammaRefMTPA = M_PI_2 + asinf((motor->lambda - sqrtf(motor->constants.eightTimesOneMinusXiSquared * isRef * isRef + motor->lambda * motor->lambda)) / (motor->constants.fourTimesOneMinusXi * isRef));
    }

    gammaRef = gammaRefMTPA*signTorqueRef;
 8000a3c:	ee68 8a89 	vmul.f32	s17, s17, s18

    // Polar to Cartesian
    *idRef = isRef * cosf(gammaRef);
 8000a40:	eeb0 0a68 	vmov.f32	s0, s17
    gammaRef = gammaRefMTPA*signTorqueRef;
 8000a44:	edc7 8a00 	vstr	s17, [r7]
    *idRef = isRef * cosf(gammaRef);
 8000a48:	f005 f8a6 	bl	8005b98 <cosf>
 8000a4c:	eef0 7a40 	vmov.f32	s15, s0
    *iqRef = isRef * sinf(gammaRef);
 8000a50:	eeb0 0a68 	vmov.f32	s0, s17
    *idRef = isRef * cosf(gammaRef);
 8000a54:	ee67 7a88 	vmul.f32	s15, s15, s16
 8000a58:	edc6 7a00 	vstr	s15, [r6]
    *iqRef = isRef * sinf(gammaRef);
 8000a5c:	f004 ffd8 	bl	8005a10 <sinf>
 8000a60:	ee20 0a08 	vmul.f32	s0, s0, s16
}
 8000a64:	ecbd 8b04 	vpop	{d8-d9}
    *iqRef = isRef * sinf(gammaRef);
 8000a68:	ed85 0a00 	vstr	s0, [r5]
}
 8000a6c:	bdf8      	pop	{r3, r4, r5, r6, r7, pc}
    if (isRef == 0.0F || motor->Ld == motor->Lq) {
 8000a6e:	ed94 7a00 	vldr	s14, [r4]
 8000a72:	edd4 7a01 	vldr	s15, [r4, #4]
 8000a76:	eeb4 7a67 	vcmp.f32	s14, s15
 8000a7a:	eef1 fa10 	vmrs	APSR_nzcv, fpscr
 8000a7e:	d0db      	beq.n	8000a38 <calc_current_reference+0x70>
 8000a80:	ed94 7a16 	vldr	s14, [r4, #88]	@ 0x58
        gammaRefMTPA = M_PI_2 + asinf((motor->lambda - sqrtf(motor->constants.eightTimesOneMinusXiSquared * isRef * isRef + motor->lambda * motor->lambda)) / (motor->constants.fourTimesOneMinusXi * isRef));
 8000a84:	edd4 7a03 	vldr	s15, [r4, #12]
 8000a88:	ee68 6a08 	vmul.f32	s13, s16, s16
 8000a8c:	ee28 0a07 	vmul.f32	s0, s16, s14
 8000a90:	ed94 6a17 	vldr	s12, [r4, #92]	@ 0x5c
 8000a94:	ee27 7aa7 	vmul.f32	s14, s15, s15
 8000a98:	eea6 7a26 	vfma.f32	s14, s12, s13
 8000a9c:	eef1 6ac7 	vsqrt.f32	s13, s14
 8000aa0:	ee77 7ae6 	vsub.f32	s15, s15, s13
 8000aa4:	ee87 0a80 	vdiv.f32	s0, s15, s0
 8000aa8:	f004 ff4e 	bl	8005948 <asinf>
 8000aac:	eeb7 7ac0 	vcvt.f64.f32	d7, s0
 8000ab0:	ed9f 6b1f 	vldr	d6, [pc, #124]	@ 8000b30 <calc_current_reference+0x168>
 8000ab4:	ee37 7b06 	vadd.f64	d7, d7, d6
 8000ab8:	eef7 8bc7 	vcvt.f32.f64	s17, d7
 8000abc:	e7be      	b.n	8000a3c <calc_current_reference+0x74>
    if (gammaRef == M_PI_2 || torqueRef == 0.0F || motor->Ld == motor->Lq) {
 8000abe:	ed90 7a00 	vldr	s14, [r0]
 8000ac2:	edd0 7a01 	vldr	s15, [r0, #4]
 8000ac6:	eeb4 7a67 	vcmp.f32	s14, s15
 8000aca:	eef1 fa10 	vmrs	APSR_nzcv, fpscr
 8000ace:	d0a4      	beq.n	8000a1a <calc_current_reference+0x52>
        float sinGammaRef = sinf(gammaRef);
 8000ad0:	eeb0 0a48 	vmov.f32	s0, s16
 8000ad4:	f004 ff9c 	bl	8005a10 <sinf>
 8000ad8:	eef0 7a40 	vmov.f32	s15, s0
        float sin2GammaRef = sinf(2.0F * gammaRef);
 8000adc:	ee38 0a08 	vadd.f32	s0, s16, s16
        float sinGammaRef = sinf(gammaRef);
 8000ae0:	eeb0 8a67 	vmov.f32	s16, s15
        float sin2GammaRef = sinf(2.0F * gammaRef);
 8000ae4:	f004 ff94 	bl	8005a10 <sinf>
        float temp = motor->constants.fourTimesOneMinusXi * torqueRef * motor->constants.invTorqueBase;
 8000ae8:	ed94 7a16 	vldr	s14, [r4, #88]	@ 0x58
 8000aec:	edd4 7a11 	vldr	s15, [r4, #68]	@ 0x44
        isRefCTC = motor->constants.isc * (sqrtf(sinGammaRef * sinGammaRef + sin2GammaRef * temp) - sinGammaRef) / (sin2GammaRef * motor->constants.oneMinusXi);
 8000af0:	edd4 6a14 	vldr	s13, [r4, #80]	@ 0x50
        float temp = motor->constants.fourTimesOneMinusXi * torqueRef * motor->constants.invTorqueBase;
 8000af4:	ee67 7a27 	vmul.f32	s15, s14, s15
        isRefCTC = motor->constants.isc * (sqrtf(sinGammaRef * sinGammaRef + sin2GammaRef * temp) - sinGammaRef) / (sin2GammaRef * motor->constants.oneMinusXi);
 8000af8:	edd4 5a0f 	vldr	s11, [r4, #60]	@ 0x3c
 8000afc:	ee60 6a26 	vmul.f32	s13, s0, s13
    isRef = (isRefCTC < motor->iMax) ? isRefCTC : motor->iMax;
 8000b00:	ed94 6a0a 	vldr	s12, [r4, #40]	@ 0x28
        float temp = motor->constants.fourTimesOneMinusXi * torqueRef * motor->constants.invTorqueBase;
 8000b04:	ee67 7aa8 	vmul.f32	s15, s15, s17
        isRefCTC = motor->constants.isc * (sqrtf(sinGammaRef * sinGammaRef + sin2GammaRef * temp) - sinGammaRef) / (sin2GammaRef * motor->constants.oneMinusXi);
 8000b08:	ee67 7a80 	vmul.f32	s15, s15, s0
 8000b0c:	eee8 7a08 	vfma.f32	s15, s16, s16
 8000b10:	eeb1 0ae7 	vsqrt.f32	s0, s15
 8000b14:	ee30 0a48 	vsub.f32	s0, s0, s16
 8000b18:	ee20 0a25 	vmul.f32	s0, s0, s11
 8000b1c:	ee80 8a26 	vdiv.f32	s16, s0, s13
    isRef = (isRefCTC < motor->iMax) ? isRefCTC : motor->iMax;
 8000b20:	fe88 8a46 	vminnm.f32	s16, s16, s12
    if (isRef == 0.0F || motor->Ld == motor->Lq) {
 8000b24:	eeb5 8a40 	vcmp.f32	s16, #0.0
 8000b28:	eef1 fa10 	vmrs	APSR_nzcv, fpscr
 8000b2c:	d084      	beq.n	8000a38 <calc_current_reference+0x70>
 8000b2e:	e7a9      	b.n	8000a84 <calc_current_reference+0xbc>
 8000b30:	54442d18 	.word	0x54442d18
 8000b34:	3ff921fb 	.word	0x3ff921fb
 8000b38:	20000030 	.word	0x20000030
 8000b3c:	2000002c 	.word	0x2000002c
 8000b40:	3fc90fdb 	.word	0x3fc90fdb

08000b44 <calc_current_loop>:
 *
 * @param inv Pointer to the inverter structure.
 */
void calc_current_loop(volatile InverterStruct *inv){

    inv->idLoop.pi_out_max = inv->vsMax;
 8000b44:	f8d0 3110 	ldr.w	r3, [r0, #272]	@ 0x110
void calc_current_loop(volatile InverterStruct *inv){
 8000b48:	b510      	push	{r4, lr}
 8000b4a:	4604      	mov	r4, r0

    // inv->idLoop.pi_ffw[0] = - (inv->feedback.iqMeas * inv->motor->Lq * inv->encoder.we); // Feedforward
    inv->idLoop.pi_consig = inv->reference.idRef;  	   // Setpoint
    inv->idLoop.pi_fdb = inv->feedback.idMeas;         // Feedback

    pi_calc(&(inv->idLoop));                            // Calculate id PI controller output
 8000b4c:	3088      	adds	r0, #136	@ 0x88
    inv->idLoop.pi_out_max = inv->vsMax;
 8000b4e:	f8c4 30b0 	str.w	r3, [r4, #176]	@ 0xb0
    inv->idLoop.pi_out_min = -(inv->vsMax);
 8000b52:	edd4 7a44 	vldr	s15, [r4, #272]	@ 0x110
 8000b56:	eef1 7a67 	vneg.f32	s15, s15
 8000b5a:	edc4 7a2d 	vstr	s15, [r4, #180]	@ 0xb4
    inv->idLoop.pi_consig = inv->reference.idRef;  	   // Setpoint
 8000b5e:	6e23      	ldr	r3, [r4, #96]	@ 0x60
 8000b60:	f8c4 30a8 	str.w	r3, [r4, #168]	@ 0xa8
    inv->idLoop.pi_fdb = inv->feedback.idMeas;         // Feedback
 8000b64:	6d23      	ldr	r3, [r4, #80]	@ 0x50
 8000b66:	f8c4 30ac 	str.w	r3, [r4, #172]	@ 0xac
    pi_calc(&(inv->idLoop));                            // Calculate id PI controller output
 8000b6a:	f005 fa33 	bl	8005fd4 <pi_calc>



    inv->iqLoop.pi_out_max = inv->vsMax;
 8000b6e:	f8d4 3110 	ldr.w	r3, [r4, #272]	@ 0x110

    // inv->iqLoop.pi_ffw[0] =  (inv->feedback.idMeas * inv->motor->Ld + inv->motor->lambda) * inv->encoder.we; // Feedforward
    inv->iqLoop.pi_consig = inv->reference.iqRef;  	   // Setpoint
    inv->iqLoop.pi_fdb = inv->feedback.iqMeas;         // Feedback

    pi_calc(&(inv->iqLoop));   // Calculate iq PI controller output
 8000b72:	f104 00cc 	add.w	r0, r4, #204	@ 0xcc
    inv->iqLoop.pi_out_max = inv->vsMax;
 8000b76:	f8c4 30f4 	str.w	r3, [r4, #244]	@ 0xf4
    inv->iqLoop.pi_out_min = -(inv->vsMax);
 8000b7a:	edd4 7a44 	vldr	s15, [r4, #272]	@ 0x110
 8000b7e:	eef1 7a67 	vneg.f32	s15, s15
 8000b82:	edc4 7a3e 	vstr	s15, [r4, #248]	@ 0xf8
    inv->iqLoop.pi_consig = inv->reference.iqRef;  	   // Setpoint
 8000b86:	6e63      	ldr	r3, [r4, #100]	@ 0x64
 8000b88:	f8c4 30ec 	str.w	r3, [r4, #236]	@ 0xec
    inv->iqLoop.pi_fdb = inv->feedback.iqMeas;         // Feedback
 8000b8c:	6d63      	ldr	r3, [r4, #84]	@ 0x54
 8000b8e:	f8c4 30f0 	str.w	r3, [r4, #240]	@ 0xf0


}
 8000b92:	e8bd 4010 	ldmia.w	sp!, {r4, lr}
    pi_calc(&(inv->iqLoop));   // Calculate iq PI controller output
 8000b96:	f005 ba1d 	b.w	8005fd4 <pi_calc>
 8000b9a:	bf00      	nop

08000b9c <saturate_voltage>:
 *
 * @param inv Pointer to the inverter structure.
 */
void saturate_voltage(volatile InverterStruct *inv){

	inv->vd = inv->idLoop.pi_out;
 8000b9c:	f8d0 30b8 	ldr.w	r3, [r0, #184]	@ 0xb8
 8000ba0:	f8c0 3114 	str.w	r3, [r0, #276]	@ 0x114
	inv->vq = inv->iqLoop.pi_out;
 8000ba4:	f8d0 30fc 	ldr.w	r3, [r0, #252]	@ 0xfc
 8000ba8:	f8c0 3118 	str.w	r3, [r0, #280]	@ 0x118

	float vsRef = sqrtf(inv->vd*inv->vd + inv->vq*inv->vq);
 8000bac:	ed90 6a45 	vldr	s12, [r0, #276]	@ 0x114
 8000bb0:	ed90 7a45 	vldr	s14, [r0, #276]	@ 0x114
 8000bb4:	edd0 7a46 	vldr	s15, [r0, #280]	@ 0x118
 8000bb8:	edd0 5a46 	vldr	s11, [r0, #280]	@ 0x118
	float invVsRef = 1.0F/vsRef;
	if (vsRef > inv->vsMax){
 8000bbc:	edd0 6a44 	vldr	s13, [r0, #272]	@ 0x110
	float vsRef = sqrtf(inv->vd*inv->vd + inv->vq*inv->vq);
 8000bc0:	ee67 7aa5 	vmul.f32	s15, s15, s11
 8000bc4:	eee6 7a07 	vfma.f32	s15, s12, s14
 8000bc8:	eeb1 7ae7 	vsqrt.f32	s14, s15
	if (vsRef > inv->vsMax){
 8000bcc:	eef4 6ac7 	vcmpe.f32	s13, s14
 8000bd0:	eef1 fa10 	vmrs	APSR_nzcv, fpscr
 8000bd4:	d517      	bpl.n	8000c06 <saturate_voltage+0x6a>
	float invVsRef = 1.0F/vsRef;
 8000bd6:	eef7 5a00 	vmov.f32	s11, #112	@ 0x3f800000  1.0
		inv->vq = inv->vq*inv->vsMax*invVsRef;
 8000bda:	edd0 7a46 	vldr	s15, [r0, #280]	@ 0x118
 8000bde:	ed90 6a44 	vldr	s12, [r0, #272]	@ 0x110
	float invVsRef = 1.0F/vsRef;
 8000be2:	eec5 6a87 	vdiv.f32	s13, s11, s14
		inv->vq = inv->vq*inv->vsMax*invVsRef;
 8000be6:	ee67 7a86 	vmul.f32	s15, s15, s12
 8000bea:	ee67 7aa6 	vmul.f32	s15, s15, s13
 8000bee:	edc0 7a46 	vstr	s15, [r0, #280]	@ 0x118
		inv->vd = inv->vd*inv->vsMax*invVsRef;
 8000bf2:	edd0 7a45 	vldr	s15, [r0, #276]	@ 0x114
 8000bf6:	ed90 7a44 	vldr	s14, [r0, #272]	@ 0x110
 8000bfa:	ee67 7a87 	vmul.f32	s15, s15, s14
 8000bfe:	ee67 7aa6 	vmul.f32	s15, s15, s13
 8000c02:	edc0 7a45 	vstr	s15, [r0, #276]	@ 0x114
	}

}
 8000c06:	4770      	bx	lr

08000c08 <calc_duties>:
 * @param[out] duties Pointer to the duties structure.
 */
void calc_duties(float vd, float vq, float vDC, float sinTheta_e, float cosTheta_e, volatile Duties *duties) {

  // inverse Park transform
  float alpha = (vd/vDC)*cosTheta_e - (vq/vDC)*sinTheta_e;              // Alpha(D) = d*cos(Fi) - q*sin(Fi)
 8000c08:	eec0 7a81 	vdiv.f32	s15, s1, s2
 8000c0c:	eec0 6a01 	vdiv.f32	s13, s0, s2
void calc_duties(float vd, float vq, float vDC, float sinTheta_e, float cosTheta_e, volatile Duties *duties) {
 8000c10:	b510      	push	{r4, lr}
 8000c12:	b086      	sub	sp, #24
 8000c14:	4604      	mov	r4, r0

  // Assign values to SVPWM structure, works with alpha/beta (not a/b/c)
  // alpha and beta are meant to be in the range +-(1/sqrt3)
  svpwm.alpha = alpha;
  svpwm.beta = beta;
  svpwm_calc(&svpwm);
 8000c16:	4668      	mov	r0, sp
  float alpha = (vd/vDC)*cosTheta_e - (vq/vDC)*sinTheta_e;              // Alpha(D) = d*cos(Fi) - q*sin(Fi)
 8000c18:	ee21 7ae7 	vnmul.f32	s14, s3, s15
  float beta = (vd/vDC)*sinTheta_e + (vq/vDC)*cosTheta_e;              // Beta(Q) = d*sin(Fi) + q*cos(Fi)
 8000c1c:	ee67 7a82 	vmul.f32	s15, s15, s4
  float alpha = (vd/vDC)*cosTheta_e - (vq/vDC)*sinTheta_e;              // Alpha(D) = d*cos(Fi) - q*sin(Fi)
 8000c20:	eea6 7a82 	vfma.f32	s14, s13, s4
  float beta = (vd/vDC)*sinTheta_e + (vq/vDC)*cosTheta_e;              // Beta(Q) = d*sin(Fi) + q*cos(Fi)
 8000c24:	eee6 7aa1 	vfma.f32	s15, s13, s3
  svpwm.alpha = alpha;
 8000c28:	ed8d 7a00 	vstr	s14, [sp]
  svpwm.beta = beta;
 8000c2c:	edcd 7a01 	vstr	s15, [sp, #4]
  svpwm_calc(&svpwm);
 8000c30:	f005 fa82 	bl	8006138 <svpwm_calc>

  // Assign SVPWM duties (0 to 1, high side)
  duties->Da = svpwm.Da;
 8000c34:	9902      	ldr	r1, [sp, #8]
  duties->Db = svpwm.Db;
 8000c36:	9a03      	ldr	r2, [sp, #12]
  duties->Dc = svpwm.Dc;
 8000c38:	9b04      	ldr	r3, [sp, #16]
  duties->Da = svpwm.Da;
 8000c3a:	6021      	str	r1, [r4, #0]
  duties->Db = svpwm.Db;
 8000c3c:	6062      	str	r2, [r4, #4]
  duties->Dc = svpwm.Dc;
 8000c3e:	60a3      	str	r3, [r4, #8]

}
 8000c40:	b006      	add	sp, #24
 8000c42:	bd10      	pop	{r4, pc}

08000c44 <eval_inv_FSM>:
 *
 * This function executes the finite state machine to control the inverter based on its current state.
 *
 * @param inv Pointer to the inverter structure.
 */
void eval_inv_FSM(volatile InverterStruct *inv) {
 8000c44:	b510      	push	{r4, lr}
    switch (inv->state) {
 8000c46:	7d03      	ldrb	r3, [r0, #20]
void eval_inv_FSM(volatile InverterStruct *inv) {
 8000c48:	4604      	mov	r4, r0
    switch (inv->state) {
 8000c4a:	2b03      	cmp	r3, #3
 8000c4c:	d83a      	bhi.n	8000cc4 <eval_inv_FSM+0x80>
 8000c4e:	e8df f003 	tbb	[pc, r3]
 8000c52:	2435      	.short	0x2435
 8000c54:	0213      	.short	0x0213
    // Perform actions required in fault state
    // This could involve shutting down the inverter, logging error messages, etc.
    // Transition conditions to other states:
    // - Retry startup sequence after a delay if fault condition is recoverable
    // - Transition to idle state after fault is resolved
    inv->led->mode = LED_MODE_BLINK_SLOW;
 8000c56:	6803      	ldr	r3, [r0, #0]
 8000c58:	2101      	movs	r1, #1
    DISABLE(inv->enable_port, inv->enable_pin);
 8000c5a:	2200      	movs	r2, #0
    inv->led->mode = LED_MODE_BLINK_SLOW;
 8000c5c:	7199      	strb	r1, [r3, #6]
    DISABLE(inv->enable_port, inv->enable_pin);
 8000c5e:	6860      	ldr	r0, [r4, #4]
 8000c60:	8921      	ldrh	r1, [r4, #8]
 8000c62:	b289      	uxth	r1, r1
 8000c64:	f002 ff8c 	bl	8003b80 <HAL_GPIO_WritePin>
    disable_PWM(inv->htim);
 8000c68:	68e0      	ldr	r0, [r4, #12]
 8000c6a:	f000 fb93 	bl	8001394 <disable_PWM>
    disable_control_loops(inv);
 8000c6e:	4620      	mov	r0, r4
}
 8000c70:	e8bd 4010 	ldmia.w	sp!, {r4, lr}
    disable_control_loops(inv);
 8000c74:	f000 b8c0 	b.w	8000df8 <disable_control_loops>
    inv->led->mode = LED_MODE_ON;
 8000c78:	6803      	ldr	r3, [r0, #0]
 8000c7a:	2102      	movs	r1, #2
    ENABLE(inv->enable_port, inv->enable_pin);
 8000c7c:	2201      	movs	r2, #1
    inv->led->mode = LED_MODE_ON;
 8000c7e:	7199      	strb	r1, [r3, #6]
    ENABLE(inv->enable_port, inv->enable_pin);
 8000c80:	6840      	ldr	r0, [r0, #4]
 8000c82:	8921      	ldrh	r1, [r4, #8]
 8000c84:	b289      	uxth	r1, r1
 8000c86:	f002 ff7b 	bl	8003b80 <HAL_GPIO_WritePin>
    enable_PWM(inv->htim);
 8000c8a:	68e0      	ldr	r0, [r4, #12]
 8000c8c:	f000 fb70 	bl	8001370 <enable_PWM>
    enable_control_loops(inv);
 8000c90:	4620      	mov	r0, r4
}
 8000c92:	e8bd 4010 	ldmia.w	sp!, {r4, lr}
    enable_control_loops(inv);
 8000c96:	f000 b8a7 	b.w	8000de8 <enable_control_loops>
    inv->led->mode = LED_MODE_OFF;
 8000c9a:	6803      	ldr	r3, [r0, #0]
 8000c9c:	2103      	movs	r1, #3
    DISABLE(inv->enable_port, inv->enable_pin);
 8000c9e:	2200      	movs	r2, #0
    inv->led->mode = LED_MODE_OFF;
 8000ca0:	7199      	strb	r1, [r3, #6]
    DISABLE(inv->enable_port, inv->enable_pin);
 8000ca2:	6840      	ldr	r0, [r0, #4]
 8000ca4:	8921      	ldrh	r1, [r4, #8]
 8000ca6:	b289      	uxth	r1, r1
 8000ca8:	f002 ff6a 	bl	8003b80 <HAL_GPIO_WritePin>
    enable_PWM(inv->htim);
 8000cac:	68e0      	ldr	r0, [r4, #12]
 8000cae:	f000 fb5f 	bl	8001370 <enable_PWM>
    disable_control_loops(inv);
 8000cb2:	4620      	mov	r0, r4
}
 8000cb4:	e8bd 4010 	ldmia.w	sp!, {r4, lr}
    disable_control_loops(inv);
 8000cb8:	f000 b89e 	b.w	8000df8 <disable_control_loops>
	inv->led->mode = LED_MODE_BLINK_FAST;
 8000cbc:	6803      	ldr	r3, [r0, #0]
 8000cbe:	2200      	movs	r2, #0
 8000cc0:	719a      	strb	r2, [r3, #6]
    DISABLE(inv->enable_port, inv->enable_pin);
 8000cc2:	e7cc      	b.n	8000c5e <eval_inv_FSM+0x1a>
}
 8000cc4:	bd10      	pop	{r4, pc}
 8000cc6:	bf00      	nop

08000cc8 <initialize_inverter>:
 * @param[in] enable_pin Pin number for enabling/disabling the inverter.
 * @param[in] htim Timer peripheral for the PWM output.
 * @param[in] hadc ADC peripheral for the current phase current and DC voltage sensing.
 * @param[in] motor MotorParameters struct.
 */
void initialize_inverter(volatile InverterStruct *inv, LED *led, GPIO_TypeDef *enable_port, uint16_t enable_pin, TIM_HandleTypeDef *htim, ADC_HandleTypeDef *hadc, MotorParameters *motor, volatile uint32_t *rawADC){
 8000cc8:	b570      	push	{r4, r5, r6, lr}
	// Initialize inverter structure
    inv->state = INV_STATE_STARTUP;
 8000cca:	f04f 0c01 	mov.w	ip, #1
void initialize_inverter(volatile InverterStruct *inv, LED *led, GPIO_TypeDef *enable_port, uint16_t enable_pin, TIM_HandleTypeDef *htim, ADC_HandleTypeDef *hadc, MotorParameters *motor, volatile uint32_t *rawADC){
 8000cce:	4604      	mov	r4, r0
    inv->led = led;
    inv->enable_pin = enable_pin;
    inv->enable_port = enable_port;
    inv->htim = htim;
    inv->hadc = hadc;
    inv->duties.Da = 0.5;
 8000cd0:	f04f 507c 	mov.w	r0, #1056964608	@ 0x3f000000
void initialize_inverter(volatile InverterStruct *inv, LED *led, GPIO_TypeDef *enable_port, uint16_t enable_pin, TIM_HandleTypeDef *htim, ADC_HandleTypeDef *hadc, MotorParameters *motor, volatile uint32_t *rawADC){
 8000cd4:	ed2d 8b04 	vpush	{d8-d9}
    inv->state = INV_STATE_STARTUP;
 8000cd8:	f884 c014 	strb.w	ip, [r4, #20]
    inv->led = led;
 8000cdc:	6021      	str	r1, [r4, #0]
    inv->enable_pin = enable_pin;
 8000cde:	8123      	strh	r3, [r4, #8]
    inv->htim = htim;
 8000ce0:	9b08      	ldr	r3, [sp, #32]
    inv->enable_port = enable_port;
 8000ce2:	6062      	str	r2, [r4, #4]
    inv->htim = htim;
 8000ce4:	60e3      	str	r3, [r4, #12]

    HAL_Delay(100);
    calibrate_offsets(rawADC_left, inv->analog.currentOffsets, 50000);


    if(check_motor_parameters(motor, TS)){
 8000ce6:	ed9f 8a3a 	vldr	s16, [pc, #232]	@ 8000dd0 <initialize_inverter+0x108>
void initialize_inverter(volatile InverterStruct *inv, LED *led, GPIO_TypeDef *enable_port, uint16_t enable_pin, TIM_HandleTypeDef *htim, ADC_HandleTypeDef *hadc, MotorParameters *motor, volatile uint32_t *rawADC){
 8000cea:	e9dd 6509 	ldrd	r6, r5, [sp, #36]	@ 0x24
    inv->hadc = hadc;
 8000cee:	6126      	str	r6, [r4, #16]
    inv->duties.Da = 0.5;
 8000cf0:	66e0      	str	r0, [r4, #108]	@ 0x6c
    inv->duties.Db = 0.5;
 8000cf2:	6720      	str	r0, [r4, #112]	@ 0x70
    inv->duties.Dc = 0.5;
 8000cf4:	6760      	str	r0, [r4, #116]	@ 0x74
    inv->motor = motor;
 8000cf6:	f8c4 5084 	str.w	r5, [r4, #132]	@ 0x84
    HAL_TIM_Base_Start_IT(inv->htim);
 8000cfa:	68e0      	ldr	r0, [r4, #12]
 8000cfc:	f003 fe44 	bl	8004988 <HAL_TIM_Base_Start_IT>
    HAL_ADC_Start_DMA(hadc, (uint32_t *) rawADC, 4);
 8000d00:	2204      	movs	r2, #4
 8000d02:	990b      	ldr	r1, [sp, #44]	@ 0x2c
 8000d04:	4630      	mov	r0, r6
 8000d06:	f001 fea9 	bl	8002a5c <HAL_ADC_Start_DMA>
    HAL_Delay(100);
 8000d0a:	2064      	movs	r0, #100	@ 0x64
 8000d0c:	f001 fde6 	bl	80028dc <HAL_Delay>
    calibrate_offsets(rawADC_left, inv->analog.currentOffsets, 50000);
 8000d10:	4830      	ldr	r0, [pc, #192]	@ (8000dd4 <initialize_inverter+0x10c>)
 8000d12:	f24c 3250 	movw	r2, #50000	@ 0xc350
 8000d16:	f104 0128 	add.w	r1, r4, #40	@ 0x28
 8000d1a:	f000 f8c5 	bl	8000ea8 <calibrate_offsets>
    if(check_motor_parameters(motor, TS)){
 8000d1e:	eeb0 0a48 	vmov.f32	s0, s16
 8000d22:	4628      	mov	r0, r5
 8000d24:	f000 f980 	bl	8001028 <check_motor_parameters>
 8000d28:	b920      	cbnz	r0, 8000d34 <initialize_inverter+0x6c>
        precalculate_motor_constants(motor);
    	init_control_loops(inv, motor);
        inv->state = INV_STATE_IDLE;

    } else{
        inv->state = INV_STATE_FAULT;
 8000d2a:	2303      	movs	r3, #3
 8000d2c:	7523      	strb	r3, [r4, #20]
    }
}
 8000d2e:	ecbd 8b04 	vpop	{d8-d9}
 8000d32:	bd70      	pop	{r4, r5, r6, pc}
        precalculate_motor_constants(motor);
 8000d34:	4628      	mov	r0, r5

    // Calculate natural frequency (omega_n)
    float omega_n = 3.0F / (xi * set_time); // set_time in seconds

    // Calculate proportional and integral gains for id controller
    inv->idLoop.Kp = 2.0F * xi * omega_n * motor->Ld - motor->Rs;
 8000d36:	ed9f 9a28 	vldr	s18, [pc, #160]	@ 8000dd8 <initialize_inverter+0x110>
        precalculate_motor_constants(motor);
 8000d3a:	f000 f8f1 	bl	8000f20 <precalculate_motor_constants>
    inv->idLoop.Kp = 2.0F * xi * omega_n * motor->Ld - motor->Rs;
 8000d3e:	edd5 7a00 	vldr	s15, [r5]
 8000d42:	ed95 7a02 	vldr	s14, [r5, #8]
    inv->idLoop.Ki = powf(omega_n, 2) * motor->Ld;
    pi_init(&(inv->idLoop)); // Initialize id PI controller (calculate K0, K1)
 8000d46:	f104 0088 	add.w	r0, r4, #136	@ 0x88
    inv->idLoop.Ki = powf(omega_n, 2) * motor->Ld;
 8000d4a:	eddf 8a24 	vldr	s17, [pc, #144]	@ 8000ddc <initialize_inverter+0x114>
    inv->idLoop.Kp = 2.0F * xi * omega_n * motor->Ld - motor->Rs;
 8000d4e:	ee97 7a89 	vfnms.f32	s14, s15, s18
    inv->idLoop.Ts = TS;
 8000d52:	ed84 8a23 	vstr	s16, [r4, #140]	@ 0x8c
    inv->idLoop.Ki = powf(omega_n, 2) * motor->Ld;
 8000d56:	ee67 7aa8 	vmul.f32	s15, s15, s17
    inv->iqLoop.Ts = TS;
 8000d5a:	ed84 8a34 	vstr	s16, [r4, #208]	@ 0xd0
    inv->idLoop.Kp = 2.0F * xi * omega_n * motor->Ld - motor->Rs;
 8000d5e:	ed84 7a24 	vstr	s14, [r4, #144]	@ 0x90
    inv->idLoop.Ki = powf(omega_n, 2) * motor->Ld;
 8000d62:	edc4 7a25 	vstr	s15, [r4, #148]	@ 0x94
    pi_init(&(inv->idLoop)); // Initialize id PI controller (calculate K0, K1)
 8000d66:	f005 f919 	bl	8005f9c <pi_init>

    // Calculate proportional and integral gains for iq controller
    inv->iqLoop.Kp = 2.0F * xi * omega_n * motor->Lq - motor->Rs;
 8000d6a:	ed95 7a01 	vldr	s14, [r5, #4]
 8000d6e:	edd5 7a02 	vldr	s15, [r5, #8]
    inv->iqLoop.Ki = powf(omega_n, 2) * motor->Lq;
    pi_init(&(inv->iqLoop)); // Initialize iq PI controller (calculate K0, K1)
 8000d72:	f104 00cc 	add.w	r0, r4, #204	@ 0xcc
    inv->iqLoop.Ki = powf(omega_n, 2) * motor->Lq;
 8000d76:	ee67 8a28 	vmul.f32	s17, s14, s17
    inv->iqLoop.Kp = 2.0F * xi * omega_n * motor->Lq - motor->Rs;
 8000d7a:	eed7 7a09 	vfnms.f32	s15, s14, s18
 8000d7e:	edc4 7a35 	vstr	s15, [r4, #212]	@ 0xd4
    inv->iqLoop.Ki = powf(omega_n, 2) * motor->Lq;
 8000d82:	edc4 8a36 	vstr	s17, [r4, #216]	@ 0xd8
    pi_init(&(inv->iqLoop)); // Initialize iq PI controller (calculate K0, K1)
 8000d86:	f005 f909 	bl	8005f9c <pi_init>

	float xi_speed = sqrtf(powf(logf(Mp_speed), 2) / (powf(PI, 2) + powf(logf(Mp_speed), 2))); // Mp is unitless
    // Calculate natural frequency (omega_n)
    float omega_n_speed = 3.0F / (xi_speed * set_time_speed); // set_time in seconds

    inv->speedLoop.Kp = 2.0F * xi_speed * omega_n_speed * motor->J - motor->b;
 8000d8a:	edd5 7a05 	vldr	s15, [r5, #20]
 8000d8e:	ed95 7a06 	vldr	s14, [r5, #24]
    inv->speedLoop.Ki = powf(omega_n_speed, 2) * motor->J;

    pi_init(&(inv->speedLoop)); // Initialize iq PI controller (calculate K0, K1)
 8000d92:	f504 708e 	add.w	r0, r4, #284	@ 0x11c
    inv->speedLoop.Kp = 2.0F * xi_speed * omega_n_speed * motor->J - motor->b;
 8000d96:	ed9f 6a12 	vldr	s12, [pc, #72]	@ 8000de0 <initialize_inverter+0x118>
    inv->speedLoop.Ki = powf(omega_n_speed, 2) * motor->J;
 8000d9a:	eddf 6a12 	vldr	s13, [pc, #72]	@ 8000de4 <initialize_inverter+0x11c>
    inv->speedLoop.Kp = 2.0F * xi_speed * omega_n_speed * motor->J - motor->b;
 8000d9e:	ee97 7a86 	vfnms.f32	s14, s15, s12
    inv->speedLoop.Ts = TS;
 8000da2:	ed84 8a48 	vstr	s16, [r4, #288]	@ 0x120
    inv->speedLoop.Ki = powf(omega_n_speed, 2) * motor->J;
 8000da6:	ee67 7aa6 	vmul.f32	s15, s15, s13
    inv->speedLoop.Kp = 2.0F * xi_speed * omega_n_speed * motor->J - motor->b;
 8000daa:	ed84 7a49 	vstr	s14, [r4, #292]	@ 0x124
    inv->speedLoop.Ki = powf(omega_n_speed, 2) * motor->J;
 8000dae:	edc4 7a4a 	vstr	s15, [r4, #296]	@ 0x128
    pi_init(&(inv->speedLoop)); // Initialize iq PI controller (calculate K0, K1)
 8000db2:	f005 f8f3 	bl	8005f9c <pi_init>

    inv->speedLoop.pi_out_max = motor->torqueMax;
 8000db6:	edd5 7a07 	vldr	s15, [r5, #28]
        inv->state = INV_STATE_IDLE;
 8000dba:	2300      	movs	r3, #0
    inv->speedLoop.pi_out_min = -(motor->torqueMax);
 8000dbc:	eeb1 7a67 	vneg.f32	s14, s15
    inv->speedLoop.pi_out_max = motor->torqueMax;
 8000dc0:	edc4 7a51 	vstr	s15, [r4, #324]	@ 0x144
    inv->speedLoop.pi_out_min = -(motor->torqueMax);
 8000dc4:	ed84 7a52 	vstr	s14, [r4, #328]	@ 0x148
        inv->state = INV_STATE_IDLE;
 8000dc8:	7523      	strb	r3, [r4, #20]
}
 8000dca:	ecbd 8b04 	vpop	{d8-d9}
 8000dce:	bd70      	pop	{r4, r5, r6, pc}
 8000dd0:	37d1b717 	.word	0x37d1b717
 8000dd4:	200004c8 	.word	0x200004c8
 8000dd8:	45bb8000 	.word	0x45bb8000
 8000ddc:	4b902da9 	.word	0x4b902da9
 8000de0:	40400001 	.word	0x40400001
 8000de4:	40972e97 	.word	0x40972e97

08000de8 <enable_control_loops>:
 * @brief Enables the PI controllers.
 *
 * @param inv Pointer to the inverter structure.
 */
void enable_control_loops(volatile InverterStruct *inv){
	inv->idLoop.enable = 1;
 8000de8:	2301      	movs	r3, #1
 8000dea:	f8a0 3088 	strh.w	r3, [r0, #136]	@ 0x88
	inv->iqLoop.enable = 1;
 8000dee:	f8a0 30cc 	strh.w	r3, [r0, #204]	@ 0xcc
	inv->speedLoop.enable = 1;
 8000df2:	f8a0 311c 	strh.w	r3, [r0, #284]	@ 0x11c

}
 8000df6:	4770      	bx	lr

08000df8 <disable_control_loops>:
 * @brief Disables the PI controllers.
 *
 * @param inv Pointer to the inverter structure.
 */
void disable_control_loops(volatile InverterStruct *inv){
	inv->idLoop.enable = 0;
 8000df8:	2300      	movs	r3, #0
 8000dfa:	f8a0 3088 	strh.w	r3, [r0, #136]	@ 0x88
	inv->iqLoop.enable = 0;
 8000dfe:	f8a0 30cc 	strh.w	r3, [r0, #204]	@ 0xcc
	inv->speedLoop.enable = 0;
 8000e02:	f8a0 311c 	strh.w	r3, [r0, #284]	@ 0x11c
}
 8000e06:	4770      	bx	lr

08000e08 <get_currents_voltage>:
  * @retval OK 0 if an error occurred, 1 if successful.
  */
uint8_t get_currents_voltage(volatile uint32_t ADC_raw[], volatile Analog* analog, volatile Feedback* feedback, float sinTheta_e, float cosTheta_e){

    // Calculate currents and voltage
    float ia = get_linear(ADC_raw[0], CURRENT_SLOPE, analog->currentOffsets[0]);
 8000e08:	ed90 4a00 	vldr	s8, [r0]
 8000e0c:	ed91 7a04 	vldr	s14, [r1, #16]
    float ib = get_linear(ADC_raw[1], CURRENT_SLOPE, analog->currentOffsets[1]);
 8000e10:	edd0 4a01 	vldr	s9, [r0, #4]
  * @param[in]  offset The offset (volts at zero).
  * @retval measurement The physical measurement.
  */
float get_linear(uint32_t bits, float slope, float offset) {
    // Convert ADC reading to voltage
    float voltage = (float) bits * 0.0008058608f; // Assuming 12-bit ADC and 3.3V reference (bits * (3.3 V / 4095.0 bits))
 8000e14:	eeb8 4a44 	vcvt.f32.u32	s8, s8
    float ib = get_linear(ADC_raw[1], CURRENT_SLOPE, analog->currentOffsets[1]);
 8000e18:	edd1 7a05 	vldr	s15, [r1, #20]
    float ic = get_linear(ADC_raw[2], CURRENT_SLOPE, analog->currentOffsets[2]);
 8000e1c:	ed90 5a02 	vldr	s10, [r0, #8]
    float voltage = (float) bits * 0.0008058608f; // Assuming 12-bit ADC and 3.3V reference (bits * (3.3 V / 4095.0 bits))
 8000e20:	eef8 4a64 	vcvt.f32.u32	s9, s9
    float ic = get_linear(ADC_raw[2], CURRENT_SLOPE, analog->currentOffsets[2]);
 8000e24:	edd1 6a06 	vldr	s13, [r1, #24]
    float voltage = (float) bits * 0.0008058608f; // Assuming 12-bit ADC and 3.3V reference (bits * (3.3 V / 4095.0 bits))
 8000e28:	eeb8 5a45 	vcvt.f32.u32	s10, s10

    // Convert voltage to physical measurement
    float measurement = (voltage - offset) * slope;
 8000e2c:	eddf 5a17 	vldr	s11, [pc, #92]	@ 8000e8c <get_currents_voltage+0x84>
 8000e30:	ed9f 6a17 	vldr	s12, [pc, #92]	@ 8000e90 <get_currents_voltage+0x88>
 8000e34:	ee94 7a25 	vfnms.f32	s14, s8, s11
    float vDC = get_linear(ADC_raw[3], VOLTAGE_SLOPE, VOLTAGE_OFFSET);
 8000e38:	68c0      	ldr	r0, [r0, #12]
    float measurement = (voltage - offset) * slope;
 8000e3a:	eed4 7aa5 	vfnms.f32	s15, s9, s11
 */
void get_idiq(float ia, float ib, float ic, float sinTheta_e, float cosTheta_e, float *idMeas, float *iqMeas) {

	// Compute alpha beta using Clarke transformation
    float alpha = ia;
    float beta = (ib - ic) * ISQ3;
 8000e3e:	eddf 3a15 	vldr	s7, [pc, #84]	@ 8000e94 <get_currents_voltage+0x8c>
    float measurement = (voltage - offset) * slope;
 8000e42:	eed5 6a25 	vfnms.f32	s13, s10, s11
    analog->vDC = 20.0F;
 8000e46:	4b14      	ldr	r3, [pc, #80]	@ (8000e98 <get_currents_voltage+0x90>)
}
 8000e48:	2001      	movs	r0, #1
    float measurement = (voltage - offset) * slope;
 8000e4a:	ee27 7a06 	vmul.f32	s14, s14, s12
 8000e4e:	ee67 7a86 	vmul.f32	s15, s15, s12
 8000e52:	ee66 6a86 	vmul.f32	s13, s13, s12
    analog->ia = ia;
 8000e56:	ed81 7a00 	vstr	s14, [r1]
    // float beta = (ia + 2.0F*ib) * ISQ3;

    // Park transformation
    *idMeas = alpha * cosTheta_e + beta * sinTheta_e;  // d = alpha * cos(theta_e) + beta * sin(theta_e)
    *iqMeas = beta * cosTheta_e - alpha * sinTheta_e;  // q = beta * cos(theta_e) - alpha * sin(theta_e)
 8000e5a:	ee27 6a40 	vnmul.f32	s12, s14, s0
    analog->ib = ib;
 8000e5e:	edc1 7a01 	vstr	s15, [r1, #4]
    float beta = (ib - ic) * ISQ3;
 8000e62:	ee77 7ae6 	vsub.f32	s15, s15, s13
    analog->ic = ic;
 8000e66:	edc1 6a02 	vstr	s13, [r1, #8]
    *iqMeas = beta * cosTheta_e - alpha * sinTheta_e;  // q = beta * cos(theta_e) - alpha * sin(theta_e)
 8000e6a:	eef0 6a46 	vmov.f32	s13, s12
    analog->vDC = 20.0F;
 8000e6e:	60cb      	str	r3, [r1, #12]
    float beta = (ib - ic) * ISQ3;
 8000e70:	ee67 7aa3 	vmul.f32	s15, s15, s7
    *idMeas = alpha * cosTheta_e + beta * sinTheta_e;  // d = alpha * cos(theta_e) + beta * sin(theta_e)
 8000e74:	ee27 0a80 	vmul.f32	s0, s15, s0
    *iqMeas = beta * cosTheta_e - alpha * sinTheta_e;  // q = beta * cos(theta_e) - alpha * sin(theta_e)
 8000e78:	eee7 6aa0 	vfma.f32	s13, s15, s1
    *idMeas = alpha * cosTheta_e + beta * sinTheta_e;  // d = alpha * cos(theta_e) + beta * sin(theta_e)
 8000e7c:	eea0 0a87 	vfma.f32	s0, s1, s14
    feedback->idMeas = idMeas;
 8000e80:	ed82 0a00 	vstr	s0, [r2]
    feedback->iqMeas = iqMeas;
 8000e84:	edc2 6a01 	vstr	s13, [r2, #4]
}
 8000e88:	4770      	bx	lr
 8000e8a:	bf00      	nop
 8000e8c:	3a534067 	.word	0x3a534067
 8000e90:	42eb2772 	.word	0x42eb2772
 8000e94:	3f13cd3a 	.word	0x3f13cd3a
 8000e98:	41a00000 	.word	0x41a00000

08000e9c <get_temperature>:
 * @param[in] bits ADC reading converted to bits.
 * @param[in] tempLUT Lookup table containing temperature values.
 * @return Temperature corresponding to the provided ADC bits.
 */
float get_temperature(uint32_t bits, const float tempLUT[]){
    return tempLUT[bits];
 8000e9c:	eb01 0180 	add.w	r1, r1, r0, lsl #2
}
 8000ea0:	ed91 0a00 	vldr	s0, [r1]
 8000ea4:	4770      	bx	lr
 8000ea6:	bf00      	nop

08000ea8 <calibrate_offsets>:
 *
 * @param[in] rawADC Buffer containing the raw ADC values for the channels.
 * @param[out] currentOffsets Array to store the calculated offsets for each current channel.
 * @param[in] numSamples Number of samples to average for the offset calculation.
 */
void calibrate_offsets(volatile uint32_t rawADC[], volatile float currentOffsets[], uint32_t numSamples) {
 8000ea8:	b5f0      	push	{r4, r5, r6, r7, lr}
    uint32_t sumADC[3] = {0}; // Summing ADC values for IA, IB, IC

    // Take multiple samples to calculate the average offset
    for (int i = 0; i < numSamples; ++i) {
 8000eaa:	b36a      	cbz	r2, 8000f08 <calibrate_offsets+0x60>
 8000eac:	2300      	movs	r3, #0
    uint32_t sumADC[3] = {0}; // Summing ADC values for IA, IB, IC
 8000eae:	461c      	mov	r4, r3
 8000eb0:	469e      	mov	lr, r3
 8000eb2:	469c      	mov	ip, r3
    for (int i = 0; i < numSamples; ++i) {
 8000eb4:	3301      	adds	r3, #1
        // ADC_raw is updated by the DMA, so no need to start the ADC conversion here

        // Accumulate the ADC readings
    	sumADC[0] += rawADC[0];
 8000eb6:	6807      	ldr	r7, [r0, #0]
    	sumADC[1] += rawADC[1];
 8000eb8:	6846      	ldr	r6, [r0, #4]
    for (int i = 0; i < numSamples; ++i) {
 8000eba:	4293      	cmp	r3, r2
    	sumADC[2] += rawADC[2];
 8000ebc:	6885      	ldr	r5, [r0, #8]
    	sumADC[0] += rawADC[0];
 8000ebe:	44be      	add	lr, r7
    	sumADC[1] += rawADC[1];
 8000ec0:	44b4      	add	ip, r6
    	sumADC[2] += rawADC[2];
 8000ec2:	442c      	add	r4, r5
    for (int i = 0; i < numSamples; ++i) {
 8000ec4:	d1f6      	bne.n	8000eb4 <calibrate_offsets+0xc>

    }

    // Calculate average offset
    currentOffsets[0] = (float)sumADC[0] / numSamples * 0.0008058608f; // Assuming 12-bit ADC
 8000ec6:	ee07 ea90 	vmov	s15, lr
    currentOffsets[1] = (float)sumADC[1] / numSamples * 0.0008058608f;
    currentOffsets[2] = (float)sumADC[2] / numSamples * 0.0008058608f;
 8000eca:	ee06 4a90 	vmov	s13, r4
    currentOffsets[0] = (float)sumADC[0] / numSamples * 0.0008058608f; // Assuming 12-bit ADC
 8000ece:	eeb8 7a67 	vcvt.f32.u32	s14, s15
    currentOffsets[1] = (float)sumADC[1] / numSamples * 0.0008058608f;
 8000ed2:	ee07 ca90 	vmov	s15, ip
    currentOffsets[2] = (float)sumADC[2] / numSamples * 0.0008058608f;
 8000ed6:	eef8 6a66 	vcvt.f32.u32	s13, s13
    currentOffsets[1] = (float)sumADC[1] / numSamples * 0.0008058608f;
 8000eda:	eef8 7a67 	vcvt.f32.u32	s15, s15
    currentOffsets[0] = (float)sumADC[0] / numSamples * 0.0008058608f; // Assuming 12-bit ADC
 8000ede:	ee06 2a10 	vmov	s12, r2
 8000ee2:	ed9f 5a0d 	vldr	s10, [pc, #52]	@ 8000f18 <calibrate_offsets+0x70>
 8000ee6:	eeb8 6ac6 	vcvt.f32.s32	s12, s12
 8000eea:	eec5 5a06 	vdiv.f32	s11, s10, s12
 8000eee:	ee25 7a87 	vmul.f32	s14, s11, s14
    currentOffsets[1] = (float)sumADC[1] / numSamples * 0.0008058608f;
 8000ef2:	ee65 7aa7 	vmul.f32	s15, s11, s15
    currentOffsets[2] = (float)sumADC[2] / numSamples * 0.0008058608f;
 8000ef6:	ee65 5aa6 	vmul.f32	s11, s11, s13
    currentOffsets[0] = (float)sumADC[0] / numSamples * 0.0008058608f; // Assuming 12-bit ADC
 8000efa:	ed81 7a00 	vstr	s14, [r1]
    currentOffsets[1] = (float)sumADC[1] / numSamples * 0.0008058608f;
 8000efe:	edc1 7a01 	vstr	s15, [r1, #4]
    currentOffsets[2] = (float)sumADC[2] / numSamples * 0.0008058608f;
 8000f02:	edc1 5a02 	vstr	s11, [r1, #8]
}
 8000f06:	bdf0      	pop	{r4, r5, r6, r7, pc}
    for (int i = 0; i < numSamples; ++i) {
 8000f08:	eddf 6a04 	vldr	s13, [pc, #16]	@ 8000f1c <calibrate_offsets+0x74>
 8000f0c:	eef0 7a66 	vmov.f32	s15, s13
 8000f10:	eeb0 7a66 	vmov.f32	s14, s13
 8000f14:	e7e3      	b.n	8000ede <calibrate_offsets+0x36>
 8000f16:	bf00      	nop
 8000f18:	3a534067 	.word	0x3a534067
 8000f1c:	00000000 	.word	0x00000000

08000f20 <precalculate_motor_constants>:
 * @brief Precomputes the constants for a motor and updates the MotorParameters structure
 * 
 * @param motor  [in, out] Pointer to the motor parameters structure
 */
void precalculate_motor_constants(MotorParameters * motor) {
    motor->constants.threePpLambda = 3.0F * motor->pp * motor->lambda;
 8000f20:	eef7 7a00 	vmov.f32	s15, #112	@ 0x3f800000  1.0
    motor->constants.threePpLdMinusLq = 3.0F * motor->pp * (motor->Ld - motor->Lq);
 8000f24:	ed90 4a00 	vldr	s8, [r0]
    motor->constants.threePpLambda = 3.0F * motor->pp * motor->lambda;
 8000f28:	ed90 6a03 	vldr	s12, [r0, #12]
 8000f2c:	eeb0 2a08 	vmov.f32	s4, #8	@ 0x40400000  3.0
 8000f30:	7c03      	ldrb	r3, [r0, #16]
    motor->constants.torqueBase = 3.0F * motor->pp * (motor->lambda * motor->lambda) / motor->Ld;
    motor->constants.invTorqueBase = 1.0F / motor->constants.torqueBase;
    motor->constants.xi = motor->Lq / motor->Ld;
    motor->constants.xiSquared = motor->constants.xi * motor->constants.xi;
    motor->constants.oneMinusXi = 1.0F - motor->constants.xi;
    motor->constants.twoMinusXi = 2.0F - motor->constants.xi;
 8000f32:	eeb0 5a00 	vmov.f32	s10, #0	@ 0x40000000  2.0
 8000f36:	eec7 2a84 	vdiv.f32	s5, s15, s8
    motor->constants.threePpLdMinusLq = 3.0F * motor->pp * (motor->Ld - motor->Lq);
 8000f3a:	ed90 7a01 	vldr	s14, [r0, #4]
    motor->constants.threePpLambda = 3.0F * motor->pp * motor->lambda;
 8000f3e:	ee05 3a90 	vmov	s11, r3
    motor->constants.invThreePpLambda = 1.0F / (3.0F * motor->pp * motor->lambda);
 8000f42:	eddf 0a37 	vldr	s1, [pc, #220]	@ 8001020 <precalculate_motor_constants+0x100>
    motor->constants.torqueBase = 3.0F * motor->pp * (motor->lambda * motor->lambda) / motor->Ld;
 8000f46:	ee66 6a06 	vmul.f32	s13, s12, s12
    motor->constants.threePpLambda = 3.0F * motor->pp * motor->lambda;
 8000f4a:	eef8 5ae5 	vcvt.f32.s32	s11, s11
    motor->constants.threePpLdMinusLq = 3.0F * motor->pp * (motor->Ld - motor->Lq);
 8000f4e:	ee74 4a47 	vsub.f32	s9, s8, s14
    motor->constants.torqueBase = 3.0F * motor->pp * (motor->lambda * motor->lambda) / motor->Ld;
 8000f52:	ee66 6a82 	vmul.f32	s13, s13, s4
    motor->constants.twoMinusXiSquared = motor->constants.twoMinusXi * motor->constants.twoMinusXi;
    motor->constants.twoTimesOneMinusXiOnePlusXiSquared = 2.0F * motor->constants.oneMinusXi * (1.0F + motor->constants.xiSquared);
    motor->constants.twoTimesOneMinusXiXiSquared = 2.0F * motor->constants.oneMinusXi * motor->constants.xiSquared;
    motor->constants.fourTimesOneMinusXiOnePlusXiSquared = 4.0F * motor->constants.oneMinusXi * (1.0F + motor->constants.xiSquared);
    motor->constants.fourTimesOneMinusXiXiSquared = 4.0F * motor->constants.oneMinusXi * motor->constants.xiSquared;
    motor->constants.lambdaDivLqMinusLd = motor->lambda / (motor->Lq - motor->Ld);
 8000f56:	ee37 4a44 	vsub.f32	s8, s14, s8
    motor->constants.threePpLambda = 3.0F * motor->pp * motor->lambda;
 8000f5a:	ee65 3a86 	vmul.f32	s7, s11, s12
    motor->constants.threePpLdMinusLq = 3.0F * motor->pp * (motor->Ld - motor->Lq);
 8000f5e:	ee64 4aa5 	vmul.f32	s9, s9, s11
    motor->constants.lambdaDivLqMinusLd = motor->lambda / (motor->Lq - motor->Ld);
 8000f62:	eec6 1a04 	vdiv.f32	s3, s12, s8
    motor->constants.torqueBase = 3.0F * motor->pp * (motor->lambda * motor->lambda) / motor->Ld;
 8000f66:	ee66 6aa2 	vmul.f32	s13, s13, s5
    motor->constants.xi = motor->Lq / motor->Ld;
 8000f6a:	ee27 7a22 	vmul.f32	s14, s14, s5
    motor->constants.threePpLdMinusLq = 3.0F * motor->pp * (motor->Ld - motor->Lq);
 8000f6e:	ee64 4a82 	vmul.f32	s9, s9, s4
    motor->constants.torqueBase = 3.0F * motor->pp * (motor->lambda * motor->lambda) / motor->Ld;
 8000f72:	ee66 6aa5 	vmul.f32	s13, s13, s11
    motor->constants.xiSquared = motor->constants.xi * motor->constants.xi;
 8000f76:	ee27 4a07 	vmul.f32	s8, s14, s14
    motor->constants.xi = motor->Lq / motor->Ld;
 8000f7a:	ed80 7a12 	vstr	s14, [r0, #72]	@ 0x48
    motor->constants.oneMinusXi = 1.0F - motor->constants.xi;
 8000f7e:	ee77 5ac7 	vsub.f32	s11, s15, s14
    motor->constants.threePpLdMinusLq = 3.0F * motor->pp * (motor->Ld - motor->Lq);
 8000f82:	edc0 4a0d 	vstr	s9, [r0, #52]	@ 0x34
    motor->constants.isc = motor->lambda / motor->Ld;
 8000f86:	ee26 6a22 	vmul.f32	s12, s12, s5
    motor->constants.torqueBase = 3.0F * motor->pp * (motor->lambda * motor->lambda) / motor->Ld;
 8000f8a:	edc0 6a10 	vstr	s13, [r0, #64]	@ 0x40
    motor->constants.fourTimesOneMinusXi = 4.0F * motor->constants.oneMinusXi;
 8000f8e:	eeb1 3a00 	vmov.f32	s6, #16	@ 0x40800000  4.0
    motor->constants.xiSquared = motor->constants.xi * motor->constants.xi;
 8000f92:	ed80 4a13 	vstr	s8, [r0, #76]	@ 0x4c
    motor->constants.twoMinusXi = 2.0F - motor->constants.xi;
 8000f96:	ee35 5a47 	vsub.f32	s10, s10, s14
    motor->constants.oneMinusXi = 1.0F - motor->constants.xi;
 8000f9a:	edc0 5a14 	vstr	s11, [r0, #80]	@ 0x50
    motor->constants.eightTimesOneMinusXiSquared = 8.0F * motor->constants.oneMinusXi * motor->constants.oneMinusXi;
 8000f9e:	eeb2 1a00 	vmov.f32	s2, #32	@ 0x41000000  8.0
    motor->constants.isc = motor->lambda / motor->Ld;
 8000fa2:	ed80 6a0f 	vstr	s12, [r0, #60]	@ 0x3c
    motor->constants.eightTimesOneMinusXiSquared = 8.0F * motor->constants.oneMinusXi * motor->constants.oneMinusXi;
 8000fa6:	ee65 4aa5 	vmul.f32	s9, s11, s11
    motor->constants.betaMinusIsc = motor->constants.lambdaDivLqMinusLd - motor->constants.isc;
 8000faa:	ee71 2ac6 	vsub.f32	s5, s3, s12
    motor->constants.twoMinusXi = 2.0F - motor->constants.xi;
 8000fae:	ed80 5a15 	vstr	s10, [r0, #84]	@ 0x54
    motor->constants.twoTimesOneMinusXiXiSquared = 2.0F * motor->constants.oneMinusXi * motor->constants.xiSquared;
 8000fb2:	ee25 6a84 	vmul.f32	s12, s11, s8
    motor->constants.lambdaDivLqMinusLd = motor->lambda / (motor->Lq - motor->Ld);
 8000fb6:	edc0 1a1d 	vstr	s3, [r0, #116]	@ 0x74
    motor->constants.fourTimesOneMinusXi = 4.0F * motor->constants.oneMinusXi;
 8000fba:	ee25 0a83 	vmul.f32	s0, s11, s6
    motor->constants.eightTimesOneMinusXiSquared = 8.0F * motor->constants.oneMinusXi * motor->constants.oneMinusXi;
 8000fbe:	ee64 4a81 	vmul.f32	s9, s9, s2
    motor->constants.betaMinusIsc = motor->constants.lambdaDivLqMinusLd - motor->constants.isc;
 8000fc2:	edc0 2a1e 	vstr	s5, [r0, #120]	@ 0x78
void precalculate_motor_constants(MotorParameters * motor) {
 8000fc6:	ed2d 8b02 	vpush	{d8}
    motor->constants.invThreePpLambda = 1.0F / (3.0F * motor->pp * motor->lambda);
 8000fca:	ee80 8aa3 	vdiv.f32	s16, s1, s7
    motor->constants.fourTimesOneMinusXi = 4.0F * motor->constants.oneMinusXi;
 8000fce:	ed80 0a16 	vstr	s0, [r0, #88]	@ 0x58
    motor->constants.eightTimesOneMinusXiSquared = 8.0F * motor->constants.oneMinusXi * motor->constants.oneMinusXi;
 8000fd2:	edc0 4a17 	vstr	s9, [r0, #92]	@ 0x5c
    motor->constants.threePpLambda = 3.0F * motor->pp * motor->lambda;
 8000fd6:	ee63 3a82 	vmul.f32	s7, s7, s4
    motor->constants.twoMinusXiSquared = motor->constants.twoMinusXi * motor->constants.twoMinusXi;
 8000fda:	ee65 0a05 	vmul.f32	s1, s10, s10
    motor->constants.twoTimesOneMinusXiXiSquared = 2.0F * motor->constants.oneMinusXi * motor->constants.xiSquared;
 8000fde:	ee36 2a06 	vadd.f32	s4, s12, s12
    motor->constants.threePpLambda = 3.0F * motor->pp * motor->lambda;
 8000fe2:	edc0 3a0c 	vstr	s7, [r0, #48]	@ 0x30
    motor->constants.invTorqueBase = 1.0F / motor->constants.torqueBase;
 8000fe6:	eec7 3aa6 	vdiv.f32	s7, s15, s13
    motor->constants.twoMinusXiSquared = motor->constants.twoMinusXi * motor->constants.twoMinusXi;
 8000fea:	edc0 0a18 	vstr	s1, [r0, #96]	@ 0x60
    motor->constants.twoTimesOneMinusXiXiSquared = 2.0F * motor->constants.oneMinusXi * motor->constants.xiSquared;
 8000fee:	ed80 2a1a 	vstr	s4, [r0, #104]	@ 0x68
    motor->constants.twoTimesOneMinusXiOnePlusXiSquared = 2.0F * motor->constants.oneMinusXi * (1.0F + motor->constants.xiSquared);
 8000ff2:	ee74 7a27 	vadd.f32	s15, s8, s15
    motor->constants.fourTimesOneMinusXiXiSquared = 4.0F * motor->constants.oneMinusXi * motor->constants.xiSquared;
 8000ff6:	ee26 6a03 	vmul.f32	s12, s12, s6
    motor->constants.twoTimesOneMinusXiOnePlusXiSquared = 2.0F * motor->constants.oneMinusXi * (1.0F + motor->constants.xiSquared);
 8000ffa:	ee67 7aa5 	vmul.f32	s15, s15, s11
    motor->constants.invThreePpLambda = 1.0F / (3.0F * motor->pp * motor->lambda);
 8000ffe:	ed80 8a0e 	vstr	s16, [r0, #56]	@ 0x38
    motor->constants.fourTimesOneMinusXiXiSquared = 4.0F * motor->constants.oneMinusXi * motor->constants.xiSquared;
 8001002:	ed80 6a1c 	vstr	s12, [r0, #112]	@ 0x70
    motor->constants.twoTimesOneMinusXiOnePlusXiSquared = 2.0F * motor->constants.oneMinusXi * (1.0F + motor->constants.xiSquared);
 8001006:	ee77 6aa7 	vadd.f32	s13, s15, s15
    motor->constants.fourTimesOneMinusXiOnePlusXiSquared = 4.0F * motor->constants.oneMinusXi * (1.0F + motor->constants.xiSquared);
 800100a:	ee67 7a83 	vmul.f32	s15, s15, s6
}
 800100e:	ecbd 8b02 	vpop	{d8}
    motor->constants.twoTimesOneMinusXiOnePlusXiSquared = 2.0F * motor->constants.oneMinusXi * (1.0F + motor->constants.xiSquared);
 8001012:	edc0 6a19 	vstr	s13, [r0, #100]	@ 0x64
    motor->constants.fourTimesOneMinusXiOnePlusXiSquared = 4.0F * motor->constants.oneMinusXi * (1.0F + motor->constants.xiSquared);
 8001016:	edc0 7a1b 	vstr	s15, [r0, #108]	@ 0x6c
    motor->constants.invTorqueBase = 1.0F / motor->constants.torqueBase;
 800101a:	edc0 3a11 	vstr	s7, [r0, #68]	@ 0x44
}
 800101e:	4770      	bx	lr
 8001020:	3eaaaaab 	.word	0x3eaaaaab
 8001024:	00000000 	.word	0x00000000

08001028 <check_motor_parameters>:
	int OK = 1;

	float Ld_over_Lq_tolerance = 1.1F;

    // Error 1 - Evaluate Rs
    if (motor->Rs < 0.002F || motor->Rs > 10.0F) {
 8001028:	eef2 7a04 	vmov.f32	s15, #36	@ 0x41200000  10.0
 800102c:	ed90 6a02 	vldr	s12, [r0, #8]
int check_motor_parameters(MotorParameters *motor, float Ts) {
 8001030:	4603      	mov	r3, r0
    if (motor->Rs < 0.002F || motor->Rs > 10.0F) {
 8001032:	eeb4 6ae7 	vcmpe.f32	s12, s15
 8001036:	eef1 fa10 	vmrs	APSR_nzcv, fpscr
 800103a:	dc07      	bgt.n	800104c <check_motor_parameters+0x24>
 800103c:	eddf 7a9a 	vldr	s15, [pc, #616]	@ 80012a8 <check_motor_parameters+0x280>
 8001040:	eeb4 6a67 	vcmp.f32	s12, s15
 8001044:	eef1 fa10 	vmrs	APSR_nzcv, fpscr
 8001048:	f140 80d0 	bpl.w	80011ec <check_motor_parameters+0x1c4>
        // Adjust Rs if out of bounds
        if (motor->Rs < 0.002F)
 800104c:	eddf 7a96 	vldr	s15, [pc, #600]	@ 80012a8 <check_motor_parameters+0x280>
 8001050:	eeb4 6ae7 	vcmpe.f32	s12, s15
 8001054:	eef1 fa10 	vmrs	APSR_nzcv, fpscr
 8001058:	f140 80fd 	bpl.w	8001256 <check_motor_parameters+0x22e>
        	motor->Rs = 0.002F, OK = 0;
 800105c:	eeb0 6a67 	vmov.f32	s12, s15
 8001060:	2000      	movs	r0, #0
 8001062:	edc3 7a02 	vstr	s15, [r3, #8]
        else if (motor->Rs > 10.0F)
        	motor->Rs = 10.0F, OK = 0;
    }

    // Error 2 - Evaluate Ld, Lq
    if (motor->Ld < 0.000001F || motor->Ld > 0.05F ||
 8001066:	edd3 6a00 	vldr	s13, [r3]
 800106a:	ed9f 7a90 	vldr	s14, [pc, #576]	@ 80012ac <check_motor_parameters+0x284>
        fabs(motor->Ld / motor->Rs) < Ts / 10.0F ||
 800106e:	eddf 5a90 	vldr	s11, [pc, #576]	@ 80012b0 <check_motor_parameters+0x288>
    if (motor->Ld < 0.000001F || motor->Ld > 0.05F ||
 8001072:	eef4 6ac7 	vcmpe.f32	s13, s14
		motor->Lq < 0.000001F || motor->Lq > 0.05F ||
 8001076:	edd3 7a01 	vldr	s15, [r3, #4]
        fabs(motor->Ld / motor->Rs) < Ts / 10.0F ||
 800107a:	ee20 0a25 	vmul.f32	s0, s0, s11
    if (motor->Ld < 0.000001F || motor->Ld > 0.05F ||
 800107e:	eef1 fa10 	vmrs	APSR_nzcv, fpscr
 8001082:	d407      	bmi.n	8001094 <check_motor_parameters+0x6c>
 8001084:	eddf 5a8b 	vldr	s11, [pc, #556]	@ 80012b4 <check_motor_parameters+0x28c>
 8001088:	eef4 6ae5 	vcmpe.f32	s13, s11
 800108c:	eef1 fa10 	vmrs	APSR_nzcv, fpscr
 8001090:	f340 80bd 	ble.w	800120e <check_motor_parameters+0x1e6>
        fabs(motor->Lq / motor->Rs) < Ts / 10.0F) {
        // Adjust parameters if out of bounds
        if (motor->Ld < 0.000001F)
 8001094:	ed9f 7a85 	vldr	s14, [pc, #532]	@ 80012ac <check_motor_parameters+0x284>
 8001098:	eef4 6ac7 	vcmpe.f32	s13, s14
 800109c:	eef1 fa10 	vmrs	APSR_nzcv, fpscr
 80010a0:	f140 80d6 	bpl.w	8001250 <check_motor_parameters+0x228>
        if (motor->Lq < 0.000001F)
        	motor->Lq = 0.000001F;
        else if (motor->Lq > 0.05F)
        	motor->Lq = 0.05F, OK = 0;

        if (fabs(motor->Lq / motor->Rs) < Ts / 10.0F)
 80010a4:	eec7 6a06 	vdiv.f32	s13, s14, s12
        	motor->Ld = 0.05F, OK = 0;
 80010a8:	ed83 7a00 	vstr	s14, [r3]
        if (fabs(motor->Lq / motor->Rs) < Ts / 10.0F)
 80010ac:	eef0 6ae6 	vabs.f32	s13, s13
        if (fabs(motor->Ld / motor->Rs) < Ts / 10.0F)
 80010b0:	eef4 6ac0 	vcmpe.f32	s13, s0
 80010b4:	eef1 fa10 	vmrs	APSR_nzcv, fpscr
 80010b8:	f100 80b2 	bmi.w	8001220 <check_motor_parameters+0x1f8>
 80010bc:	2000      	movs	r0, #0
 80010be:	edd3 6a00 	vldr	s13, [r3]
        if (motor->Lq < 0.000001F)
 80010c2:	ed9f 7a7a 	vldr	s14, [pc, #488]	@ 80012ac <check_motor_parameters+0x284>
 80010c6:	eef4 7ac7 	vcmpe.f32	s15, s14
 80010ca:	eef1 fa10 	vmrs	APSR_nzcv, fpscr
 80010ce:	f140 8090 	bpl.w	80011f2 <check_motor_parameters+0x1ca>
        	motor->Lq = 0.000001F;
 80010d2:	eef0 7a47 	vmov.f32	s15, s14
 80010d6:	ed83 7a01 	vstr	s14, [r3, #4]
        if (fabs(motor->Lq / motor->Rs) < Ts / 10.0F)
 80010da:	ee87 7a86 	vdiv.f32	s14, s15, s12
 80010de:	eeb0 7ac7 	vabs.f32	s14, s14
 80010e2:	eeb4 7ac0 	vcmpe.f32	s14, s0
 80010e6:	eef1 fa10 	vmrs	APSR_nzcv, fpscr
 80010ea:	d504      	bpl.n	80010f6 <check_motor_parameters+0xce>
        	motor->Lq = Ts / 10 * motor->Rs, OK = 0;
 80010ec:	ee66 7a00 	vmul.f32	s15, s12, s0
 80010f0:	2000      	movs	r0, #0
 80010f2:	edc3 7a01 	vstr	s15, [r3, #4]
    }

    // Error 3 - Evaluate Lq/Ld
    if (motor->Lq < motor->Ld) {
 80010f6:	eef4 7ae6 	vcmpe.f32	s15, s13
 80010fa:	eef1 fa10 	vmrs	APSR_nzcv, fpscr
 80010fe:	d50b      	bpl.n	8001118 <check_motor_parameters+0xf0>
        if (motor->Ld / motor->Lq > Ld_over_Lq_tolerance)
 8001100:	ee86 7aa7 	vdiv.f32	s14, s13, s15
 8001104:	eddf 7a6c 	vldr	s15, [pc, #432]	@ 80012b8 <check_motor_parameters+0x290>
 8001108:	eeb4 7ae7 	vcmpe.f32	s14, s15
 800110c:	eef1 fa10 	vmrs	APSR_nzcv, fpscr
 8001110:	dd02      	ble.n	8001118 <check_motor_parameters+0xf0>
        	motor->Lq = motor->Ld, OK = 0;
 8001112:	2000      	movs	r0, #0
 8001114:	edc3 6a01 	vstr	s13, [r3, #4]
    }

    // Error 4 - Evaluate lambda
    if (motor->lambda < 0.0001F || motor->lambda > 1.0F ||
    		motor->iMax < motor->lambda / motor->Ld - motor->vDCMax / sqrt(3) / motor->Ld / (motor->speedMax_RPM * (float)motor->pp * 2.0F * M_PI / 60.0F)) {
 8001118:	7c1a      	ldrb	r2, [r3, #16]
 800111a:	eeb7 3ae6 	vcvt.f64.f32	d3, s13
 800111e:	ed93 7a09 	vldr	s14, [r3, #36]	@ 0x24
 8001122:	ee07 2a90 	vmov	s15, r2
 8001126:	ed93 4a0b 	vldr	s8, [r3, #44]	@ 0x2c
 800112a:	ee37 7a07 	vadd.f32	s14, s14, s14
    if (motor->lambda < 0.0001F || motor->lambda > 1.0F ||
 800112e:	edd3 2a03 	vldr	s5, [r3, #12]
    		motor->iMax < motor->lambda / motor->Ld - motor->vDCMax / sqrt(3) / motor->Ld / (motor->speedMax_RPM * (float)motor->pp * 2.0F * M_PI / 60.0F)) {
 8001132:	eef8 7a67 	vcvt.f32.u32	s15, s15
    if (motor->lambda < 0.0001F || motor->lambda > 1.0F ||
 8001136:	ed9f 2a61 	vldr	s4, [pc, #388]	@ 80012bc <check_motor_parameters+0x294>
    		motor->iMax < motor->lambda / motor->Ld - motor->vDCMax / sqrt(3) / motor->Ld / (motor->speedMax_RPM * (float)motor->pp * 2.0F * M_PI / 60.0F)) {
 800113a:	eeb7 4ac4 	vcvt.f64.f32	d4, s8
 800113e:	ed93 5a0a 	vldr	s10, [r3, #40]	@ 0x28
    if (motor->lambda < 0.0001F || motor->lambda > 1.0F ||
 8001142:	eef4 2ac2 	vcmpe.f32	s5, s4
    		motor->iMax < motor->lambda / motor->Ld - motor->vDCMax / sqrt(3) / motor->Ld / (motor->speedMax_RPM * (float)motor->pp * 2.0F * M_PI / 60.0F)) {
 8001146:	ee27 7a27 	vmul.f32	s14, s14, s15
 800114a:	eeb7 5ac5 	vcvt.f64.f32	d5, s10
    if (motor->lambda < 0.0001F || motor->lambda > 1.0F ||
 800114e:	eef1 fa10 	vmrs	APSR_nzcv, fpscr
    		motor->iMax < motor->lambda / motor->Ld - motor->vDCMax / sqrt(3) / motor->Ld / (motor->speedMax_RPM * (float)motor->pp * 2.0F * M_PI / 60.0F)) {
 8001152:	eeb7 7ac7 	vcvt.f64.f32	d7, s14
 8001156:	ed9f 1b52 	vldr	d1, [pc, #328]	@ 80012a0 <check_motor_parameters+0x278>
 800115a:	ee27 7b03 	vmul.f64	d7, d7, d3
 800115e:	ee24 4b01 	vmul.f64	d4, d4, d1
 8001162:	ee84 3b07 	vdiv.f64	d3, d4, d7
    if (motor->lambda < 0.0001F || motor->lambda > 1.0F ||
 8001166:	d406      	bmi.n	8001176 <check_motor_parameters+0x14e>
 8001168:	eef7 7a00 	vmov.f32	s15, #112	@ 0x3f800000  1.0
 800116c:	eef4 2ae7 	vcmpe.f32	s5, s15
 8001170:	eef1 fa10 	vmrs	APSR_nzcv, fpscr
 8001174:	dd59      	ble.n	800122a <check_motor_parameters+0x202>
        // Adjust parameters if out of bounds
        if (motor->lambda < 0.0001F)
 8001176:	eddf 7a51 	vldr	s15, [pc, #324]	@ 80012bc <check_motor_parameters+0x294>
 800117a:	eef4 2ae7 	vcmpe.f32	s5, s15
 800117e:	eef1 fa10 	vmrs	APSR_nzcv, fpscr
 8001182:	d562      	bpl.n	800124a <check_motor_parameters+0x222>
        	motor->lambda = 0.0001F, OK = 0;
        else if (motor->lambda > 1.0F)
        	motor->lambda = 1.0F, OK = 0;

        if (motor->iMax < motor->lambda / motor->Ld - motor->vDCMax / sqrt(3) / motor->Ld / (motor->speedMax_RPM * (float)motor->pp * 2.0F * M_PI / 60.0F))
 8001184:	ee87 7aa6 	vdiv.f32	s14, s15, s13
 8001188:	eef0 6a67 	vmov.f32	s13, s15
        	motor->lambda = 1.0F, OK = 0;
 800118c:	edc3 6a03 	vstr	s13, [r3, #12]
        if (motor->iMax < motor->lambda / motor->Ld - motor->vDCMax / sqrt(3) / motor->Ld / (motor->speedMax_RPM * (float)motor->pp * 2.0F * M_PI / 60.0F))
 8001190:	eeb7 7ac7 	vcvt.f64.f32	d7, s14
 8001194:	ee37 7b43 	vsub.f64	d7, d7, d3
 8001198:	eeb4 7bc5 	vcmpe.f64	d7, d5
 800119c:	eef1 fa10 	vmrs	APSR_nzcv, fpscr
 80011a0:	dc4e      	bgt.n	8001240 <check_motor_parameters+0x218>
 80011a2:	2000      	movs	r0, #0
        	motor->iMax = motor->lambda / motor->Ld - motor->vDCMax / sqrt(3) / motor->Ld / (motor->speedMax_RPM * (float)motor->pp * 2.0F * M_PI / 60.0F), OK = 0;
    }

    // Error 5 - Evaluate J, b
    if (motor->J == 0 || motor->b == 0) {
 80011a4:	edd3 7a05 	vldr	s15, [r3, #20]
 80011a8:	eef5 7a40 	vcmp.f32	s15, #0.0
 80011ac:	eef1 fa10 	vmrs	APSR_nzcv, fpscr
 80011b0:	d011      	beq.n	80011d6 <check_motor_parameters+0x1ae>
 80011b2:	ed93 7a06 	vldr	s14, [r3, #24]
 80011b6:	eeb5 7a40 	vcmp.f32	s14, #0.0
 80011ba:	eef1 fa10 	vmrs	APSR_nzcv, fpscr
 80011be:	d00a      	beq.n	80011d6 <check_motor_parameters+0x1ae>
        // Cannot calculate J/b, no adjustments needed
    } else {
        if (motor->J / motor->b <= motor->Lq / motor->Rs) {
 80011c0:	edd3 5a01 	vldr	s11, [r3, #4]
 80011c4:	eec7 6a87 	vdiv.f32	s13, s15, s14
 80011c8:	eec5 7a86 	vdiv.f32	s15, s11, s12
 80011cc:	eef4 6ae7 	vcmpe.f32	s13, s15
 80011d0:	eef1 fa10 	vmrs	APSR_nzcv, fpscr
 80011d4:	d947      	bls.n	8001266 <check_motor_parameters+0x23e>
        }
    }

    // Error 6 - Evaluate pp

    if (motor->pp < 1 || motor->pp > 20) {
 80011d6:	1e51      	subs	r1, r2, #1
 80011d8:	2913      	cmp	r1, #19
 80011da:	d909      	bls.n	80011f0 <check_motor_parameters+0x1c8>
		// Adjust Rs if out of bounds
		if (motor->pp < 1)
 80011dc:	2a00      	cmp	r2, #0
			motor->pp = 1, OK = 0;
 80011de:	f04f 0000 	mov.w	r0, #0
		if (motor->pp < 1)
 80011e2:	bf14      	ite	ne
 80011e4:	2214      	movne	r2, #20
 80011e6:	2201      	moveq	r2, #1
		else if (motor->pp > 20)
			motor->pp = 20, OK = 0;
 80011e8:	741a      	strb	r2, [r3, #16]
    }
    return OK;
 80011ea:	4770      	bx	lr
	int OK = 1;
 80011ec:	2001      	movs	r0, #1
 80011ee:	e73a      	b.n	8001066 <check_motor_parameters+0x3e>
}
 80011f0:	4770      	bx	lr
        else if (motor->Lq > 0.05F)
 80011f2:	ed9f 7a30 	vldr	s14, [pc, #192]	@ 80012b4 <check_motor_parameters+0x28c>
 80011f6:	eef4 7ac7 	vcmpe.f32	s15, s14
 80011fa:	eef1 fa10 	vmrs	APSR_nzcv, fpscr
 80011fe:	f77f af6c 	ble.w	80010da <check_motor_parameters+0xb2>
        	motor->Lq = 0.05F, OK = 0;
 8001202:	eef0 7a47 	vmov.f32	s15, s14
 8001206:	2000      	movs	r0, #0
 8001208:	ed83 7a01 	vstr	s14, [r3, #4]
 800120c:	e765      	b.n	80010da <check_motor_parameters+0xb2>
        fabs(motor->Ld / motor->Rs) < Ts / 10.0F ||
 800120e:	ee86 5a86 	vdiv.f32	s10, s13, s12
 8001212:	eeb0 5ac5 	vabs.f32	s10, s10
    if (motor->Ld < 0.000001F || motor->Ld > 0.05F ||
 8001216:	eeb4 5ac0 	vcmpe.f32	s10, s0
 800121a:	eef1 fa10 	vmrs	APSR_nzcv, fpscr
 800121e:	d527      	bpl.n	8001270 <check_motor_parameters+0x248>
        	motor->Ld = Ts / 10 * motor->Rs, OK = 0;
 8001220:	ee26 7a00 	vmul.f32	s14, s12, s0
 8001224:	ed83 7a00 	vstr	s14, [r3]
 8001228:	e748      	b.n	80010bc <check_motor_parameters+0x94>
    		motor->iMax < motor->lambda / motor->Ld - motor->vDCMax / sqrt(3) / motor->Ld / (motor->speedMax_RPM * (float)motor->pp * 2.0F * M_PI / 60.0F)) {
 800122a:	ee82 7aa6 	vdiv.f32	s14, s5, s13
 800122e:	eeb7 7ac7 	vcvt.f64.f32	d7, s14
 8001232:	ee37 7b43 	vsub.f64	d7, d7, d3
    if (motor->lambda < 0.0001F || motor->lambda > 1.0F ||
 8001236:	eeb4 7bc5 	vcmpe.f64	d7, d5
 800123a:	eef1 fa10 	vmrs	APSR_nzcv, fpscr
 800123e:	ddb1      	ble.n	80011a4 <check_motor_parameters+0x17c>
        	motor->iMax = motor->lambda / motor->Ld - motor->vDCMax / sqrt(3) / motor->Ld / (motor->speedMax_RPM * (float)motor->pp * 2.0F * M_PI / 60.0F), OK = 0;
 8001240:	eeb7 7bc7 	vcvt.f32.f64	s14, d7
 8001244:	ed83 7a0a 	vstr	s14, [r3, #40]	@ 0x28
 8001248:	e7ab      	b.n	80011a2 <check_motor_parameters+0x17a>
        if (motor->iMax < motor->lambda / motor->Ld - motor->vDCMax / sqrt(3) / motor->Ld / (motor->speedMax_RPM * (float)motor->pp * 2.0F * M_PI / 60.0F))
 800124a:	eef7 7a00 	vmov.f32	s15, #112	@ 0x3f800000  1.0
 800124e:	e799      	b.n	8001184 <check_motor_parameters+0x15c>
        if (fabs(motor->Lq / motor->Rs) < Ts / 10.0F)
 8001250:	ed9f 7a18 	vldr	s14, [pc, #96]	@ 80012b4 <check_motor_parameters+0x28c>
 8001254:	e726      	b.n	80010a4 <check_motor_parameters+0x7c>
        	motor->Rs = 10.0F, OK = 0;
 8001256:	eef2 7a04 	vmov.f32	s15, #36	@ 0x41200000  10.0
        	motor->Rs = 0.002F, OK = 0;
 800125a:	2000      	movs	r0, #0
        	motor->Rs = 10.0F, OK = 0;
 800125c:	eeb0 6a67 	vmov.f32	s12, s15
 8001260:	edc3 7a02 	vstr	s15, [r3, #8]
 8001264:	e6ff      	b.n	8001066 <check_motor_parameters+0x3e>
            	motor->J = 1;
 8001266:	f04f 517e 	mov.w	r1, #1065353216	@ 0x3f800000
 800126a:	6159      	str	r1, [r3, #20]
            	motor->b = 1;
 800126c:	6199      	str	r1, [r3, #24]
 800126e:	e7b2      	b.n	80011d6 <check_motor_parameters+0x1ae>
		motor->Lq < 0.000001F || motor->Lq > 0.05F ||
 8001270:	eef4 7ac7 	vcmpe.f32	s15, s14
 8001274:	eef1 fa10 	vmrs	APSR_nzcv, fpscr
 8001278:	f53f af23 	bmi.w	80010c2 <check_motor_parameters+0x9a>
 800127c:	eef4 7ae5 	vcmpe.f32	s15, s11
 8001280:	eef1 fa10 	vmrs	APSR_nzcv, fpscr
 8001284:	f73f af1d 	bgt.w	80010c2 <check_motor_parameters+0x9a>
        fabs(motor->Lq / motor->Rs) < Ts / 10.0F) {
 8001288:	ee87 7a86 	vdiv.f32	s14, s15, s12
 800128c:	eeb0 7ac7 	vabs.f32	s14, s14
		motor->Lq < 0.000001F || motor->Lq > 0.05F ||
 8001290:	eeb4 7ac0 	vcmpe.f32	s14, s0
 8001294:	eef1 fa10 	vmrs	APSR_nzcv, fpscr
 8001298:	f53f af13 	bmi.w	80010c2 <check_motor_parameters+0x9a>
 800129c:	e72b      	b.n	80010f6 <check_motor_parameters+0xce>
 800129e:	bf00      	nop
 80012a0:	9e9f0e5a 	.word	0x9e9f0e5a
 80012a4:	40260d9b 	.word	0x40260d9b
 80012a8:	3b03126f 	.word	0x3b03126f
 80012ac:	358637bd 	.word	0x358637bd
 80012b0:	3dcccccd 	.word	0x3dcccccd
 80012b4:	3d4ccccd 	.word	0x3d4ccccd
 80012b8:	3f8ccccd 	.word	0x3f8ccccd
 80012bc:	38d1b717 	.word	0x38d1b717

080012c0 <handle_LED>:
 * This function handles the LED blinking modes based on the LED mode and current millisecond counter.
 *
 * @param led Pointer to the LED structure.
 * @param ms_counter Current millisecond counter.
 */
void handle_LED(LED *led, uint32_t ms_counter) {
 80012c0:	b500      	push	{lr}
    switch (led->mode) {
 80012c2:	7982      	ldrb	r2, [r0, #6]
void handle_LED(LED *led, uint32_t ms_counter) {
 80012c4:	4603      	mov	r3, r0
    switch (led->mode) {
 80012c6:	2a03      	cmp	r2, #3
 80012c8:	d838      	bhi.n	800133c <handle_LED+0x7c>
 80012ca:	e8df f002 	tbb	[pc, r2]
 80012ce:	1024      	.short	0x1024
 80012d0:	0209      	.short	0x0209
            break;
        case LED_MODE_ON:
            HAL_GPIO_WritePin(led->port, led->pin, GPIO_PIN_SET);
            break;
        case LED_MODE_OFF:
            HAL_GPIO_WritePin(led->port, led->pin, GPIO_PIN_RESET);
 80012d2:	2200      	movs	r2, #0
 80012d4:	8899      	ldrh	r1, [r3, #4]
 80012d6:	6818      	ldr	r0, [r3, #0]
            break;
        default:
            // Invalid LED mode
            break;
    }
}
 80012d8:	f85d eb04 	ldr.w	lr, [sp], #4
            HAL_GPIO_WritePin(led->port, led->pin, GPIO_PIN_RESET);
 80012dc:	f002 bc50 	b.w	8003b80 <HAL_GPIO_WritePin>
            HAL_GPIO_WritePin(led->port, led->pin, GPIO_PIN_SET);
 80012e0:	2201      	movs	r2, #1
 80012e2:	8899      	ldrh	r1, [r3, #4]
 80012e4:	6818      	ldr	r0, [r3, #0]
}
 80012e6:	f85d eb04 	ldr.w	lr, [sp], #4
            HAL_GPIO_WritePin(led->port, led->pin, GPIO_PIN_SET);
 80012ea:	f002 bc49 	b.w	8003b80 <HAL_GPIO_WritePin>
            if (ms_counter % 1000 < 500) {
 80012ee:	4a14      	ldr	r2, [pc, #80]	@ (8001340 <handle_LED+0x80>)
 80012f0:	f44f 7e7a 	mov.w	lr, #1000	@ 0x3e8
                HAL_GPIO_WritePin(led->port, led->pin, GPIO_PIN_SET);
 80012f4:	6818      	ldr	r0, [r3, #0]
 80012f6:	f8b3 c004 	ldrh.w	ip, [r3, #4]
            if (ms_counter % 1000 < 500) {
 80012fa:	fba2 2301 	umull	r2, r3, r2, r1
 80012fe:	099b      	lsrs	r3, r3, #6
 8001300:	fb0e 1313 	mls	r3, lr, r3, r1
 8001304:	f5b3 7ffa 	cmp.w	r3, #500	@ 0x1f4
 8001308:	d212      	bcs.n	8001330 <handle_LED+0x70>
                HAL_GPIO_WritePin(led->port, led->pin, GPIO_PIN_SET);
 800130a:	2201      	movs	r2, #1
 800130c:	4661      	mov	r1, ip
}
 800130e:	f85d eb04 	ldr.w	lr, [sp], #4
                HAL_GPIO_WritePin(led->port, led->pin, GPIO_PIN_SET);
 8001312:	f002 bc35 	b.w	8003b80 <HAL_GPIO_WritePin>
            if (ms_counter % 200 < 100) {
 8001316:	4a0b      	ldr	r2, [pc, #44]	@ (8001344 <handle_LED+0x84>)
 8001318:	f04f 0ec8 	mov.w	lr, #200	@ 0xc8
                HAL_GPIO_WritePin(led->port, led->pin, GPIO_PIN_SET);
 800131c:	6818      	ldr	r0, [r3, #0]
 800131e:	f8b3 c004 	ldrh.w	ip, [r3, #4]
            if (ms_counter % 200 < 100) {
 8001322:	fba2 2301 	umull	r2, r3, r2, r1
 8001326:	099b      	lsrs	r3, r3, #6
 8001328:	fb0e 1313 	mls	r3, lr, r3, r1
 800132c:	2b63      	cmp	r3, #99	@ 0x63
 800132e:	d9ec      	bls.n	800130a <handle_LED+0x4a>
                HAL_GPIO_WritePin(led->port, led->pin, GPIO_PIN_RESET);
 8001330:	2200      	movs	r2, #0
 8001332:	4661      	mov	r1, ip
}
 8001334:	f85d eb04 	ldr.w	lr, [sp], #4
                HAL_GPIO_WritePin(led->port, led->pin, GPIO_PIN_RESET);
 8001338:	f002 bc22 	b.w	8003b80 <HAL_GPIO_WritePin>
}
 800133c:	f85d fb04 	ldr.w	pc, [sp], #4
 8001340:	10624dd3 	.word	0x10624dd3
 8001344:	51eb851f 	.word	0x51eb851f

08001348 <handle_direction>:
 * and vice versa.
 *
 * @param dir_left Pointer to the direction parameter in the left inverter structure.
 * @param dir_right Pointer to the direction parameter in the right inverter structure.
 */
void handle_direction(volatile int8_t *dir_left, volatile int8_t *dir_right){
 8001348:	b538      	push	{r3, r4, r5, lr}
 800134a:	4605      	mov	r5, r0
 800134c:	460c      	mov	r4, r1
	// Read the state of the DIR switch
    GPIO_PinState dirState = HAL_GPIO_ReadPin(DIR_GPIO_Port, DIR_Pin);
 800134e:	4807      	ldr	r0, [pc, #28]	@ (800136c <handle_direction+0x24>)
 8001350:	2108      	movs	r1, #8
 8001352:	f002 fc0f 	bl	8003b74 <HAL_GPIO_ReadPin>

    // Update the directions of the inverters based on the DIR switch state
    if (dirState == GPIO_PIN_SET) {
 8001356:	2801      	cmp	r0, #1
 8001358:	d004      	beq.n	8001364 <handle_direction+0x1c>
    	*dir_left = 1;  // CW
    	*dir_right = -1;  // CCW
    } else {
    	*dir_left = -1;  // CCW
 800135a:	22ff      	movs	r2, #255	@ 0xff
    	*dir_right = 1;  // CW
 800135c:	2301      	movs	r3, #1
    	*dir_left = -1;  // CCW
 800135e:	702a      	strb	r2, [r5, #0]
    	*dir_right = 1;  // CW
 8001360:	7023      	strb	r3, [r4, #0]
    }
}
 8001362:	bd38      	pop	{r3, r4, r5, pc}
    	*dir_right = -1;  // CCW
 8001364:	23ff      	movs	r3, #255	@ 0xff
    	*dir_left = 1;  // CW
 8001366:	7028      	strb	r0, [r5, #0]
    	*dir_right = -1;  // CCW
 8001368:	7023      	strb	r3, [r4, #0]
}
 800136a:	bd38      	pop	{r3, r4, r5, pc}
 800136c:	40020c00 	.word	0x40020c00

08001370 <enable_PWM>:
 */
void enable_PWM(TIM_HandleTypeDef *htim) {

//	Reset the counter
//	htim->Instance->CNT=0;
	htim->Instance->CCMR1 = 0x6868; // Set Channel 1 and Channel 2 Output Compare mode to PWM Mode
 8001370:	6803      	ldr	r3, [r0, #0]
 8001372:	f646 0168 	movw	r1, #26728	@ 0x6868

//	htim1.Instance->CCER = 0x888;
	htim->Instance->CCER = 0x10555;
 8001376:	4a06      	ldr	r2, [pc, #24]	@ (8001390 <enable_PWM+0x20>)
	htim->Instance->CCMR1 = 0x6868; // Set Channel 1 and Channel 2 Output Compare mode to PWM Mode
 8001378:	6199      	str	r1, [r3, #24]
	htim->Instance->CCER = 0x10555;
 800137a:	621a      	str	r2, [r3, #32]

//	Enable Main Output
	htim->Instance->BDTR |=(1<<15);
 800137c:	6c5a      	ldr	r2, [r3, #68]	@ 0x44
 800137e:	f442 4200 	orr.w	r2, r2, #32768	@ 0x8000
 8001382:	645a      	str	r2, [r3, #68]	@ 0x44

//	Enable Counter
	htim->Instance->CR1 |=1;
 8001384:	681a      	ldr	r2, [r3, #0]
 8001386:	f042 0201 	orr.w	r2, r2, #1
 800138a:	601a      	str	r2, [r3, #0]

}
 800138c:	4770      	bx	lr
 800138e:	bf00      	nop
 8001390:	00010555 	.word	0x00010555

08001394 <disable_PWM>:
 * @param htim Pointer to the TIM_HandleTypeDef structure.
 */
void disable_PWM(TIM_HandleTypeDef *htim) {

	//Disable outputs and select the polarity of each output
	htim->Instance->CNT=0;
 8001394:	6803      	ldr	r3, [r0, #0]


	htim->Instance->CCER = 0xCCC;
 8001396:	f640 42cc 	movw	r2, #3276	@ 0xccc
	htim->Instance->CNT=0;
 800139a:	2100      	movs	r1, #0
 800139c:	6259      	str	r1, [r3, #36]	@ 0x24
	htim->Instance->CCER = 0xCCC;
 800139e:	621a      	str	r2, [r3, #32]
	//	htim1.Instance->CCER |= 0x555;

		//Disable Main Output
	htim->Instance->BDTR &= 0xFFFF7FFF;
 80013a0:	6c5a      	ldr	r2, [r3, #68]	@ 0x44
 80013a2:	f422 4200 	bic.w	r2, r2, #32768	@ 0x8000
 80013a6:	645a      	str	r2, [r3, #68]	@ 0x44
	//	htim1.Instance->BDTR &=(0<<15);
}
 80013a8:	4770      	bx	lr
 80013aa:	bf00      	nop

080013ac <update_PWM>:
 * @param duties Duties structure containing duty cycle values.
 */
void update_PWM(TIM_HandleTypeDef *htim, Duties duties) {


	htim->Instance->CCR1 = ((int32_t)(htim->Instance->ARR) * (1.0F-duties.Da));
 80013ac:	6803      	ldr	r3, [r0, #0]
 80013ae:	eef7 7a00 	vmov.f32	s15, #112	@ 0x3f800000  1.0
void update_PWM(TIM_HandleTypeDef *htim, Duties duties) {
 80013b2:	b084      	sub	sp, #16
	htim->Instance->CCR1 = ((int32_t)(htim->Instance->ARR) * (1.0F-duties.Da));
 80013b4:	ed93 6a0b 	vldr	s12, [r3, #44]	@ 0x2c
 80013b8:	ee77 6ac0 	vsub.f32	s13, s15, s0
void update_PWM(TIM_HandleTypeDef *htim, Duties duties) {
 80013bc:	ed8d 0a01 	vstr	s0, [sp, #4]
	htim->Instance->CCR1 = ((int32_t)(htim->Instance->ARR) * (1.0F-duties.Da));
 80013c0:	eeb8 6ac6 	vcvt.f32.s32	s12, s12
void update_PWM(TIM_HandleTypeDef *htim, Duties duties) {
 80013c4:	edcd 0a02 	vstr	s1, [sp, #8]
	htim->Instance->CCR2 = ((int32_t)(htim->Instance->ARR) * (1.0F-duties.Db));
 80013c8:	ee37 7ae0 	vsub.f32	s14, s15, s1
void update_PWM(TIM_HandleTypeDef *htim, Duties duties) {
 80013cc:	ed8d 1a03 	vstr	s2, [sp, #12]
	htim->Instance->CCR3 = ((int32_t)(htim->Instance->ARR) * (1.0F-duties.Dc));
 80013d0:	ee77 7ac1 	vsub.f32	s15, s15, s2
	htim->Instance->CCR1 = ((int32_t)(htim->Instance->ARR) * (1.0F-duties.Da));
 80013d4:	ee66 6a86 	vmul.f32	s13, s13, s12
 80013d8:	eefc 6ae6 	vcvt.u32.f32	s13, s13
 80013dc:	edc3 6a0d 	vstr	s13, [r3, #52]	@ 0x34
	htim->Instance->CCR2 = ((int32_t)(htim->Instance->ARR) * (1.0F-duties.Db));
 80013e0:	edd3 6a0b 	vldr	s13, [r3, #44]	@ 0x2c
 80013e4:	eef8 6ae6 	vcvt.f32.s32	s13, s13
 80013e8:	ee27 7a26 	vmul.f32	s14, s14, s13
 80013ec:	eebc 7ac7 	vcvt.u32.f32	s14, s14
 80013f0:	ed83 7a0e 	vstr	s14, [r3, #56]	@ 0x38
	htim->Instance->CCR3 = ((int32_t)(htim->Instance->ARR) * (1.0F-duties.Dc));
 80013f4:	ed93 7a0b 	vldr	s14, [r3, #44]	@ 0x2c
 80013f8:	eeb8 7ac7 	vcvt.f32.s32	s14, s14
 80013fc:	ee67 7a87 	vmul.f32	s15, s15, s14
 8001400:	eefc 7ae7 	vcvt.u32.f32	s15, s15
 8001404:	edc3 7a0f 	vstr	s15, [r3, #60]	@ 0x3c

}
 8001408:	b004      	add	sp, #16
 800140a:	4770      	bx	lr

0800140c <handle_torqueRef>:
 * @param speedMeas       Measured speed.
 * @param loopSpeed       Speed control loop parameters.
 *
 * @return The output torque after handling direction, saturation, and rate limiting.
 */
float handle_torqueRef(float torqueRefIn, int8_t direction, float torqueMax, float speedMaxRPM, float speedMeas, volatile pi_struct *loopSpeed){
 800140c:	ee07 0a90 	vmov	s15, r0

	// Handles direction (by multiplying it to the input) and saturation (the function per se)
	float torqueRefSat = saturate_symmetric(torqueRefIn*direction, torqueMax);
 8001410:	eef8 7ae7 	vcvt.f32.s32	s15, s15
float handle_torqueRef(float torqueRefIn, int8_t direction, float torqueMax, float speedMaxRPM, float speedMeas, volatile pi_struct *loopSpeed){
 8001414:	b510      	push	{r4, lr}
	float torqueRefSat = saturate_symmetric(torqueRefIn*direction, torqueMax);
 8001416:	ee27 0a80 	vmul.f32	s0, s15, s0
float handle_torqueRef(float torqueRefIn, int8_t direction, float torqueMax, float speedMaxRPM, float speedMeas, volatile pi_struct *loopSpeed){
 800141a:	460c      	mov	r4, r1
 800141c:	ed2d 8b02 	vpush	{d8}
 * @param[in] ref The reference value to saturate.
 * @param[in] max The maximum allowed value for saturation.
 * @return The saturated reference value.
 */
float saturate_symmetric(float ref, float max) {
    if (ref > max) {
 8001420:	eeb4 0ae0 	vcmpe.f32	s0, s1
float handle_torqueRef(float torqueRefIn, int8_t direction, float torqueMax, float speedMaxRPM, float speedMeas, volatile pi_struct *loopSpeed){
 8001424:	eeb0 8a60 	vmov.f32	s16, s1
    if (ref > max) {
 8001428:	eef1 fa10 	vmrs	APSR_nzcv, fpscr
 800142c:	dc03      	bgt.n	8001436 <handle_torqueRef+0x2a>
        return max;
    } else if (ref < -max) {
 800142e:	eeb1 8a60 	vneg.f32	s16, s1
 8001432:	fe88 8a00 	vmaxnm.f32	s16, s16, s0
 */
float limit_torque_to_prevent_overspeed(float speedMaxRPM, float speedMeas, float torqueRefIn, volatile pi_struct *loopSpeed){

	// Set speed reference and feedback
	loopSpeed->pi_consig = speedMaxRPM;
	loopSpeed->pi_fdb = fabsf(speedMeas); // Absolute value of speed
 8001436:	eef0 1ae1 	vabs.f32	s3, s3
	loopSpeed->pi_consig = speedMaxRPM;
 800143a:	ed84 1a08 	vstr	s2, [r4, #32]

    pi_calc(loopSpeed);
 800143e:	4620      	mov	r0, r4
	loopSpeed->pi_fdb = fabsf(speedMeas); // Absolute value of speed
 8001440:	edc4 1a09 	vstr	s3, [r4, #36]	@ 0x24
    pi_calc(loopSpeed);
 8001444:	f004 fdc6 	bl	8005fd4 <pi_calc>

    // Calculate limited torque reference based on speed controller output
    float max_torque = loopSpeed->pi_out;
 8001448:	ed94 0a0c 	vldr	s0, [r4, #48]	@ 0x30

    // Limit torque reference within bounds
    float torqueRefOut;

    if (torqueRefIn > max_torque) {
 800144c:	eeb4 0ac8 	vcmpe.f32	s0, s16
 8001450:	eef1 fa10 	vmrs	APSR_nzcv, fpscr
 8001454:	d403      	bmi.n	800145e <handle_torqueRef+0x52>
    	torqueRefOut = max_torque;
    } else if (torqueRefIn < -max_torque) {
 8001456:	eeb1 0a40 	vneg.f32	s0, s0
 800145a:	fe80 0a08 	vmaxnm.f32	s0, s0, s16
}
 800145e:	ecbd 8b02 	vpop	{d8}
 8001462:	bd10      	pop	{r4, pc}

08001464 <tasks_1ms>:
 * @brief Function to be executed every 1ms.
 *
 * This function is called by the TIM6 IRQ handler every millisecond.
 * It increments the millisecond counter and executes all the low priority tasks.
 */
void tasks_1ms(void) {
 8001464:	b5f8      	push	{r3, r4, r5, r6, r7, lr}
    // Increment millisecond counter
    ms_counter++;
 8001466:	4d19      	ldr	r5, [pc, #100]	@ (80014cc <tasks_1ms+0x68>)

    // Call LED handler for left, right, and error LEDs
    handle_LED(&led_left, ms_counter);
 8001468:	4819      	ldr	r0, [pc, #100]	@ (80014d0 <tasks_1ms+0x6c>)
    ms_counter++;
 800146a:	6829      	ldr	r1, [r5, #0]
    handle_LED(&led_right, ms_counter);
    handle_LED(&ledError, ms_counter);

    // Read direction switch
    handle_direction(&inverter_left.direction, &inverter_right.direction);
 800146c:	4f19      	ldr	r7, [pc, #100]	@ (80014d4 <tasks_1ms+0x70>)
    ms_counter++;
 800146e:	3101      	adds	r1, #1
    handle_direction(&inverter_left.direction, &inverter_right.direction);
 8001470:	4c19      	ldr	r4, [pc, #100]	@ (80014d8 <tasks_1ms+0x74>)


    inverter_left.tempInverter = get_temperature(rawADC_temp[0], tempInverterLUT);
 8001472:	4e1a      	ldr	r6, [pc, #104]	@ (80014dc <tasks_1ms+0x78>)
    ms_counter++;
 8001474:	6029      	str	r1, [r5, #0]
    handle_LED(&led_left, ms_counter);
 8001476:	f7ff ff23 	bl	80012c0 <handle_LED>
    handle_LED(&led_right, ms_counter);
 800147a:	6829      	ldr	r1, [r5, #0]
 800147c:	4818      	ldr	r0, [pc, #96]	@ (80014e0 <tasks_1ms+0x7c>)
 800147e:	f7ff ff1f 	bl	80012c0 <handle_LED>
    handle_LED(&ledError, ms_counter);
 8001482:	6829      	ldr	r1, [r5, #0]
 8001484:	4817      	ldr	r0, [pc, #92]	@ (80014e4 <tasks_1ms+0x80>)
    inverter_left.tempInverter = get_temperature(rawADC_temp[0], tempInverterLUT);
 8001486:	4d18      	ldr	r5, [pc, #96]	@ (80014e8 <tasks_1ms+0x84>)
    handle_LED(&ledError, ms_counter);
 8001488:	f7ff ff1a 	bl	80012c0 <handle_LED>
    handle_direction(&inverter_left.direction, &inverter_right.direction);
 800148c:	4638      	mov	r0, r7
 800148e:	4621      	mov	r1, r4
 8001490:	f7ff ff5a 	bl	8001348 <handle_direction>
    inverter_left.tempInverter = get_temperature(rawADC_temp[0], tempInverterLUT);
 8001494:	3f78      	subs	r7, #120	@ 0x78
 8001496:	4629      	mov	r1, r5
 8001498:	6830      	ldr	r0, [r6, #0]
 800149a:	f7ff fcff 	bl	8000e9c <get_temperature>
    inverter_right.tempInverter = get_temperature(rawADC_temp[1], tempInverterLUT);
 800149e:	4629      	mov	r1, r5
    inverter_left.tempMotor = get_temperature(rawADC_temp[2], tempMotorLUT);
 80014a0:	4d12      	ldr	r5, [pc, #72]	@ (80014ec <tasks_1ms+0x88>)
    inverter_left.tempInverter = get_temperature(rawADC_temp[0], tempInverterLUT);
 80014a2:	ed87 0a1f 	vstr	s0, [r7, #124]	@ 0x7c
    inverter_right.tempInverter = get_temperature(rawADC_temp[1], tempInverterLUT);
 80014a6:	6870      	ldr	r0, [r6, #4]
 80014a8:	f7ff fcf8 	bl	8000e9c <get_temperature>
    inverter_left.tempMotor = get_temperature(rawADC_temp[2], tempMotorLUT);
 80014ac:	4629      	mov	r1, r5
    inverter_right.tempInverter = get_temperature(rawADC_temp[1], tempInverterLUT);
 80014ae:	ed84 0a01 	vstr	s0, [r4, #4]
    inverter_left.tempMotor = get_temperature(rawADC_temp[2], tempMotorLUT);
 80014b2:	68b0      	ldr	r0, [r6, #8]
 80014b4:	f7ff fcf2 	bl	8000e9c <get_temperature>
    inverter_right.tempMotor = get_temperature(rawADC_temp[3], tempMotorLUT);
 80014b8:	4629      	mov	r1, r5
    inverter_left.tempMotor = get_temperature(rawADC_temp[2], tempMotorLUT);
 80014ba:	ed87 0a20 	vstr	s0, [r7, #128]	@ 0x80
    inverter_right.tempMotor = get_temperature(rawADC_temp[3], tempMotorLUT);
 80014be:	68f0      	ldr	r0, [r6, #12]
 80014c0:	f7ff fcec 	bl	8000e9c <get_temperature>
 80014c4:	ed84 0a02 	vstr	s0, [r4, #8]
}
 80014c8:	bdf8      	pop	{r3, r4, r5, r6, r7, pc}
 80014ca:	bf00      	nop
 80014cc:	200004d8 	.word	0x200004d8
 80014d0:	2000013c 	.word	0x2000013c
 80014d4:	200003c0 	.word	0x200003c0
 80014d8:	20000260 	.word	0x20000260
 80014dc:	200004a8 	.word	0x200004a8
 80014e0:	20000134 	.word	0x20000134
 80014e4:	2000012c 	.word	0x2000012c
 80014e8:	0800a47c 	.word	0x0800a47c
 80014ec:	0800647c 	.word	0x0800647c

080014f0 <tasks_20us_left>:
/**
 * @brief Function to be executed every TS.
 *
 * This function is called by the TIM1 trigger handler every TS.
 */
void tasks_20us_left(void){
 80014f0:	b5f8      	push	{r3, r4, r5, r6, r7, lr}
  start_ticks = SysTick->VAL;
 80014f2:	f04f 26e0 	mov.w	r6, #3758153728	@ 0xe000e000

  // encoder simulation
  rampa_calc(&freqRamp_left);
 80014f6:	4f3e      	ldr	r7, [pc, #248]	@ (80015f0 <tasks_20us_left+0x100>)
  start_ticks = SysTick->VAL;
 80014f8:	4d3e      	ldr	r5, [pc, #248]	@ (80015f4 <tasks_20us_left+0x104>)
 80014fa:	69b3      	ldr	r3, [r6, #24]
  rampa_calc(&freqRamp_left);
 80014fc:	4638      	mov	r0, r7
  angle_left.freq = freqRamp_left.out;
 80014fe:	4c3e      	ldr	r4, [pc, #248]	@ (80015f8 <tasks_20us_left+0x108>)
  start_ticks = SysTick->VAL;
 8001500:	602b      	str	r3, [r5, #0]
  rampa_calc(&freqRamp_left);
 8001502:	f004 fe4f 	bl	80061a4 <rampa_calc>
  angle_left.freq = freqRamp_left.out;
 8001506:	687b      	ldr	r3, [r7, #4]
  angle_calc(&angle_left);
 8001508:	4620      	mov	r0, r4
  angle_left.freq = freqRamp_left.out;
 800150a:	6023      	str	r3, [r4, #0]
  angle_calc(&angle_left);
 800150c:	f004 fdf6 	bl	80060fc <angle_calc>

  // put this in encoder function
  inverter_left.encoder.theta_e = angle_left.angle*PI; // angle simulation
 8001510:	ed9f 7a3a 	vldr	s14, [pc, #232]	@ 80015fc <tasks_20us_left+0x10c>
 8001514:	edd4 7a02 	vldr	s15, [r4, #8]
 8001518:	4c39      	ldr	r4, [pc, #228]	@ (8001600 <tasks_20us_left+0x110>)
 800151a:	ee67 7a87 	vmul.f32	s15, s15, s14
 800151e:	edc4 7a10 	vstr	s15, [r4, #64]	@ 0x40
  inverter_left.encoder.sinTheta_e = sinf(inverter_left.encoder.theta_e);
 8001522:	ed94 0a10 	vldr	s0, [r4, #64]	@ 0x40
 8001526:	f004 fa73 	bl	8005a10 <sinf>
 800152a:	ed84 0a11 	vstr	s0, [r4, #68]	@ 0x44
  inverter_left.encoder.cosTheta_e = cosf(inverter_left.encoder.theta_e);
 800152e:	ed94 0a10 	vldr	s0, [r4, #64]	@ 0x40
 8001532:	f004 fb31 	bl	8005b98 <cosf>


  // Actual control loop

  // ADC
  get_currents_voltage(rawADC_left, &inverter_left.analog, &inverter_left.feedback, inverter_left.encoder.sinTheta_e, inverter_left.encoder.cosTheta_e);
 8001536:	f104 0250 	add.w	r2, r4, #80	@ 0x50
  inverter_left.encoder.cosTheta_e = cosf(inverter_left.encoder.theta_e);
 800153a:	ed84 0a12 	vstr	s0, [r4, #72]	@ 0x48
  get_currents_voltage(rawADC_left, &inverter_left.analog, &inverter_left.feedback, inverter_left.encoder.sinTheta_e, inverter_left.encoder.cosTheta_e);
 800153e:	f104 0118 	add.w	r1, r4, #24
 8001542:	ed94 0a11 	vldr	s0, [r4, #68]	@ 0x44
 8001546:	482f      	ldr	r0, [pc, #188]	@ (8001604 <tasks_20us_left+0x114>)
 8001548:	edd4 0a12 	vldr	s1, [r4, #72]	@ 0x48
 800154c:	f7ff fc5c 	bl	8000e08 <get_currents_voltage>
  inverter_left.vsMax = 0.9F * inverter_left.analog.vDC * ISQ3; // Calculate max Vs voltage, 90% of DC/sqrt3
 8001550:	edd4 7a09 	vldr	s15, [r4, #36]	@ 0x24
 8001554:	ed9f 7a2c 	vldr	s14, [pc, #176]	@ 8001608 <tasks_20us_left+0x118>
  
  // Reference generation
  inverter_left.reference.torqueRef = handle_torqueRef(torqueRefIn_left, inverter_left.direction, inverter_left.motor->torqueMax, inverter_left.motor->speedMax_RPM, inverter_left.feedback.speedMeas, &inverter_left.speedLoop);
 8001558:	f504 718e 	add.w	r1, r4, #284	@ 0x11c
  inverter_left.vsMax = 0.9F * inverter_left.analog.vDC * ISQ3; // Calculate max Vs voltage, 90% of DC/sqrt3
 800155c:	ee67 7a87 	vmul.f32	s15, s15, s14
 8001560:	edc4 7a44 	vstr	s15, [r4, #272]	@ 0x110
  inverter_left.reference.torqueRef = handle_torqueRef(torqueRefIn_left, inverter_left.direction, inverter_left.motor->torqueMax, inverter_left.motor->speedMax_RPM, inverter_left.feedback.speedMeas, &inverter_left.speedLoop);
 8001564:	f894 0078 	ldrb.w	r0, [r4, #120]	@ 0x78
 8001568:	f8d4 3084 	ldr.w	r3, [r4, #132]	@ 0x84
 800156c:	b240      	sxtb	r0, r0
 800156e:	edd3 0a07 	vldr	s1, [r3, #28]
 8001572:	f8d4 3084 	ldr.w	r3, [r4, #132]	@ 0x84
 8001576:	edd4 1a17 	vldr	s3, [r4, #92]	@ 0x5c
 800157a:	ed93 1a09 	vldr	s2, [r3, #36]	@ 0x24
 800157e:	4b23      	ldr	r3, [pc, #140]	@ (800160c <tasks_20us_left+0x11c>)
 8001580:	ed93 0a00 	vldr	s0, [r3]
 8001584:	f7ff ff42 	bl	800140c <handle_torqueRef>

  // FOC
  calc_current_reference(inverter_left.encoder.we, inverter_left.reference.torqueRef, inverter_left.vsMax, inverter_left.motor, &inverter_left.reference.idRef, &inverter_left.reference.iqRef);
 8001588:	f104 0264 	add.w	r2, r4, #100	@ 0x64
 800158c:	f104 0160 	add.w	r1, r4, #96	@ 0x60
  inverter_left.reference.torqueRef = handle_torqueRef(torqueRefIn_left, inverter_left.direction, inverter_left.motor->torqueMax, inverter_left.motor->speedMax_RPM, inverter_left.feedback.speedMeas, &inverter_left.speedLoop);
 8001590:	ed84 0a1a 	vstr	s0, [r4, #104]	@ 0x68
  calc_current_reference(inverter_left.encoder.we, inverter_left.reference.torqueRef, inverter_left.vsMax, inverter_left.motor, &inverter_left.reference.idRef, &inverter_left.reference.iqRef);
 8001594:	ed94 0a0f 	vldr	s0, [r4, #60]	@ 0x3c
 8001598:	edd4 0a1a 	vldr	s1, [r4, #104]	@ 0x68
 800159c:	ed94 1a44 	vldr	s2, [r4, #272]	@ 0x110
 80015a0:	f8d4 0084 	ldr.w	r0, [r4, #132]	@ 0x84
 80015a4:	f7ff fa10 	bl	80009c8 <calc_current_reference>

  // PIs and duty calc
  calc_current_loop(&inverter_left);
 80015a8:	4620      	mov	r0, r4
 80015aa:	f7ff facb 	bl	8000b44 <calc_current_loop>
  saturate_voltage(&inverter_left);
 80015ae:	4620      	mov	r0, r4
 80015b0:	f7ff faf4 	bl	8000b9c <saturate_voltage>
  calc_duties(inverter_left.vd, inverter_left.vq, inverter_left.analog.vDC, inverter_left.encoder.sinTheta_e, inverter_left.encoder.cosTheta_e, &inverter_left.duties);
 80015b4:	ed94 0a45 	vldr	s0, [r4, #276]	@ 0x114
 80015b8:	f104 006c 	add.w	r0, r4, #108	@ 0x6c
 80015bc:	edd4 0a46 	vldr	s1, [r4, #280]	@ 0x118
 80015c0:	ed94 1a09 	vldr	s2, [r4, #36]	@ 0x24
 80015c4:	edd4 1a11 	vldr	s3, [r4, #68]	@ 0x44
 80015c8:	ed94 2a12 	vldr	s4, [r4, #72]	@ 0x48
 80015cc:	f7ff fb1c 	bl	8000c08 <calc_duties>

  update_PWM(inverter_left.htim, inverter_left.duties);
 80015d0:	68e0      	ldr	r0, [r4, #12]
 80015d2:	ed94 0a1b 	vldr	s0, [r4, #108]	@ 0x6c
 80015d6:	edd4 0a1c 	vldr	s1, [r4, #112]	@ 0x70
 80015da:	ed94 1a1d 	vldr	s2, [r4, #116]	@ 0x74
 80015de:	f7ff fee5 	bl	80013ac <update_PWM>


  elapsed_ticks = start_ticks - SysTick->VAL;
 80015e2:	69b1      	ldr	r1, [r6, #24]
 80015e4:	682b      	ldr	r3, [r5, #0]
 80015e6:	4a0a      	ldr	r2, [pc, #40]	@ (8001610 <tasks_20us_left+0x120>)
 80015e8:	1a5b      	subs	r3, r3, r1
 80015ea:	6013      	str	r3, [r2, #0]

}
 80015ec:	bdf8      	pop	{r3, r4, r5, r6, r7, pc}
 80015ee:	bf00      	nop
 80015f0:	20000144 	.word	0x20000144
 80015f4:	200004e0 	.word	0x200004e0
 80015f8:	20000158 	.word	0x20000158
 80015fc:	40490fdb 	.word	0x40490fdb
 8001600:	20000348 	.word	0x20000348
 8001604:	200004c8 	.word	0x200004c8
 8001608:	3f050581 	.word	0x3f050581
 800160c:	200004e4 	.word	0x200004e4
 8001610:	200004dc 	.word	0x200004dc
 8001614:	00000000 	.word	0x00000000

08001618 <MX_ADC1_Init>:

  /* USER CODE END ADC1_Init 1 */

  /** Configure the global features of the ADC (Clock, Resolution, Data Alignment and number of conversion)
  */
  hadc1.Instance = ADC1;
 8001618:	482f      	ldr	r0, [pc, #188]	@ (80016d8 <MX_ADC1_Init+0xc0>)
  ADC_ChannelConfTypeDef sConfig = {0};
 800161a:	2300      	movs	r3, #0
  hadc1.Init.ClockPrescaler = ADC_CLOCK_SYNC_PCLK_DIV4;
 800161c:	f44f 3180 	mov.w	r1, #65536	@ 0x10000
  hadc1.Init.Resolution = ADC_RESOLUTION_12B;
  hadc1.Init.ScanConvMode = ADC_SCAN_ENABLE;
 8001620:	2201      	movs	r2, #1
  hadc1.Init.ContinuousConvMode = DISABLE;
  hadc1.Init.DiscontinuousConvMode = DISABLE;
  hadc1.Init.ExternalTrigConvEdge = ADC_EXTERNALTRIGCONVEDGE_RISING;
  hadc1.Init.ExternalTrigConv = ADC_EXTERNALTRIGCONV_T1_TRGO;
 8001622:	ed9f 7b29 	vldr	d7, [pc, #164]	@ 80016c8 <MX_ADC1_Init+0xb0>
{
 8001626:	b510      	push	{r4, lr}
  hadc1.Instance = ADC1;
 8001628:	4c2c      	ldr	r4, [pc, #176]	@ (80016dc <MX_ADC1_Init+0xc4>)
{
 800162a:	b084      	sub	sp, #16
  hadc1.Init.ScanConvMode = ADC_SCAN_ENABLE;
 800162c:	6102      	str	r2, [r0, #16]
  ADC_ChannelConfTypeDef sConfig = {0};
 800162e:	9300      	str	r3, [sp, #0]
  hadc1.Instance = ADC1;
 8001630:	6004      	str	r4, [r0, #0]
  hadc1.Init.DiscontinuousConvMode = DISABLE;
 8001632:	f880 3020 	strb.w	r3, [r0, #32]
  hadc1.Init.DataAlign = ADC_DATAALIGN_RIGHT;
 8001636:	60c3      	str	r3, [r0, #12]
  hadc1.Init.NbrOfConversion = 4;
  hadc1.Init.DMAContinuousRequests = ENABLE;
 8001638:	f880 2030 	strb.w	r2, [r0, #48]	@ 0x30
  ADC_ChannelConfTypeDef sConfig = {0};
 800163c:	9303      	str	r3, [sp, #12]
  hadc1.Init.ClockPrescaler = ADC_CLOCK_SYNC_PCLK_DIV4;
 800163e:	e9c0 1301 	strd	r1, r3, [r0, #4]
  hadc1.Init.NbrOfConversion = 4;
 8001642:	2104      	movs	r1, #4
  hadc1.Init.ExternalTrigConv = ADC_EXTERNALTRIGCONV_T1_TRGO;
 8001644:	ed80 7b0a 	vstr	d7, [r0, #40]	@ 0x28
  hadc1.Init.NbrOfConversion = 4;
 8001648:	61c1      	str	r1, [r0, #28]
  hadc1.Init.EOCSelection = ADC_EOC_SEQ_CONV;
 800164a:	e9c0 3305 	strd	r3, r3, [r0, #20]
  ADC_ChannelConfTypeDef sConfig = {0};
 800164e:	e9cd 3301 	strd	r3, r3, [sp, #4]
  if (HAL_ADC_Init(&hadc1) != HAL_OK)
 8001652:	f001 f955 	bl	8002900 <HAL_ADC_Init>
 8001656:	bb38      	cbnz	r0, 80016a8 <MX_ADC1_Init+0x90>

  /** Configure for the selected ADC regular channel its corresponding rank in the sequencer and its sample time.
  */
  sConfig.Channel = ADC_CHANNEL_0;
  sConfig.Rank = ADC_REGULAR_RANK_1;
  sConfig.SamplingTime = ADC_SAMPLETIME_3CYCLES;
 8001658:	2300      	movs	r3, #0
  if (HAL_ADC_ConfigChannel(&hadc1, &sConfig) != HAL_OK)
 800165a:	4669      	mov	r1, sp
 800165c:	481e      	ldr	r0, [pc, #120]	@ (80016d8 <MX_ADC1_Init+0xc0>)
  sConfig.SamplingTime = ADC_SAMPLETIME_3CYCLES;
 800165e:	9302      	str	r3, [sp, #8]
  sConfig.Channel = ADC_CHANNEL_0;
 8001660:	ed9f 7b1b 	vldr	d7, [pc, #108]	@ 80016d0 <MX_ADC1_Init+0xb8>
 8001664:	ed8d 7b00 	vstr	d7, [sp]
  if (HAL_ADC_ConfigChannel(&hadc1, &sConfig) != HAL_OK)
 8001668:	f001 faea 	bl	8002c40 <HAL_ADC_ConfigChannel>
 800166c:	bb48      	cbnz	r0, 80016c2 <MX_ADC1_Init+0xaa>
    Error_Handler();
  }

  /** Configure for the selected ADC regular channel its corresponding rank in the sequencer and its sample time.
  */
  sConfig.Channel = ADC_CHANNEL_1;
 800166e:	2201      	movs	r2, #1
 8001670:	2302      	movs	r3, #2
  sConfig.Rank = ADC_REGULAR_RANK_2;
  if (HAL_ADC_ConfigChannel(&hadc1, &sConfig) != HAL_OK)
 8001672:	4669      	mov	r1, sp
 8001674:	4818      	ldr	r0, [pc, #96]	@ (80016d8 <MX_ADC1_Init+0xc0>)
  sConfig.Channel = ADC_CHANNEL_1;
 8001676:	e9cd 2300 	strd	r2, r3, [sp]
  if (HAL_ADC_ConfigChannel(&hadc1, &sConfig) != HAL_OK)
 800167a:	f001 fae1 	bl	8002c40 <HAL_ADC_ConfigChannel>
 800167e:	b9e8      	cbnz	r0, 80016bc <MX_ADC1_Init+0xa4>
    Error_Handler();
  }

  /** Configure for the selected ADC regular channel its corresponding rank in the sequencer and its sample time.
  */
  sConfig.Channel = ADC_CHANNEL_2;
 8001680:	2202      	movs	r2, #2
 8001682:	2303      	movs	r3, #3
  sConfig.Rank = ADC_REGULAR_RANK_3;
  if (HAL_ADC_ConfigChannel(&hadc1, &sConfig) != HAL_OK)
 8001684:	4669      	mov	r1, sp
 8001686:	4814      	ldr	r0, [pc, #80]	@ (80016d8 <MX_ADC1_Init+0xc0>)
  sConfig.Channel = ADC_CHANNEL_2;
 8001688:	e9cd 2300 	strd	r2, r3, [sp]
  if (HAL_ADC_ConfigChannel(&hadc1, &sConfig) != HAL_OK)
 800168c:	f001 fad8 	bl	8002c40 <HAL_ADC_ConfigChannel>
 8001690:	b988      	cbnz	r0, 80016b6 <MX_ADC1_Init+0x9e>
    Error_Handler();
  }

  /** Configure for the selected ADC regular channel its corresponding rank in the sequencer and its sample time.
  */
  sConfig.Channel = ADC_CHANNEL_3;
 8001692:	2203      	movs	r2, #3
 8001694:	2304      	movs	r3, #4
  sConfig.Rank = ADC_REGULAR_RANK_4;
  if (HAL_ADC_ConfigChannel(&hadc1, &sConfig) != HAL_OK)
 8001696:	4669      	mov	r1, sp
 8001698:	480f      	ldr	r0, [pc, #60]	@ (80016d8 <MX_ADC1_Init+0xc0>)
  sConfig.Channel = ADC_CHANNEL_3;
 800169a:	e9cd 2300 	strd	r2, r3, [sp]
  if (HAL_ADC_ConfigChannel(&hadc1, &sConfig) != HAL_OK)
 800169e:	f001 facf 	bl	8002c40 <HAL_ADC_ConfigChannel>
 80016a2:	b920      	cbnz	r0, 80016ae <MX_ADC1_Init+0x96>
  }
  /* USER CODE BEGIN ADC1_Init 2 */

  /* USER CODE END ADC1_Init 2 */

}
 80016a4:	b004      	add	sp, #16
 80016a6:	bd10      	pop	{r4, pc}
    Error_Handler();
 80016a8:	f000 fcf4 	bl	8002094 <Error_Handler>
 80016ac:	e7d4      	b.n	8001658 <MX_ADC1_Init+0x40>
    Error_Handler();
 80016ae:	f000 fcf1 	bl	8002094 <Error_Handler>
}
 80016b2:	b004      	add	sp, #16
 80016b4:	bd10      	pop	{r4, pc}
    Error_Handler();
 80016b6:	f000 fced 	bl	8002094 <Error_Handler>
 80016ba:	e7ea      	b.n	8001692 <MX_ADC1_Init+0x7a>
    Error_Handler();
 80016bc:	f000 fcea 	bl	8002094 <Error_Handler>
 80016c0:	e7de      	b.n	8001680 <MX_ADC1_Init+0x68>
    Error_Handler();
 80016c2:	f000 fce7 	bl	8002094 <Error_Handler>
 80016c6:	e7d2      	b.n	800166e <MX_ADC1_Init+0x56>
 80016c8:	09000000 	.word	0x09000000
 80016cc:	10000000 	.word	0x10000000
 80016d0:	00000000 	.word	0x00000000
 80016d4:	00000001 	.word	0x00000001
 80016d8:	20000698 	.word	0x20000698
 80016dc:	40012000 	.word	0x40012000

080016e0 <MX_ADC2_Init>:

  /* USER CODE END ADC2_Init 1 */

  /** Configure the global features of the ADC (Clock, Resolution, Data Alignment and number of conversion)
  */
  hadc2.Instance = ADC2;
 80016e0:	482f      	ldr	r0, [pc, #188]	@ (80017a0 <MX_ADC2_Init+0xc0>)
  ADC_ChannelConfTypeDef sConfig = {0};
 80016e2:	2300      	movs	r3, #0
  hadc2.Init.ClockPrescaler = ADC_CLOCK_SYNC_PCLK_DIV4;
 80016e4:	f44f 3180 	mov.w	r1, #65536	@ 0x10000
  hadc2.Init.Resolution = ADC_RESOLUTION_12B;
  hadc2.Init.ScanConvMode = ADC_SCAN_ENABLE;
 80016e8:	2201      	movs	r2, #1
  hadc2.Init.ContinuousConvMode = DISABLE;
  hadc2.Init.DiscontinuousConvMode = DISABLE;
  hadc2.Init.ExternalTrigConvEdge = ADC_EXTERNALTRIGCONVEDGE_RISING;
  hadc2.Init.ExternalTrigConv = ADC_EXTERNALTRIGCONV_T1_TRGO;
 80016ea:	ed9f 7b29 	vldr	d7, [pc, #164]	@ 8001790 <MX_ADC2_Init+0xb0>
{
 80016ee:	b510      	push	{r4, lr}
  hadc2.Instance = ADC2;
 80016f0:	4c2c      	ldr	r4, [pc, #176]	@ (80017a4 <MX_ADC2_Init+0xc4>)
{
 80016f2:	b084      	sub	sp, #16
  hadc2.Init.ScanConvMode = ADC_SCAN_ENABLE;
 80016f4:	6102      	str	r2, [r0, #16]
  ADC_ChannelConfTypeDef sConfig = {0};
 80016f6:	9300      	str	r3, [sp, #0]
  hadc2.Instance = ADC2;
 80016f8:	6004      	str	r4, [r0, #0]
  hadc2.Init.DiscontinuousConvMode = DISABLE;
 80016fa:	f880 3020 	strb.w	r3, [r0, #32]
  hadc2.Init.DataAlign = ADC_DATAALIGN_RIGHT;
 80016fe:	60c3      	str	r3, [r0, #12]
  hadc2.Init.NbrOfConversion = 4;
  hadc2.Init.DMAContinuousRequests = ENABLE;
 8001700:	f880 2030 	strb.w	r2, [r0, #48]	@ 0x30
  ADC_ChannelConfTypeDef sConfig = {0};
 8001704:	9303      	str	r3, [sp, #12]
  hadc2.Init.ClockPrescaler = ADC_CLOCK_SYNC_PCLK_DIV4;
 8001706:	e9c0 1301 	strd	r1, r3, [r0, #4]
  hadc2.Init.NbrOfConversion = 4;
 800170a:	2104      	movs	r1, #4
  hadc2.Init.ExternalTrigConv = ADC_EXTERNALTRIGCONV_T1_TRGO;
 800170c:	ed80 7b0a 	vstr	d7, [r0, #40]	@ 0x28
  hadc2.Init.NbrOfConversion = 4;
 8001710:	61c1      	str	r1, [r0, #28]
  hadc2.Init.EOCSelection = ADC_EOC_SEQ_CONV;
 8001712:	e9c0 3305 	strd	r3, r3, [r0, #20]
  ADC_ChannelConfTypeDef sConfig = {0};
 8001716:	e9cd 3301 	strd	r3, r3, [sp, #4]
  if (HAL_ADC_Init(&hadc2) != HAL_OK)
 800171a:	f001 f8f1 	bl	8002900 <HAL_ADC_Init>
 800171e:	bb38      	cbnz	r0, 8001770 <MX_ADC2_Init+0x90>

  /** Configure for the selected ADC regular channel its corresponding rank in the sequencer and its sample time.
  */
  sConfig.Channel = ADC_CHANNEL_6;
  sConfig.Rank = ADC_REGULAR_RANK_1;
  sConfig.SamplingTime = ADC_SAMPLETIME_56CYCLES;
 8001720:	2303      	movs	r3, #3
  if (HAL_ADC_ConfigChannel(&hadc2, &sConfig) != HAL_OK)
 8001722:	4669      	mov	r1, sp
 8001724:	481e      	ldr	r0, [pc, #120]	@ (80017a0 <MX_ADC2_Init+0xc0>)
  sConfig.SamplingTime = ADC_SAMPLETIME_56CYCLES;
 8001726:	9302      	str	r3, [sp, #8]
  sConfig.Channel = ADC_CHANNEL_6;
 8001728:	ed9f 7b1b 	vldr	d7, [pc, #108]	@ 8001798 <MX_ADC2_Init+0xb8>
 800172c:	ed8d 7b00 	vstr	d7, [sp]
  if (HAL_ADC_ConfigChannel(&hadc2, &sConfig) != HAL_OK)
 8001730:	f001 fa86 	bl	8002c40 <HAL_ADC_ConfigChannel>
 8001734:	bb48      	cbnz	r0, 800178a <MX_ADC2_Init+0xaa>
    Error_Handler();
  }

  /** Configure for the selected ADC regular channel its corresponding rank in the sequencer and its sample time.
  */
  sConfig.Channel = ADC_CHANNEL_7;
 8001736:	2207      	movs	r2, #7
 8001738:	2302      	movs	r3, #2
  sConfig.Rank = ADC_REGULAR_RANK_2;
  if (HAL_ADC_ConfigChannel(&hadc2, &sConfig) != HAL_OK)
 800173a:	4669      	mov	r1, sp
 800173c:	4818      	ldr	r0, [pc, #96]	@ (80017a0 <MX_ADC2_Init+0xc0>)
  sConfig.Channel = ADC_CHANNEL_7;
 800173e:	e9cd 2300 	strd	r2, r3, [sp]
  if (HAL_ADC_ConfigChannel(&hadc2, &sConfig) != HAL_OK)
 8001742:	f001 fa7d 	bl	8002c40 <HAL_ADC_ConfigChannel>
 8001746:	b9e8      	cbnz	r0, 8001784 <MX_ADC2_Init+0xa4>
    Error_Handler();
  }

  /** Configure for the selected ADC regular channel its corresponding rank in the sequencer and its sample time.
  */
  sConfig.Channel = ADC_CHANNEL_8;
 8001748:	2208      	movs	r2, #8
 800174a:	2303      	movs	r3, #3
  sConfig.Rank = ADC_REGULAR_RANK_3;
  if (HAL_ADC_ConfigChannel(&hadc2, &sConfig) != HAL_OK)
 800174c:	4669      	mov	r1, sp
 800174e:	4814      	ldr	r0, [pc, #80]	@ (80017a0 <MX_ADC2_Init+0xc0>)
  sConfig.Channel = ADC_CHANNEL_8;
 8001750:	e9cd 2300 	strd	r2, r3, [sp]
  if (HAL_ADC_ConfigChannel(&hadc2, &sConfig) != HAL_OK)
 8001754:	f001 fa74 	bl	8002c40 <HAL_ADC_ConfigChannel>
 8001758:	b988      	cbnz	r0, 800177e <MX_ADC2_Init+0x9e>
    Error_Handler();
  }

  /** Configure for the selected ADC regular channel its corresponding rank in the sequencer and its sample time.
  */
  sConfig.Channel = ADC_CHANNEL_9;
 800175a:	2209      	movs	r2, #9
 800175c:	2304      	movs	r3, #4
  sConfig.Rank = ADC_REGULAR_RANK_4;
  if (HAL_ADC_ConfigChannel(&hadc2, &sConfig) != HAL_OK)
 800175e:	4669      	mov	r1, sp
 8001760:	480f      	ldr	r0, [pc, #60]	@ (80017a0 <MX_ADC2_Init+0xc0>)
  sConfig.Channel = ADC_CHANNEL_9;
 8001762:	e9cd 2300 	strd	r2, r3, [sp]
  if (HAL_ADC_ConfigChannel(&hadc2, &sConfig) != HAL_OK)
 8001766:	f001 fa6b 	bl	8002c40 <HAL_ADC_ConfigChannel>
 800176a:	b920      	cbnz	r0, 8001776 <MX_ADC2_Init+0x96>
  }
  /* USER CODE BEGIN ADC2_Init 2 */

  /* USER CODE END ADC2_Init 2 */

}
 800176c:	b004      	add	sp, #16
 800176e:	bd10      	pop	{r4, pc}
    Error_Handler();
 8001770:	f000 fc90 	bl	8002094 <Error_Handler>
 8001774:	e7d4      	b.n	8001720 <MX_ADC2_Init+0x40>
    Error_Handler();
 8001776:	f000 fc8d 	bl	8002094 <Error_Handler>
}
 800177a:	b004      	add	sp, #16
 800177c:	bd10      	pop	{r4, pc}
    Error_Handler();
 800177e:	f000 fc89 	bl	8002094 <Error_Handler>
 8001782:	e7ea      	b.n	800175a <MX_ADC2_Init+0x7a>
    Error_Handler();
 8001784:	f000 fc86 	bl	8002094 <Error_Handler>
 8001788:	e7de      	b.n	8001748 <MX_ADC2_Init+0x68>
    Error_Handler();
 800178a:	f000 fc83 	bl	8002094 <Error_Handler>
 800178e:	e7d2      	b.n	8001736 <MX_ADC2_Init+0x56>
 8001790:	09000000 	.word	0x09000000
 8001794:	10000000 	.word	0x10000000
 8001798:	00000006 	.word	0x00000006
 800179c:	00000001 	.word	0x00000001
 80017a0:	20000650 	.word	0x20000650
 80017a4:	40012100 	.word	0x40012100

080017a8 <MX_ADC3_Init>:

  /* USER CODE END ADC3_Init 1 */

  /** Configure the global features of the ADC (Clock, Resolution, Data Alignment and number of conversion)
  */
  hadc3.Instance = ADC3;
 80017a8:	482f      	ldr	r0, [pc, #188]	@ (8001868 <MX_ADC3_Init+0xc0>)
  ADC_ChannelConfTypeDef sConfig = {0};
 80017aa:	2300      	movs	r3, #0
  hadc3.Init.ClockPrescaler = ADC_CLOCK_SYNC_PCLK_DIV4;
 80017ac:	f44f 3180 	mov.w	r1, #65536	@ 0x10000
  hadc3.Init.Resolution = ADC_RESOLUTION_12B;
  hadc3.Init.ScanConvMode = ADC_SCAN_ENABLE;
 80017b0:	2201      	movs	r2, #1
  hadc3.Init.ContinuousConvMode = DISABLE;
  hadc3.Init.DiscontinuousConvMode = DISABLE;
  hadc3.Init.ExternalTrigConvEdge = ADC_EXTERNALTRIGCONVEDGE_RISING;
  hadc3.Init.ExternalTrigConv = ADC_EXTERNALTRIGCONV_T6_TRGO;
 80017b2:	ed9f 7b29 	vldr	d7, [pc, #164]	@ 8001858 <MX_ADC3_Init+0xb0>
{
 80017b6:	b510      	push	{r4, lr}
  hadc3.Instance = ADC3;
 80017b8:	4c2c      	ldr	r4, [pc, #176]	@ (800186c <MX_ADC3_Init+0xc4>)
{
 80017ba:	b084      	sub	sp, #16
  hadc3.Init.ScanConvMode = ADC_SCAN_ENABLE;
 80017bc:	6102      	str	r2, [r0, #16]
  ADC_ChannelConfTypeDef sConfig = {0};
 80017be:	9300      	str	r3, [sp, #0]
  hadc3.Instance = ADC3;
 80017c0:	6004      	str	r4, [r0, #0]
  hadc3.Init.DiscontinuousConvMode = DISABLE;
 80017c2:	f880 3020 	strb.w	r3, [r0, #32]
  hadc3.Init.DataAlign = ADC_DATAALIGN_RIGHT;
 80017c6:	60c3      	str	r3, [r0, #12]
  hadc3.Init.NbrOfConversion = 4;
  hadc3.Init.DMAContinuousRequests = ENABLE;
 80017c8:	f880 2030 	strb.w	r2, [r0, #48]	@ 0x30
  ADC_ChannelConfTypeDef sConfig = {0};
 80017cc:	9303      	str	r3, [sp, #12]
  hadc3.Init.ClockPrescaler = ADC_CLOCK_SYNC_PCLK_DIV4;
 80017ce:	e9c0 1301 	strd	r1, r3, [r0, #4]
  hadc3.Init.NbrOfConversion = 4;
 80017d2:	2104      	movs	r1, #4
  hadc3.Init.ExternalTrigConv = ADC_EXTERNALTRIGCONV_T6_TRGO;
 80017d4:	ed80 7b0a 	vstr	d7, [r0, #40]	@ 0x28
  hadc3.Init.NbrOfConversion = 4;
 80017d8:	61c1      	str	r1, [r0, #28]
  hadc3.Init.EOCSelection = ADC_EOC_SEQ_CONV;
 80017da:	e9c0 3305 	strd	r3, r3, [r0, #20]
  ADC_ChannelConfTypeDef sConfig = {0};
 80017de:	e9cd 3301 	strd	r3, r3, [sp, #4]
  if (HAL_ADC_Init(&hadc3) != HAL_OK)
 80017e2:	f001 f88d 	bl	8002900 <HAL_ADC_Init>
 80017e6:	bb38      	cbnz	r0, 8001838 <MX_ADC3_Init+0x90>

  /** Configure for the selected ADC regular channel its corresponding rank in the sequencer and its sample time.
  */
  sConfig.Channel = ADC_CHANNEL_10;
  sConfig.Rank = ADC_REGULAR_RANK_1;
  sConfig.SamplingTime = ADC_SAMPLETIME_3CYCLES;
 80017e8:	2300      	movs	r3, #0
  if (HAL_ADC_ConfigChannel(&hadc3, &sConfig) != HAL_OK)
 80017ea:	4669      	mov	r1, sp
 80017ec:	481e      	ldr	r0, [pc, #120]	@ (8001868 <MX_ADC3_Init+0xc0>)
  sConfig.SamplingTime = ADC_SAMPLETIME_3CYCLES;
 80017ee:	9302      	str	r3, [sp, #8]
  sConfig.Channel = ADC_CHANNEL_10;
 80017f0:	ed9f 7b1b 	vldr	d7, [pc, #108]	@ 8001860 <MX_ADC3_Init+0xb8>
 80017f4:	ed8d 7b00 	vstr	d7, [sp]
  if (HAL_ADC_ConfigChannel(&hadc3, &sConfig) != HAL_OK)
 80017f8:	f001 fa22 	bl	8002c40 <HAL_ADC_ConfigChannel>
 80017fc:	bb48      	cbnz	r0, 8001852 <MX_ADC3_Init+0xaa>
    Error_Handler();
  }

  /** Configure for the selected ADC regular channel its corresponding rank in the sequencer and its sample time.
  */
  sConfig.Channel = ADC_CHANNEL_11;
 80017fe:	220b      	movs	r2, #11
 8001800:	2302      	movs	r3, #2
  sConfig.Rank = ADC_REGULAR_RANK_2;
  if (HAL_ADC_ConfigChannel(&hadc3, &sConfig) != HAL_OK)
 8001802:	4669      	mov	r1, sp
 8001804:	4818      	ldr	r0, [pc, #96]	@ (8001868 <MX_ADC3_Init+0xc0>)
  sConfig.Channel = ADC_CHANNEL_11;
 8001806:	e9cd 2300 	strd	r2, r3, [sp]
  if (HAL_ADC_ConfigChannel(&hadc3, &sConfig) != HAL_OK)
 800180a:	f001 fa19 	bl	8002c40 <HAL_ADC_ConfigChannel>
 800180e:	b9e8      	cbnz	r0, 800184c <MX_ADC3_Init+0xa4>
    Error_Handler();
  }

  /** Configure for the selected ADC regular channel its corresponding rank in the sequencer and its sample time.
  */
  sConfig.Channel = ADC_CHANNEL_12;
 8001810:	220c      	movs	r2, #12
 8001812:	2303      	movs	r3, #3
  sConfig.Rank = ADC_REGULAR_RANK_3;
  if (HAL_ADC_ConfigChannel(&hadc3, &sConfig) != HAL_OK)
 8001814:	4669      	mov	r1, sp
 8001816:	4814      	ldr	r0, [pc, #80]	@ (8001868 <MX_ADC3_Init+0xc0>)
  sConfig.Channel = ADC_CHANNEL_12;
 8001818:	e9cd 2300 	strd	r2, r3, [sp]
  if (HAL_ADC_ConfigChannel(&hadc3, &sConfig) != HAL_OK)
 800181c:	f001 fa10 	bl	8002c40 <HAL_ADC_ConfigChannel>
 8001820:	b988      	cbnz	r0, 8001846 <MX_ADC3_Init+0x9e>
    Error_Handler();
  }

  /** Configure for the selected ADC regular channel its corresponding rank in the sequencer and its sample time.
  */
  sConfig.Channel = ADC_CHANNEL_13;
 8001822:	220d      	movs	r2, #13
 8001824:	2304      	movs	r3, #4
  sConfig.Rank = ADC_REGULAR_RANK_4;
  if (HAL_ADC_ConfigChannel(&hadc3, &sConfig) != HAL_OK)
 8001826:	4669      	mov	r1, sp
 8001828:	480f      	ldr	r0, [pc, #60]	@ (8001868 <MX_ADC3_Init+0xc0>)
  sConfig.Channel = ADC_CHANNEL_13;
 800182a:	e9cd 2300 	strd	r2, r3, [sp]
  if (HAL_ADC_ConfigChannel(&hadc3, &sConfig) != HAL_OK)
 800182e:	f001 fa07 	bl	8002c40 <HAL_ADC_ConfigChannel>
 8001832:	b920      	cbnz	r0, 800183e <MX_ADC3_Init+0x96>
  }
  /* USER CODE BEGIN ADC3_Init 2 */

  /* USER CODE END ADC3_Init 2 */

}
 8001834:	b004      	add	sp, #16
 8001836:	bd10      	pop	{r4, pc}
    Error_Handler();
 8001838:	f000 fc2c 	bl	8002094 <Error_Handler>
 800183c:	e7d4      	b.n	80017e8 <MX_ADC3_Init+0x40>
    Error_Handler();
 800183e:	f000 fc29 	bl	8002094 <Error_Handler>
}
 8001842:	b004      	add	sp, #16
 8001844:	bd10      	pop	{r4, pc}
    Error_Handler();
 8001846:	f000 fc25 	bl	8002094 <Error_Handler>
 800184a:	e7ea      	b.n	8001822 <MX_ADC3_Init+0x7a>
    Error_Handler();
 800184c:	f000 fc22 	bl	8002094 <Error_Handler>
 8001850:	e7de      	b.n	8001810 <MX_ADC3_Init+0x68>
    Error_Handler();
 8001852:	f000 fc1f 	bl	8002094 <Error_Handler>
 8001856:	e7d2      	b.n	80017fe <MX_ADC3_Init+0x56>
 8001858:	0d000000 	.word	0x0d000000
 800185c:	10000000 	.word	0x10000000
 8001860:	0000000a 	.word	0x0000000a
 8001864:	00000001 	.word	0x00000001
 8001868:	20000608 	.word	0x20000608
 800186c:	40012200 	.word	0x40012200

08001870 <HAL_ADC_MspInit>:

void HAL_ADC_MspInit(ADC_HandleTypeDef* adcHandle)
{

  GPIO_InitTypeDef GPIO_InitStruct = {0};
  if(adcHandle->Instance==ADC1)
 8001870:	4a68      	ldr	r2, [pc, #416]	@ (8001a14 <HAL_ADC_MspInit+0x1a4>)
 8001872:	6803      	ldr	r3, [r0, #0]
{
 8001874:	b570      	push	{r4, r5, r6, lr}
  if(adcHandle->Instance==ADC1)
 8001876:	4293      	cmp	r3, r2
{
 8001878:	b08e      	sub	sp, #56	@ 0x38
  GPIO_InitTypeDef GPIO_InitStruct = {0};
 800187a:	f04f 0400 	mov.w	r4, #0
{
 800187e:	4605      	mov	r5, r0
  GPIO_InitTypeDef GPIO_InitStruct = {0};
 8001880:	e9cd 4408 	strd	r4, r4, [sp, #32]
 8001884:	940a      	str	r4, [sp, #40]	@ 0x28
 8001886:	e9cd 440b 	strd	r4, r4, [sp, #44]	@ 0x2c
  if(adcHandle->Instance==ADC1)
 800188a:	d008      	beq.n	800189e <HAL_ADC_MspInit+0x2e>

  /* USER CODE BEGIN ADC1_MspInit 1 */

  /* USER CODE END ADC1_MspInit 1 */
  }
  else if(adcHandle->Instance==ADC2)
 800188c:	4a62      	ldr	r2, [pc, #392]	@ (8001a18 <HAL_ADC_MspInit+0x1a8>)
 800188e:	4293      	cmp	r3, r2
 8001890:	d03b      	beq.n	800190a <HAL_ADC_MspInit+0x9a>

  /* USER CODE BEGIN ADC2_MspInit 1 */

  /* USER CODE END ADC2_MspInit 1 */
  }
  else if(adcHandle->Instance==ADC3)
 8001892:	4a62      	ldr	r2, [pc, #392]	@ (8001a1c <HAL_ADC_MspInit+0x1ac>)
 8001894:	4293      	cmp	r3, r2
 8001896:	f000 8085 	beq.w	80019a4 <HAL_ADC_MspInit+0x134>

  /* USER CODE BEGIN ADC3_MspInit 1 */

  /* USER CODE END ADC3_MspInit 1 */
  }
}
 800189a:	b00e      	add	sp, #56	@ 0x38
 800189c:	bd70      	pop	{r4, r5, r6, pc}
    __HAL_RCC_ADC1_CLK_ENABLE();
 800189e:	4b60      	ldr	r3, [pc, #384]	@ (8001a20 <HAL_ADC_MspInit+0x1b0>)
    HAL_GPIO_Init(GPIOA, &GPIO_InitStruct);
 80018a0:	a908      	add	r1, sp, #32
    hdma_adc1.Instance = DMA2_Stream0;
 80018a2:	4e60      	ldr	r6, [pc, #384]	@ (8001a24 <HAL_ADC_MspInit+0x1b4>)
    __HAL_RCC_ADC1_CLK_ENABLE();
 80018a4:	6c5a      	ldr	r2, [r3, #68]	@ 0x44
 80018a6:	f442 7280 	orr.w	r2, r2, #256	@ 0x100
 80018aa:	645a      	str	r2, [r3, #68]	@ 0x44
 80018ac:	6c5a      	ldr	r2, [r3, #68]	@ 0x44
 80018ae:	f402 7280 	and.w	r2, r2, #256	@ 0x100
 80018b2:	9201      	str	r2, [sp, #4]
 80018b4:	9a01      	ldr	r2, [sp, #4]
    __HAL_RCC_GPIOA_CLK_ENABLE();
 80018b6:	6b1a      	ldr	r2, [r3, #48]	@ 0x30
 80018b8:	f042 0201 	orr.w	r2, r2, #1
 80018bc:	631a      	str	r2, [r3, #48]	@ 0x30
    GPIO_InitStruct.Pin = ia_L_Pin|ib_L_Pin|ic_L_Pin|VDC_L_Pin;
 80018be:	220f      	movs	r2, #15
    __HAL_RCC_GPIOA_CLK_ENABLE();
 80018c0:	6b1b      	ldr	r3, [r3, #48]	@ 0x30
 80018c2:	f003 0301 	and.w	r3, r3, #1
 80018c6:	9302      	str	r3, [sp, #8]
    GPIO_InitStruct.Pin = ia_L_Pin|ib_L_Pin|ic_L_Pin|VDC_L_Pin;
 80018c8:	2303      	movs	r3, #3
    __HAL_RCC_GPIOA_CLK_ENABLE();
 80018ca:	9802      	ldr	r0, [sp, #8]
    HAL_GPIO_Init(GPIOA, &GPIO_InitStruct);
 80018cc:	4856      	ldr	r0, [pc, #344]	@ (8001a28 <HAL_ADC_MspInit+0x1b8>)
    GPIO_InitStruct.Pin = ia_L_Pin|ib_L_Pin|ic_L_Pin|VDC_L_Pin;
 80018ce:	e9cd 2308 	strd	r2, r3, [sp, #32]
    HAL_GPIO_Init(GPIOA, &GPIO_InitStruct);
 80018d2:	f002 f815 	bl	8003900 <HAL_GPIO_Init>
    hdma_adc1.Instance = DMA2_Stream0;
 80018d6:	4a55      	ldr	r2, [pc, #340]	@ (8001a2c <HAL_ADC_MspInit+0x1bc>)
    hdma_adc1.Init.MemInc = DMA_MINC_ENABLE;
 80018d8:	f44f 6380 	mov.w	r3, #1024	@ 0x400
    if (HAL_DMA_Init(&hdma_adc1) != HAL_OK)
 80018dc:	4630      	mov	r0, r6
    hdma_adc1.Init.FIFOMode = DMA_FIFOMODE_DISABLE;
 80018de:	6274      	str	r4, [r6, #36]	@ 0x24
    hdma_adc1.Init.MemInc = DMA_MINC_ENABLE;
 80018e0:	6133      	str	r3, [r6, #16]
    hdma_adc1.Init.MemDataAlignment = DMA_MDATAALIGN_WORD;
 80018e2:	f44f 4380 	mov.w	r3, #16384	@ 0x4000
    hdma_adc1.Instance = DMA2_Stream0;
 80018e6:	e9c6 2400 	strd	r2, r4, [r6]
    hdma_adc1.Init.PeriphDataAlignment = DMA_PDATAALIGN_WORD;
 80018ea:	f44f 5280 	mov.w	r2, #4096	@ 0x1000
    hdma_adc1.Init.PeriphInc = DMA_PINC_DISABLE;
 80018ee:	e9c6 4402 	strd	r4, r4, [r6, #8]
    hdma_adc1.Init.Priority = DMA_PRIORITY_LOW;
 80018f2:	e9c6 4407 	strd	r4, r4, [r6, #28]
    hdma_adc1.Init.MemDataAlignment = DMA_MDATAALIGN_WORD;
 80018f6:	e9c6 2305 	strd	r2, r3, [r6, #20]
    if (HAL_DMA_Init(&hdma_adc1) != HAL_OK)
 80018fa:	f001 fe51 	bl	80035a0 <HAL_DMA_Init>
 80018fe:	2800      	cmp	r0, #0
 8001900:	d14d      	bne.n	800199e <HAL_ADC_MspInit+0x12e>
    __HAL_LINKDMA(adcHandle,DMA_Handle,hdma_adc3);
 8001902:	63ae      	str	r6, [r5, #56]	@ 0x38
 8001904:	63b5      	str	r5, [r6, #56]	@ 0x38
}
 8001906:	b00e      	add	sp, #56	@ 0x38
 8001908:	bd70      	pop	{r4, r5, r6, pc}
    __HAL_RCC_ADC2_CLK_ENABLE();
 800190a:	4b45      	ldr	r3, [pc, #276]	@ (8001a20 <HAL_ADC_MspInit+0x1b0>)
    HAL_GPIO_Init(GPIOA, &GPIO_InitStruct);
 800190c:	4846      	ldr	r0, [pc, #280]	@ (8001a28 <HAL_ADC_MspInit+0x1b8>)
    __HAL_RCC_ADC2_CLK_ENABLE();
 800190e:	6c5a      	ldr	r2, [r3, #68]	@ 0x44
    hdma_adc2.Instance = DMA2_Stream2;
 8001910:	4e47      	ldr	r6, [pc, #284]	@ (8001a30 <HAL_ADC_MspInit+0x1c0>)
    __HAL_RCC_ADC2_CLK_ENABLE();
 8001912:	f442 7200 	orr.w	r2, r2, #512	@ 0x200
 8001916:	645a      	str	r2, [r3, #68]	@ 0x44
 8001918:	6c5a      	ldr	r2, [r3, #68]	@ 0x44
 800191a:	f402 7200 	and.w	r2, r2, #512	@ 0x200
 800191e:	9203      	str	r2, [sp, #12]
 8001920:	9a03      	ldr	r2, [sp, #12]
    __HAL_RCC_GPIOA_CLK_ENABLE();
 8001922:	6b1a      	ldr	r2, [r3, #48]	@ 0x30
 8001924:	f042 0201 	orr.w	r2, r2, #1
 8001928:	631a      	str	r2, [r3, #48]	@ 0x30
 800192a:	6b1a      	ldr	r2, [r3, #48]	@ 0x30
 800192c:	f002 0201 	and.w	r2, r2, #1
 8001930:	9204      	str	r2, [sp, #16]
 8001932:	9a04      	ldr	r2, [sp, #16]
    __HAL_RCC_GPIOB_CLK_ENABLE();
 8001934:	6b1a      	ldr	r2, [r3, #48]	@ 0x30
 8001936:	f042 0202 	orr.w	r2, r2, #2
 800193a:	631a      	str	r2, [r3, #48]	@ 0x30
    GPIO_InitStruct.Pin = ia_R_Pin|ib_R_Pin;
 800193c:	22c0      	movs	r2, #192	@ 0xc0
    __HAL_RCC_GPIOB_CLK_ENABLE();
 800193e:	6b1b      	ldr	r3, [r3, #48]	@ 0x30
 8001940:	f003 0302 	and.w	r3, r3, #2
 8001944:	9305      	str	r3, [sp, #20]
    GPIO_InitStruct.Pin = ia_R_Pin|ib_R_Pin;
 8001946:	2303      	movs	r3, #3
    __HAL_RCC_GPIOB_CLK_ENABLE();
 8001948:	9905      	ldr	r1, [sp, #20]
    HAL_GPIO_Init(GPIOA, &GPIO_InitStruct);
 800194a:	a908      	add	r1, sp, #32
    GPIO_InitStruct.Pin = ia_R_Pin|ib_R_Pin;
 800194c:	e9cd 2308 	strd	r2, r3, [sp, #32]
    HAL_GPIO_Init(GPIOA, &GPIO_InitStruct);
 8001950:	f001 ffd6 	bl	8003900 <HAL_GPIO_Init>
    GPIO_InitStruct.Pin = ic_R_Pin|VDC_R_Pin;
 8001954:	2203      	movs	r2, #3
 8001956:	2303      	movs	r3, #3
    HAL_GPIO_Init(GPIOB, &GPIO_InitStruct);
 8001958:	4836      	ldr	r0, [pc, #216]	@ (8001a34 <HAL_ADC_MspInit+0x1c4>)
 800195a:	a908      	add	r1, sp, #32
    GPIO_InitStruct.Pull = GPIO_NOPULL;
 800195c:	940a      	str	r4, [sp, #40]	@ 0x28
    GPIO_InitStruct.Pin = ic_R_Pin|VDC_R_Pin;
 800195e:	e9cd 2308 	strd	r2, r3, [sp, #32]
    HAL_GPIO_Init(GPIOB, &GPIO_InitStruct);
 8001962:	f001 ffcd 	bl	8003900 <HAL_GPIO_Init>
    hdma_adc2.Instance = DMA2_Stream2;
 8001966:	4a34      	ldr	r2, [pc, #208]	@ (8001a38 <HAL_ADC_MspInit+0x1c8>)
    hdma_adc2.Init.Channel = DMA_CHANNEL_1;
 8001968:	f04f 7300 	mov.w	r3, #33554432	@ 0x2000000
    if (HAL_DMA_Init(&hdma_adc2) != HAL_OK)
 800196c:	4630      	mov	r0, r6
    hdma_adc2.Instance = DMA2_Stream2;
 800196e:	6032      	str	r2, [r6, #0]
    hdma_adc2.Init.MemInc = DMA_MINC_ENABLE;
 8001970:	f44f 6280 	mov.w	r2, #1024	@ 0x400
    hdma_adc2.Init.Channel = DMA_CHANNEL_1;
 8001974:	6073      	str	r3, [r6, #4]
    hdma_adc2.Init.PeriphDataAlignment = DMA_PDATAALIGN_WORD;
 8001976:	f44f 5380 	mov.w	r3, #4096	@ 0x1000
    hdma_adc2.Init.Direction = DMA_PERIPH_TO_MEMORY;
 800197a:	60b4      	str	r4, [r6, #8]
    hdma_adc2.Init.PeriphInc = DMA_PINC_DISABLE;
 800197c:	60f4      	str	r4, [r6, #12]
    hdma_adc2.Init.FIFOMode = DMA_FIFOMODE_DISABLE;
 800197e:	6274      	str	r4, [r6, #36]	@ 0x24
    hdma_adc2.Init.PeriphDataAlignment = DMA_PDATAALIGN_WORD;
 8001980:	e9c6 2304 	strd	r2, r3, [r6, #16]
    hdma_adc2.Init.Mode = DMA_CIRCULAR;
 8001984:	f44f 7380 	mov.w	r3, #256	@ 0x100
 8001988:	f44f 4280 	mov.w	r2, #16384	@ 0x4000
 800198c:	e9c6 2306 	strd	r2, r3, [r6, #24]
    hdma_adc2.Init.Priority = DMA_PRIORITY_HIGH;
 8001990:	f44f 3300 	mov.w	r3, #131072	@ 0x20000
 8001994:	6233      	str	r3, [r6, #32]
    if (HAL_DMA_Init(&hdma_adc2) != HAL_OK)
 8001996:	f001 fe03 	bl	80035a0 <HAL_DMA_Init>
 800199a:	2800      	cmp	r0, #0
 800199c:	d0b1      	beq.n	8001902 <HAL_ADC_MspInit+0x92>
      Error_Handler();
 800199e:	f000 fb79 	bl	8002094 <Error_Handler>
 80019a2:	e7ae      	b.n	8001902 <HAL_ADC_MspInit+0x92>
    __HAL_RCC_ADC3_CLK_ENABLE();
 80019a4:	4b1e      	ldr	r3, [pc, #120]	@ (8001a20 <HAL_ADC_MspInit+0x1b0>)
    HAL_GPIO_Init(GPIOC, &GPIO_InitStruct);
 80019a6:	a908      	add	r1, sp, #32
    hdma_adc3.Instance = DMA2_Stream1;
 80019a8:	4e24      	ldr	r6, [pc, #144]	@ (8001a3c <HAL_ADC_MspInit+0x1cc>)
    __HAL_RCC_ADC3_CLK_ENABLE();
 80019aa:	6c5a      	ldr	r2, [r3, #68]	@ 0x44
 80019ac:	f442 6280 	orr.w	r2, r2, #1024	@ 0x400
 80019b0:	645a      	str	r2, [r3, #68]	@ 0x44
 80019b2:	6c5a      	ldr	r2, [r3, #68]	@ 0x44
 80019b4:	f402 6280 	and.w	r2, r2, #1024	@ 0x400
 80019b8:	9206      	str	r2, [sp, #24]
 80019ba:	9a06      	ldr	r2, [sp, #24]
    __HAL_RCC_GPIOC_CLK_ENABLE();
 80019bc:	6b1a      	ldr	r2, [r3, #48]	@ 0x30
 80019be:	f042 0204 	orr.w	r2, r2, #4
 80019c2:	631a      	str	r2, [r3, #48]	@ 0x30
    GPIO_InitStruct.Pin = Tinv_L_Pin|Tinv_R_Pin|Tmot_L_Pin|Tmot_R_Pin;
 80019c4:	220f      	movs	r2, #15
    __HAL_RCC_GPIOC_CLK_ENABLE();
 80019c6:	6b1b      	ldr	r3, [r3, #48]	@ 0x30
 80019c8:	f003 0304 	and.w	r3, r3, #4
 80019cc:	9307      	str	r3, [sp, #28]
    GPIO_InitStruct.Pin = Tinv_L_Pin|Tinv_R_Pin|Tmot_L_Pin|Tmot_R_Pin;
 80019ce:	2303      	movs	r3, #3
    __HAL_RCC_GPIOC_CLK_ENABLE();
 80019d0:	9807      	ldr	r0, [sp, #28]
    HAL_GPIO_Init(GPIOC, &GPIO_InitStruct);
 80019d2:	481b      	ldr	r0, [pc, #108]	@ (8001a40 <HAL_ADC_MspInit+0x1d0>)
    GPIO_InitStruct.Pin = Tinv_L_Pin|Tinv_R_Pin|Tmot_L_Pin|Tmot_R_Pin;
 80019d4:	e9cd 2308 	strd	r2, r3, [sp, #32]
    HAL_GPIO_Init(GPIOC, &GPIO_InitStruct);
 80019d8:	f001 ff92 	bl	8003900 <HAL_GPIO_Init>
    hdma_adc3.Instance = DMA2_Stream1;
 80019dc:	4a19      	ldr	r2, [pc, #100]	@ (8001a44 <HAL_ADC_MspInit+0x1d4>)
    hdma_adc3.Init.Channel = DMA_CHANNEL_2;
 80019de:	f04f 6380 	mov.w	r3, #67108864	@ 0x4000000
    if (HAL_DMA_Init(&hdma_adc3) != HAL_OK)
 80019e2:	4630      	mov	r0, r6
    hdma_adc3.Instance = DMA2_Stream1;
 80019e4:	6032      	str	r2, [r6, #0]
    hdma_adc3.Init.MemInc = DMA_MINC_ENABLE;
 80019e6:	f44f 6280 	mov.w	r2, #1024	@ 0x400
    hdma_adc3.Init.Channel = DMA_CHANNEL_2;
 80019ea:	6073      	str	r3, [r6, #4]
    hdma_adc3.Init.PeriphDataAlignment = DMA_PDATAALIGN_WORD;
 80019ec:	f44f 5380 	mov.w	r3, #4096	@ 0x1000
    hdma_adc3.Init.MemInc = DMA_MINC_ENABLE;
 80019f0:	6132      	str	r2, [r6, #16]
    hdma_adc3.Init.Mode = DMA_CIRCULAR;
 80019f2:	f44f 4280 	mov.w	r2, #16384	@ 0x4000
    hdma_adc3.Init.PeriphDataAlignment = DMA_PDATAALIGN_WORD;
 80019f6:	6173      	str	r3, [r6, #20]
    hdma_adc3.Init.Mode = DMA_CIRCULAR;
 80019f8:	f44f 7380 	mov.w	r3, #256	@ 0x100
    hdma_adc3.Init.Direction = DMA_PERIPH_TO_MEMORY;
 80019fc:	60b4      	str	r4, [r6, #8]
    hdma_adc3.Init.PeriphInc = DMA_PINC_DISABLE;
 80019fe:	60f4      	str	r4, [r6, #12]
    hdma_adc3.Init.Priority = DMA_PRIORITY_LOW;
 8001a00:	6234      	str	r4, [r6, #32]
    hdma_adc3.Init.FIFOMode = DMA_FIFOMODE_DISABLE;
 8001a02:	6274      	str	r4, [r6, #36]	@ 0x24
    hdma_adc3.Init.Mode = DMA_CIRCULAR;
 8001a04:	e9c6 2306 	strd	r2, r3, [r6, #24]
    if (HAL_DMA_Init(&hdma_adc3) != HAL_OK)
 8001a08:	f001 fdca 	bl	80035a0 <HAL_DMA_Init>
 8001a0c:	2800      	cmp	r0, #0
 8001a0e:	f43f af78 	beq.w	8001902 <HAL_ADC_MspInit+0x92>
 8001a12:	e7c4      	b.n	800199e <HAL_ADC_MspInit+0x12e>
 8001a14:	40012000 	.word	0x40012000
 8001a18:	40012100 	.word	0x40012100
 8001a1c:	40012200 	.word	0x40012200
 8001a20:	40023800 	.word	0x40023800
 8001a24:	200005a8 	.word	0x200005a8
 8001a28:	40020000 	.word	0x40020000
 8001a2c:	40026410 	.word	0x40026410
 8001a30:	20000548 	.word	0x20000548
 8001a34:	40020400 	.word	0x40020400
 8001a38:	40026440 	.word	0x40026440
 8001a3c:	200004e8 	.word	0x200004e8
 8001a40:	40020800 	.word	0x40020800
 8001a44:	40026428 	.word	0x40026428

08001a48 <MX_CAN1_Init>:

CAN_HandleTypeDef hcan1;

/* CAN1 init function */
void MX_CAN1_Init(void)
{
 8001a48:	b510      	push	{r4, lr}
  /* USER CODE END CAN1_Init 0 */

  /* USER CODE BEGIN CAN1_Init 1 */

  /* USER CODE END CAN1_Init 1 */
  hcan1.Instance = CAN1;
 8001a4a:	480b      	ldr	r0, [pc, #44]	@ (8001a78 <MX_CAN1_Init+0x30>)
  hcan1.Init.Prescaler = 27;
  hcan1.Init.Mode = CAN_MODE_NORMAL;
 8001a4c:	2300      	movs	r3, #0
  hcan1.Instance = CAN1;
 8001a4e:	4c0b      	ldr	r4, [pc, #44]	@ (8001a7c <MX_CAN1_Init+0x34>)
  hcan1.Init.Prescaler = 27;
 8001a50:	211b      	movs	r1, #27
  hcan1.Init.SyncJumpWidth = CAN_SJW_1TQ;
  hcan1.Init.TimeSeg1 = CAN_BS1_2TQ;
 8001a52:	f44f 3280 	mov.w	r2, #65536	@ 0x10000
  hcan1.Init.Mode = CAN_MODE_NORMAL;
 8001a56:	6083      	str	r3, [r0, #8]
  hcan1.Init.TimeSeg2 = CAN_BS2_1TQ;
  hcan1.Init.TimeTriggeredMode = DISABLE;
  hcan1.Init.AutoBusOff = DISABLE;
  hcan1.Init.AutoWakeUp = DISABLE;
  hcan1.Init.AutoRetransmission = DISABLE;
  hcan1.Init.ReceiveFifoLocked = DISABLE;
 8001a58:	8383      	strh	r3, [r0, #28]
  hcan1.Init.Prescaler = 27;
 8001a5a:	e9c0 4100 	strd	r4, r1, [r0]
  hcan1.Init.TimeSeg1 = CAN_BS1_2TQ;
 8001a5e:	e9c0 3203 	strd	r3, r2, [r0, #12]
  hcan1.Init.TimeTriggeredMode = DISABLE;
 8001a62:	e9c0 3305 	strd	r3, r3, [r0, #20]
  hcan1.Init.TransmitFifoPriority = DISABLE;
  if (HAL_CAN_Init(&hcan1) != HAL_OK)
 8001a66:	f001 f9a9 	bl	8002dbc <HAL_CAN_Init>
 8001a6a:	b900      	cbnz	r0, 8001a6e <MX_CAN1_Init+0x26>
  }
  /* USER CODE BEGIN CAN1_Init 2 */

  /* USER CODE END CAN1_Init 2 */

}
 8001a6c:	bd10      	pop	{r4, pc}
 8001a6e:	e8bd 4010 	ldmia.w	sp!, {r4, lr}
    Error_Handler();
 8001a72:	f000 bb0f 	b.w	8002094 <Error_Handler>
 8001a76:	bf00      	nop
 8001a78:	200006e0 	.word	0x200006e0
 8001a7c:	40006400 	.word	0x40006400

08001a80 <HAL_CAN_MspInit>:

void HAL_CAN_MspInit(CAN_HandleTypeDef* canHandle)
{

  GPIO_InitTypeDef GPIO_InitStruct = {0};
  if(canHandle->Instance==CAN1)
 8001a80:	4b1f      	ldr	r3, [pc, #124]	@ (8001b00 <HAL_CAN_MspInit+0x80>)
 8001a82:	6802      	ldr	r2, [r0, #0]
{
 8001a84:	b510      	push	{r4, lr}
  if(canHandle->Instance==CAN1)
 8001a86:	429a      	cmp	r2, r3
{
 8001a88:	b088      	sub	sp, #32
  GPIO_InitTypeDef GPIO_InitStruct = {0};
 8001a8a:	f04f 0400 	mov.w	r4, #0
 8001a8e:	e9cd 4402 	strd	r4, r4, [sp, #8]
 8001a92:	e9cd 4404 	strd	r4, r4, [sp, #16]
 8001a96:	9406      	str	r4, [sp, #24]
  if(canHandle->Instance==CAN1)
 8001a98:	d001      	beq.n	8001a9e <HAL_CAN_MspInit+0x1e>
    HAL_NVIC_EnableIRQ(CAN1_RX0_IRQn);
  /* USER CODE BEGIN CAN1_MspInit 1 */

  /* USER CODE END CAN1_MspInit 1 */
  }
}
 8001a9a:	b008      	add	sp, #32
 8001a9c:	bd10      	pop	{r4, pc}
    __HAL_RCC_CAN1_CLK_ENABLE();
 8001a9e:	f503 33ea 	add.w	r3, r3, #119808	@ 0x1d400
    HAL_GPIO_Init(GPIOD, &GPIO_InitStruct);
 8001aa2:	a902      	add	r1, sp, #8
 8001aa4:	4817      	ldr	r0, [pc, #92]	@ (8001b04 <HAL_CAN_MspInit+0x84>)
    __HAL_RCC_CAN1_CLK_ENABLE();
 8001aa6:	6c1a      	ldr	r2, [r3, #64]	@ 0x40
 8001aa8:	f042 7200 	orr.w	r2, r2, #33554432	@ 0x2000000
 8001aac:	641a      	str	r2, [r3, #64]	@ 0x40
 8001aae:	6c1a      	ldr	r2, [r3, #64]	@ 0x40
 8001ab0:	f002 7200 	and.w	r2, r2, #33554432	@ 0x2000000
 8001ab4:	9200      	str	r2, [sp, #0]
 8001ab6:	9a00      	ldr	r2, [sp, #0]
    __HAL_RCC_GPIOD_CLK_ENABLE();
 8001ab8:	6b1a      	ldr	r2, [r3, #48]	@ 0x30
 8001aba:	f042 0208 	orr.w	r2, r2, #8
 8001abe:	631a      	str	r2, [r3, #48]	@ 0x30
    GPIO_InitStruct.Speed = GPIO_SPEED_FREQ_VERY_HIGH;
 8001ac0:	2203      	movs	r2, #3
    __HAL_RCC_GPIOD_CLK_ENABLE();
 8001ac2:	6b1b      	ldr	r3, [r3, #48]	@ 0x30
 8001ac4:	f003 0308 	and.w	r3, r3, #8
    GPIO_InitStruct.Pin = GPIO_PIN_0|GPIO_PIN_1;
 8001ac8:	ed9f 7b0b 	vldr	d7, [pc, #44]	@ 8001af8 <HAL_CAN_MspInit+0x78>
    __HAL_RCC_GPIOD_CLK_ENABLE();
 8001acc:	9301      	str	r3, [sp, #4]
 8001ace:	9b01      	ldr	r3, [sp, #4]
    GPIO_InitStruct.Speed = GPIO_SPEED_FREQ_VERY_HIGH;
 8001ad0:	2309      	movs	r3, #9
    GPIO_InitStruct.Pin = GPIO_PIN_0|GPIO_PIN_1;
 8001ad2:	ed8d 7b02 	vstr	d7, [sp, #8]
    GPIO_InitStruct.Speed = GPIO_SPEED_FREQ_VERY_HIGH;
 8001ad6:	e9cd 2305 	strd	r2, r3, [sp, #20]
    HAL_GPIO_Init(GPIOD, &GPIO_InitStruct);
 8001ada:	f001 ff11 	bl	8003900 <HAL_GPIO_Init>
    HAL_NVIC_SetPriority(CAN1_RX0_IRQn, 0, 0);
 8001ade:	4622      	mov	r2, r4
 8001ae0:	4621      	mov	r1, r4
 8001ae2:	2014      	movs	r0, #20
 8001ae4:	f001 fc84 	bl	80033f0 <HAL_NVIC_SetPriority>
    HAL_NVIC_EnableIRQ(CAN1_RX0_IRQn);
 8001ae8:	2014      	movs	r0, #20
 8001aea:	f001 fcbd 	bl	8003468 <HAL_NVIC_EnableIRQ>
}
 8001aee:	b008      	add	sp, #32
 8001af0:	bd10      	pop	{r4, pc}
 8001af2:	bf00      	nop
 8001af4:	f3af 8000 	nop.w
 8001af8:	00000003 	.word	0x00000003
 8001afc:	00000002 	.word	0x00000002
 8001b00:	40006400 	.word	0x40006400
 8001b04:	40020c00 	.word	0x40020c00

08001b08 <MX_DAC_Init>:

DAC_HandleTypeDef hdac;

/* DAC init function */
void MX_DAC_Init(void)
{
 8001b08:	b500      	push	{lr}

  /* USER CODE BEGIN DAC_Init 0 */

  /* USER CODE END DAC_Init 0 */

  DAC_ChannelConfTypeDef sConfig = {0};
 8001b0a:	2300      	movs	r3, #0
{
 8001b0c:	b083      	sub	sp, #12

  /* USER CODE END DAC_Init 1 */

  /** DAC Initialization
  */
  hdac.Instance = DAC;
 8001b0e:	4810      	ldr	r0, [pc, #64]	@ (8001b50 <MX_DAC_Init+0x48>)
 8001b10:	4a10      	ldr	r2, [pc, #64]	@ (8001b54 <MX_DAC_Init+0x4c>)
  DAC_ChannelConfTypeDef sConfig = {0};
 8001b12:	9300      	str	r3, [sp, #0]
  hdac.Instance = DAC;
 8001b14:	6002      	str	r2, [r0, #0]
  DAC_ChannelConfTypeDef sConfig = {0};
 8001b16:	9301      	str	r3, [sp, #4]
  if (HAL_DAC_Init(&hdac) != HAL_OK)
 8001b18:	f001 fcca 	bl	80034b0 <HAL_DAC_Init>
 8001b1c:	b960      	cbnz	r0, 8001b38 <MX_DAC_Init+0x30>

  /** DAC channel OUT1 config
  */
  sConfig.DAC_Trigger = DAC_TRIGGER_NONE;
  sConfig.DAC_OutputBuffer = DAC_OUTPUTBUFFER_ENABLE;
  if (HAL_DAC_ConfigChannel(&hdac, &sConfig, DAC_CHANNEL_1) != HAL_OK)
 8001b1e:	2200      	movs	r2, #0
 8001b20:	4669      	mov	r1, sp
 8001b22:	480b      	ldr	r0, [pc, #44]	@ (8001b50 <MX_DAC_Init+0x48>)
  sConfig.DAC_Trigger = DAC_TRIGGER_NONE;
 8001b24:	ed9f 7b08 	vldr	d7, [pc, #32]	@ 8001b48 <MX_DAC_Init+0x40>
 8001b28:	ed8d 7b00 	vstr	d7, [sp]
  if (HAL_DAC_ConfigChannel(&hdac, &sConfig, DAC_CHANNEL_1) != HAL_OK)
 8001b2c:	f001 fd0c 	bl	8003548 <HAL_DAC_ConfigChannel>
 8001b30:	b928      	cbnz	r0, 8001b3e <MX_DAC_Init+0x36>
  }
  /* USER CODE BEGIN DAC_Init 2 */

  /* USER CODE END DAC_Init 2 */

}
 8001b32:	b003      	add	sp, #12
 8001b34:	f85d fb04 	ldr.w	pc, [sp], #4
    Error_Handler();
 8001b38:	f000 faac 	bl	8002094 <Error_Handler>
 8001b3c:	e7ef      	b.n	8001b1e <MX_DAC_Init+0x16>
    Error_Handler();
 8001b3e:	f000 faa9 	bl	8002094 <Error_Handler>
}
 8001b42:	b003      	add	sp, #12
 8001b44:	f85d fb04 	ldr.w	pc, [sp], #4
	...
 8001b50:	20000708 	.word	0x20000708
 8001b54:	40007400 	.word	0x40007400

08001b58 <HAL_DAC_MspInit>:

void HAL_DAC_MspInit(DAC_HandleTypeDef* dacHandle)
{

  GPIO_InitTypeDef GPIO_InitStruct = {0};
  if(dacHandle->Instance==DAC)
 8001b58:	4b1a      	ldr	r3, [pc, #104]	@ (8001bc4 <HAL_DAC_MspInit+0x6c>)
 8001b5a:	6802      	ldr	r2, [r0, #0]
{
 8001b5c:	b530      	push	{r4, r5, lr}
  if(dacHandle->Instance==DAC)
 8001b5e:	429a      	cmp	r2, r3
{
 8001b60:	b089      	sub	sp, #36	@ 0x24
  GPIO_InitTypeDef GPIO_InitStruct = {0};
 8001b62:	f04f 0400 	mov.w	r4, #0
 8001b66:	e9cd 4402 	strd	r4, r4, [sp, #8]
 8001b6a:	e9cd 4404 	strd	r4, r4, [sp, #16]
 8001b6e:	9406      	str	r4, [sp, #24]
  if(dacHandle->Instance==DAC)
 8001b70:	d001      	beq.n	8001b76 <HAL_DAC_MspInit+0x1e>
    HAL_NVIC_EnableIRQ(TIM6_DAC_IRQn);
  /* USER CODE BEGIN DAC_MspInit 1 */

  /* USER CODE END DAC_MspInit 1 */
  }
}
 8001b72:	b009      	add	sp, #36	@ 0x24
 8001b74:	bd30      	pop	{r4, r5, pc}
    __HAL_RCC_DAC_CLK_ENABLE();
 8001b76:	f503 33e2 	add.w	r3, r3, #115712	@ 0x1c400
    HAL_GPIO_Init(DAC_GPIO_Port, &GPIO_InitStruct);
 8001b7a:	a902      	add	r1, sp, #8
 8001b7c:	4812      	ldr	r0, [pc, #72]	@ (8001bc8 <HAL_DAC_MspInit+0x70>)
    __HAL_RCC_DAC_CLK_ENABLE();
 8001b7e:	6c1a      	ldr	r2, [r3, #64]	@ 0x40
 8001b80:	f042 5200 	orr.w	r2, r2, #536870912	@ 0x20000000
 8001b84:	641a      	str	r2, [r3, #64]	@ 0x40
 8001b86:	6c1a      	ldr	r2, [r3, #64]	@ 0x40
 8001b88:	f002 5200 	and.w	r2, r2, #536870912	@ 0x20000000
 8001b8c:	9200      	str	r2, [sp, #0]
 8001b8e:	9a00      	ldr	r2, [sp, #0]
    __HAL_RCC_GPIOA_CLK_ENABLE();
 8001b90:	6b1a      	ldr	r2, [r3, #48]	@ 0x30
 8001b92:	f042 0201 	orr.w	r2, r2, #1
 8001b96:	631a      	str	r2, [r3, #48]	@ 0x30
    GPIO_InitStruct.Pin = DAC_Pin;
 8001b98:	2210      	movs	r2, #16
    __HAL_RCC_GPIOA_CLK_ENABLE();
 8001b9a:	6b1b      	ldr	r3, [r3, #48]	@ 0x30
 8001b9c:	f003 0301 	and.w	r3, r3, #1
 8001ba0:	9301      	str	r3, [sp, #4]
    GPIO_InitStruct.Pin = DAC_Pin;
 8001ba2:	2303      	movs	r3, #3
    __HAL_RCC_GPIOA_CLK_ENABLE();
 8001ba4:	9d01      	ldr	r5, [sp, #4]
    GPIO_InitStruct.Pin = DAC_Pin;
 8001ba6:	e9cd 2302 	strd	r2, r3, [sp, #8]
    HAL_GPIO_Init(DAC_GPIO_Port, &GPIO_InitStruct);
 8001baa:	f001 fea9 	bl	8003900 <HAL_GPIO_Init>
    HAL_NVIC_SetPriority(TIM6_DAC_IRQn, 0, 0);
 8001bae:	4622      	mov	r2, r4
 8001bb0:	4621      	mov	r1, r4
 8001bb2:	2036      	movs	r0, #54	@ 0x36
 8001bb4:	f001 fc1c 	bl	80033f0 <HAL_NVIC_SetPriority>
    HAL_NVIC_EnableIRQ(TIM6_DAC_IRQn);
 8001bb8:	2036      	movs	r0, #54	@ 0x36
 8001bba:	f001 fc55 	bl	8003468 <HAL_NVIC_EnableIRQ>
}
 8001bbe:	b009      	add	sp, #36	@ 0x24
 8001bc0:	bd30      	pop	{r4, r5, pc}
 8001bc2:	bf00      	nop
 8001bc4:	40007400 	.word	0x40007400
 8001bc8:	40020000 	.word	0x40020000

08001bcc <MX_DMA_Init>:
  */
void MX_DMA_Init(void)
{

  /* DMA controller clock enable */
  __HAL_RCC_DMA2_CLK_ENABLE();
 8001bcc:	4b13      	ldr	r3, [pc, #76]	@ (8001c1c <MX_DMA_Init+0x50>)

  /* DMA interrupt init */
  /* DMA2_Stream0_IRQn interrupt configuration */
  HAL_NVIC_SetPriority(DMA2_Stream0_IRQn, 0, 0);
 8001bce:	2200      	movs	r2, #0
 8001bd0:	2038      	movs	r0, #56	@ 0x38
 8001bd2:	4611      	mov	r1, r2
{
 8001bd4:	b510      	push	{r4, lr}
  __HAL_RCC_DMA2_CLK_ENABLE();
 8001bd6:	6b1c      	ldr	r4, [r3, #48]	@ 0x30
{
 8001bd8:	b082      	sub	sp, #8
  __HAL_RCC_DMA2_CLK_ENABLE();
 8001bda:	f444 0480 	orr.w	r4, r4, #4194304	@ 0x400000
 8001bde:	631c      	str	r4, [r3, #48]	@ 0x30
 8001be0:	6b1b      	ldr	r3, [r3, #48]	@ 0x30
 8001be2:	f403 0380 	and.w	r3, r3, #4194304	@ 0x400000
 8001be6:	9301      	str	r3, [sp, #4]
 8001be8:	9b01      	ldr	r3, [sp, #4]
  HAL_NVIC_SetPriority(DMA2_Stream0_IRQn, 0, 0);
 8001bea:	f001 fc01 	bl	80033f0 <HAL_NVIC_SetPriority>
  HAL_NVIC_EnableIRQ(DMA2_Stream0_IRQn);
 8001bee:	2038      	movs	r0, #56	@ 0x38
 8001bf0:	f001 fc3a 	bl	8003468 <HAL_NVIC_EnableIRQ>
  /* DMA2_Stream1_IRQn interrupt configuration */
  HAL_NVIC_SetPriority(DMA2_Stream1_IRQn, 0, 0);
 8001bf4:	2200      	movs	r2, #0
 8001bf6:	2039      	movs	r0, #57	@ 0x39
 8001bf8:	4611      	mov	r1, r2
 8001bfa:	f001 fbf9 	bl	80033f0 <HAL_NVIC_SetPriority>
  HAL_NVIC_EnableIRQ(DMA2_Stream1_IRQn);
 8001bfe:	2039      	movs	r0, #57	@ 0x39
 8001c00:	f001 fc32 	bl	8003468 <HAL_NVIC_EnableIRQ>
  /* DMA2_Stream2_IRQn interrupt configuration */
  HAL_NVIC_SetPriority(DMA2_Stream2_IRQn, 0, 0);
 8001c04:	2200      	movs	r2, #0
 8001c06:	203a      	movs	r0, #58	@ 0x3a
 8001c08:	4611      	mov	r1, r2
 8001c0a:	f001 fbf1 	bl	80033f0 <HAL_NVIC_SetPriority>
  HAL_NVIC_EnableIRQ(DMA2_Stream2_IRQn);
 8001c0e:	203a      	movs	r0, #58	@ 0x3a

}
 8001c10:	b002      	add	sp, #8
 8001c12:	e8bd 4010 	ldmia.w	sp!, {r4, lr}
  HAL_NVIC_EnableIRQ(DMA2_Stream2_IRQn);
 8001c16:	f001 bc27 	b.w	8003468 <HAL_NVIC_EnableIRQ>
 8001c1a:	bf00      	nop
 8001c1c:	40023800 	.word	0x40023800

08001c20 <MX_GPIO_Init>:
     PA10   ------> USB_OTG_FS_ID
     PA11   ------> USB_OTG_FS_DM
     PA12   ------> USB_OTG_FS_DP
*/
void MX_GPIO_Init(void)
{
 8001c20:	e92d 4ff0 	stmdb	sp!, {r4, r5, r6, r7, r8, r9, sl, fp, lr}

  GPIO_InitTypeDef GPIO_InitStruct = {0};

  /* GPIO Ports Clock Enable */
  __HAL_RCC_GPIOH_CLK_ENABLE();
 8001c24:	4b6d      	ldr	r3, [pc, #436]	@ (8001ddc <MX_GPIO_Init+0x1bc>)
{
 8001c26:	b08d      	sub	sp, #52	@ 0x34
  GPIO_InitTypeDef GPIO_InitStruct = {0};
 8001c28:	2400      	movs	r4, #0
  __HAL_RCC_GPIOB_CLK_ENABLE();
  __HAL_RCC_GPIOE_CLK_ENABLE();
  __HAL_RCC_GPIOD_CLK_ENABLE();

  /*Configure GPIO pin Output Level */
  HAL_GPIO_WritePin(ENABLE_R_GPIO_Port, ENABLE_R_Pin, GPIO_PIN_RESET);
 8001c2a:	2104      	movs	r1, #4
 8001c2c:	f8df 81b8 	ldr.w	r8, [pc, #440]	@ 8001de8 <MX_GPIO_Init+0x1c8>
  GPIO_InitStruct.Pull = GPIO_NOPULL;
  HAL_GPIO_Init(SC_det_GPIO_Port, &GPIO_InitStruct);

  /*Configure GPIO pin : PtPin */
  GPIO_InitStruct.Pin = ENABLE_R_Pin;
  GPIO_InitStruct.Mode = GPIO_MODE_OUTPUT_PP;
 8001c30:	2601      	movs	r6, #1
  GPIO_InitTypeDef GPIO_InitStruct = {0};
 8001c32:	940a      	str	r4, [sp, #40]	@ 0x28
  GPIO_InitStruct.Pull = GPIO_NOPULL;
  HAL_GPIO_Init(GPIOA, &GPIO_InitStruct);

  /*Configure GPIO pins : PA10 PA11 PA12 */
  GPIO_InitStruct.Pin = GPIO_PIN_10|GPIO_PIN_11|GPIO_PIN_12;
  GPIO_InitStruct.Mode = GPIO_MODE_AF_PP;
 8001c34:	f04f 0a02 	mov.w	sl, #2
  HAL_GPIO_WritePin(ENABLE_L_GPIO_Port, ENABLE_L_Pin, GPIO_PIN_RESET);
 8001c38:	f8df 91b0 	ldr.w	r9, [pc, #432]	@ 8001dec <MX_GPIO_Init+0x1cc>
  HAL_GPIO_WritePin(ENABLE_R_GPIO_Port, ENABLE_R_Pin, GPIO_PIN_RESET);
 8001c3c:	4640      	mov	r0, r8
  HAL_GPIO_WritePin(GPIOD, LED_LEFT_Pin|LED_RIGHT_Pin|LED_ERR_Pin, GPIO_PIN_RESET);
 8001c3e:	4d68      	ldr	r5, [pc, #416]	@ (8001de0 <MX_GPIO_Init+0x1c0>)
  HAL_GPIO_Init(SC_det_GPIO_Port, &GPIO_InitStruct);
 8001c40:	f8df b1ac 	ldr.w	fp, [pc, #428]	@ 8001df0 <MX_GPIO_Init+0x1d0>
  HAL_GPIO_Init(TRIP_L_GPIO_Port, &GPIO_InitStruct);
 8001c44:	4f67      	ldr	r7, [pc, #412]	@ (8001de4 <MX_GPIO_Init+0x1c4>)
  GPIO_InitTypeDef GPIO_InitStruct = {0};
 8001c46:	e9cd 4406 	strd	r4, r4, [sp, #24]
 8001c4a:	e9cd 4408 	strd	r4, r4, [sp, #32]
  __HAL_RCC_GPIOH_CLK_ENABLE();
 8001c4e:	6b1a      	ldr	r2, [r3, #48]	@ 0x30
 8001c50:	f042 0280 	orr.w	r2, r2, #128	@ 0x80
 8001c54:	631a      	str	r2, [r3, #48]	@ 0x30
 8001c56:	6b1a      	ldr	r2, [r3, #48]	@ 0x30
 8001c58:	f002 0280 	and.w	r2, r2, #128	@ 0x80
 8001c5c:	9200      	str	r2, [sp, #0]
 8001c5e:	9a00      	ldr	r2, [sp, #0]
  __HAL_RCC_GPIOC_CLK_ENABLE();
 8001c60:	6b1a      	ldr	r2, [r3, #48]	@ 0x30
 8001c62:	430a      	orrs	r2, r1
 8001c64:	631a      	str	r2, [r3, #48]	@ 0x30
 8001c66:	6b1a      	ldr	r2, [r3, #48]	@ 0x30
 8001c68:	400a      	ands	r2, r1
 8001c6a:	9201      	str	r2, [sp, #4]
 8001c6c:	9a01      	ldr	r2, [sp, #4]
  __HAL_RCC_GPIOA_CLK_ENABLE();
 8001c6e:	6b1a      	ldr	r2, [r3, #48]	@ 0x30
 8001c70:	f042 0201 	orr.w	r2, r2, #1
 8001c74:	631a      	str	r2, [r3, #48]	@ 0x30
 8001c76:	6b1a      	ldr	r2, [r3, #48]	@ 0x30
 8001c78:	f002 0201 	and.w	r2, r2, #1
 8001c7c:	9202      	str	r2, [sp, #8]
 8001c7e:	9a02      	ldr	r2, [sp, #8]
  __HAL_RCC_GPIOB_CLK_ENABLE();
 8001c80:	6b1a      	ldr	r2, [r3, #48]	@ 0x30
 8001c82:	f042 0202 	orr.w	r2, r2, #2
 8001c86:	631a      	str	r2, [r3, #48]	@ 0x30
 8001c88:	6b1a      	ldr	r2, [r3, #48]	@ 0x30
 8001c8a:	f002 0202 	and.w	r2, r2, #2
 8001c8e:	9203      	str	r2, [sp, #12]
 8001c90:	9a03      	ldr	r2, [sp, #12]
  __HAL_RCC_GPIOE_CLK_ENABLE();
 8001c92:	6b1a      	ldr	r2, [r3, #48]	@ 0x30
 8001c94:	f042 0210 	orr.w	r2, r2, #16
 8001c98:	631a      	str	r2, [r3, #48]	@ 0x30
 8001c9a:	6b1a      	ldr	r2, [r3, #48]	@ 0x30
 8001c9c:	f002 0210 	and.w	r2, r2, #16
 8001ca0:	9204      	str	r2, [sp, #16]
 8001ca2:	9a04      	ldr	r2, [sp, #16]
  __HAL_RCC_GPIOD_CLK_ENABLE();
 8001ca4:	6b1a      	ldr	r2, [r3, #48]	@ 0x30
 8001ca6:	f042 0208 	orr.w	r2, r2, #8
 8001caa:	631a      	str	r2, [r3, #48]	@ 0x30
  HAL_GPIO_WritePin(ENABLE_R_GPIO_Port, ENABLE_R_Pin, GPIO_PIN_RESET);
 8001cac:	4622      	mov	r2, r4
  __HAL_RCC_GPIOD_CLK_ENABLE();
 8001cae:	6b1b      	ldr	r3, [r3, #48]	@ 0x30
 8001cb0:	f003 0308 	and.w	r3, r3, #8
 8001cb4:	9305      	str	r3, [sp, #20]
 8001cb6:	9b05      	ldr	r3, [sp, #20]
  HAL_GPIO_WritePin(ENABLE_R_GPIO_Port, ENABLE_R_Pin, GPIO_PIN_RESET);
 8001cb8:	f001 ff62 	bl	8003b80 <HAL_GPIO_WritePin>
  HAL_GPIO_WritePin(ENABLE_L_GPIO_Port, ENABLE_L_Pin, GPIO_PIN_RESET);
 8001cbc:	4622      	mov	r2, r4
 8001cbe:	4648      	mov	r0, r9
 8001cc0:	2180      	movs	r1, #128	@ 0x80
 8001cc2:	f001 ff5d 	bl	8003b80 <HAL_GPIO_WritePin>
  HAL_GPIO_WritePin(GPIOD, LED_LEFT_Pin|LED_RIGHT_Pin|LED_ERR_Pin, GPIO_PIN_RESET);
 8001cc6:	4622      	mov	r2, r4
 8001cc8:	4628      	mov	r0, r5
 8001cca:	2170      	movs	r1, #112	@ 0x70
 8001ccc:	f001 ff58 	bl	8003b80 <HAL_GPIO_WritePin>
  GPIO_InitStruct.Pin = SC_det_Pin;
 8001cd0:	2210      	movs	r2, #16
 8001cd2:	2300      	movs	r3, #0
  HAL_GPIO_Init(SC_det_GPIO_Port, &GPIO_InitStruct);
 8001cd4:	a906      	add	r1, sp, #24
 8001cd6:	4658      	mov	r0, fp
  GPIO_InitStruct.Pull = GPIO_NOPULL;
 8001cd8:	9408      	str	r4, [sp, #32]
  GPIO_InitStruct.Pin = SC_det_Pin;
 8001cda:	e9cd 2306 	strd	r2, r3, [sp, #24]
  HAL_GPIO_Init(SC_det_GPIO_Port, &GPIO_InitStruct);
 8001cde:	f001 fe0f 	bl	8003900 <HAL_GPIO_Init>
  GPIO_InitStruct.Pin = ENABLE_R_Pin;
 8001ce2:	2304      	movs	r3, #4
  HAL_GPIO_Init(ENABLE_R_GPIO_Port, &GPIO_InitStruct);
 8001ce4:	a906      	add	r1, sp, #24
 8001ce6:	4640      	mov	r0, r8
  GPIO_InitStruct.Pin = ENABLE_R_Pin;
 8001ce8:	9306      	str	r3, [sp, #24]
  GPIO_InitStruct.Speed = GPIO_SPEED_FREQ_LOW;
 8001cea:	9409      	str	r4, [sp, #36]	@ 0x24
  GPIO_InitStruct.Pull = GPIO_NOPULL;
 8001cec:	e9cd 6407 	strd	r6, r4, [sp, #28]
  HAL_GPIO_Init(ENABLE_R_GPIO_Port, &GPIO_InitStruct);
 8001cf0:	f001 fe06 	bl	8003900 <HAL_GPIO_Init>
  GPIO_InitStruct.Pin = ENABLE_L_Pin;
 8001cf4:	2380      	movs	r3, #128	@ 0x80
  HAL_GPIO_Init(ENABLE_L_GPIO_Port, &GPIO_InitStruct);
 8001cf6:	a906      	add	r1, sp, #24
 8001cf8:	4648      	mov	r0, r9
  GPIO_InitStruct.Pin = ENABLE_L_Pin;
 8001cfa:	9306      	str	r3, [sp, #24]
  GPIO_InitStruct.Speed = GPIO_SPEED_FREQ_LOW;
 8001cfc:	9409      	str	r4, [sp, #36]	@ 0x24
  GPIO_InitStruct.Pull = GPIO_NOPULL;
 8001cfe:	e9cd 6407 	strd	r6, r4, [sp, #28]
  HAL_GPIO_Init(ENABLE_L_GPIO_Port, &GPIO_InitStruct);
 8001d02:	f001 fdfd 	bl	8003900 <HAL_GPIO_Init>
  GPIO_InitStruct.Pin = WRN_L_Pin|WRN_R_Pin;
 8001d06:	f44f 4240 	mov.w	r2, #49152	@ 0xc000
 8001d0a:	2300      	movs	r3, #0
  HAL_GPIO_Init(GPIOE, &GPIO_InitStruct);
 8001d0c:	4648      	mov	r0, r9
 8001d0e:	a906      	add	r1, sp, #24
  GPIO_InitStruct.Pull = GPIO_NOPULL;
 8001d10:	9408      	str	r4, [sp, #32]
  GPIO_InitStruct.Pin = WRN_L_Pin|WRN_R_Pin;
 8001d12:	e9cd 2306 	strd	r2, r3, [sp, #24]
  HAL_GPIO_Init(GPIOE, &GPIO_InitStruct);
 8001d16:	f001 fdf3 	bl	8003900 <HAL_GPIO_Init>
  GPIO_InitStruct.Pin = Z_R_Pin;
 8001d1a:	f44f 6200 	mov.w	r2, #2048	@ 0x800
 8001d1e:	f44f 1388 	mov.w	r3, #1114112	@ 0x110000
  HAL_GPIO_Init(Z_R_GPIO_Port, &GPIO_InitStruct);
 8001d22:	4640      	mov	r0, r8
 8001d24:	a906      	add	r1, sp, #24
  GPIO_InitStruct.Pull = GPIO_NOPULL;
 8001d26:	9408      	str	r4, [sp, #32]
  GPIO_InitStruct.Pin = Z_R_Pin;
 8001d28:	e9cd 2306 	strd	r2, r3, [sp, #24]
  HAL_GPIO_Init(Z_R_GPIO_Port, &GPIO_InitStruct);
 8001d2c:	f001 fde8 	bl	8003900 <HAL_GPIO_Init>
  GPIO_InitStruct.Pin = Z_L_Pin;
 8001d30:	f44f 4200 	mov.w	r2, #32768	@ 0x8000
 8001d34:	f44f 1388 	mov.w	r3, #1114112	@ 0x110000
  HAL_GPIO_Init(Z_L_GPIO_Port, &GPIO_InitStruct);
 8001d38:	a906      	add	r1, sp, #24
 8001d3a:	4628      	mov	r0, r5
  GPIO_InitStruct.Pull = GPIO_NOPULL;
 8001d3c:	9408      	str	r4, [sp, #32]
  GPIO_InitStruct.Pin = Z_L_Pin;
 8001d3e:	e9cd 2306 	strd	r2, r3, [sp, #24]
  HAL_GPIO_Init(Z_L_GPIO_Port, &GPIO_InitStruct);
 8001d42:	f001 fddd 	bl	8003900 <HAL_GPIO_Init>
  GPIO_InitStruct.Pin = TRIP_R_Pin;
 8001d46:	f44f 7200 	mov.w	r2, #512	@ 0x200
 8001d4a:	f44f 1388 	mov.w	r3, #1114112	@ 0x110000
  HAL_GPIO_Init(TRIP_R_GPIO_Port, &GPIO_InitStruct);
 8001d4e:	4658      	mov	r0, fp
 8001d50:	a906      	add	r1, sp, #24
  GPIO_InitStruct.Pull = GPIO_NOPULL;
 8001d52:	9408      	str	r4, [sp, #32]
  GPIO_InitStruct.Pin = TRIP_R_Pin;
 8001d54:	e9cd 2306 	strd	r2, r3, [sp, #24]
  HAL_GPIO_Init(TRIP_R_GPIO_Port, &GPIO_InitStruct);
 8001d58:	f001 fdd2 	bl	8003900 <HAL_GPIO_Init>
  GPIO_InitStruct.Pin = TRIP_L_Pin;
 8001d5c:	f44f 7280 	mov.w	r2, #256	@ 0x100
 8001d60:	f44f 1388 	mov.w	r3, #1114112	@ 0x110000
  HAL_GPIO_Init(TRIP_L_GPIO_Port, &GPIO_InitStruct);
 8001d64:	a906      	add	r1, sp, #24
 8001d66:	4638      	mov	r0, r7
  GPIO_InitStruct.Pull = GPIO_NOPULL;
 8001d68:	9408      	str	r4, [sp, #32]
  GPIO_InitStruct.Pin = TRIP_L_Pin;
 8001d6a:	e9cd 2306 	strd	r2, r3, [sp, #24]
  HAL_GPIO_Init(TRIP_L_GPIO_Port, &GPIO_InitStruct);
 8001d6e:	f001 fdc7 	bl	8003900 <HAL_GPIO_Init>
  GPIO_InitStruct.Pin = GPIO_PIN_9;
 8001d72:	f44f 7200 	mov.w	r2, #512	@ 0x200
 8001d76:	2300      	movs	r3, #0
  HAL_GPIO_Init(GPIOA, &GPIO_InitStruct);
 8001d78:	a906      	add	r1, sp, #24
 8001d7a:	4638      	mov	r0, r7
  GPIO_InitStruct.Pull = GPIO_NOPULL;
 8001d7c:	9408      	str	r4, [sp, #32]
  GPIO_InitStruct.Pin = GPIO_PIN_9;
 8001d7e:	e9cd 2306 	strd	r2, r3, [sp, #24]
  HAL_GPIO_Init(GPIOA, &GPIO_InitStruct);
 8001d82:	f001 fdbd 	bl	8003900 <HAL_GPIO_Init>
  GPIO_InitStruct.Pin = GPIO_PIN_10|GPIO_PIN_11|GPIO_PIN_12;
 8001d86:	f44f 53e0 	mov.w	r3, #7168	@ 0x1c00
  GPIO_InitStruct.Pull = GPIO_NOPULL;
  GPIO_InitStruct.Speed = GPIO_SPEED_FREQ_VERY_HIGH;
  GPIO_InitStruct.Alternate = GPIO_AF10_OTG_FS;
 8001d8a:	2103      	movs	r1, #3
  HAL_GPIO_Init(GPIOA, &GPIO_InitStruct);
 8001d8c:	4638      	mov	r0, r7
  GPIO_InitStruct.Pin = GPIO_PIN_10|GPIO_PIN_11|GPIO_PIN_12;
 8001d8e:	9306      	str	r3, [sp, #24]
  GPIO_InitStruct.Alternate = GPIO_AF10_OTG_FS;
 8001d90:	230a      	movs	r3, #10
 8001d92:	e9cd 1309 	strd	r1, r3, [sp, #36]	@ 0x24
  HAL_GPIO_Init(GPIOA, &GPIO_InitStruct);
 8001d96:	a906      	add	r1, sp, #24
  GPIO_InitStruct.Pull = GPIO_NOPULL;
 8001d98:	e9cd a407 	strd	sl, r4, [sp, #28]
  HAL_GPIO_Init(GPIOA, &GPIO_InitStruct);
 8001d9c:	f001 fdb0 	bl	8003900 <HAL_GPIO_Init>

  /*Configure GPIO pin : PtPin */
  GPIO_InitStruct.Pin = DIR_Pin;
 8001da0:	2208      	movs	r2, #8
 8001da2:	2300      	movs	r3, #0
  GPIO_InitStruct.Mode = GPIO_MODE_INPUT;
  GPIO_InitStruct.Pull = GPIO_NOPULL;
  HAL_GPIO_Init(DIR_GPIO_Port, &GPIO_InitStruct);
 8001da4:	a906      	add	r1, sp, #24
 8001da6:	4628      	mov	r0, r5
  GPIO_InitStruct.Pull = GPIO_NOPULL;
 8001da8:	9408      	str	r4, [sp, #32]
  GPIO_InitStruct.Pin = DIR_Pin;
 8001daa:	e9cd 2306 	strd	r2, r3, [sp, #24]
  HAL_GPIO_Init(DIR_GPIO_Port, &GPIO_InitStruct);
 8001dae:	f001 fda7 	bl	8003900 <HAL_GPIO_Init>

  /*Configure GPIO pins : PDPin PDPin */
  GPIO_InitStruct.Pin = LED_LEFT_Pin|LED_RIGHT_Pin;
 8001db2:	2330      	movs	r3, #48	@ 0x30
  GPIO_InitStruct.Mode = GPIO_MODE_OUTPUT_PP;
  GPIO_InitStruct.Pull = GPIO_NOPULL;
  GPIO_InitStruct.Speed = GPIO_SPEED_FREQ_LOW;
  HAL_GPIO_Init(GPIOD, &GPIO_InitStruct);
 8001db4:	a906      	add	r1, sp, #24
 8001db6:	4628      	mov	r0, r5
  GPIO_InitStruct.Pin = LED_LEFT_Pin|LED_RIGHT_Pin;
 8001db8:	9306      	str	r3, [sp, #24]
  GPIO_InitStruct.Speed = GPIO_SPEED_FREQ_LOW;
 8001dba:	9409      	str	r4, [sp, #36]	@ 0x24
  GPIO_InitStruct.Pull = GPIO_NOPULL;
 8001dbc:	e9cd 6407 	strd	r6, r4, [sp, #28]
  HAL_GPIO_Init(GPIOD, &GPIO_InitStruct);
 8001dc0:	f001 fd9e 	bl	8003900 <HAL_GPIO_Init>

  /*Configure GPIO pin : PtPin */
  GPIO_InitStruct.Pin = LED_ERR_Pin;
 8001dc4:	2340      	movs	r3, #64	@ 0x40
  GPIO_InitStruct.Mode = GPIO_MODE_OUTPUT_PP;
  GPIO_InitStruct.Pull = GPIO_PULLDOWN;
  GPIO_InitStruct.Speed = GPIO_SPEED_FREQ_LOW;
  HAL_GPIO_Init(LED_ERR_GPIO_Port, &GPIO_InitStruct);
 8001dc6:	a906      	add	r1, sp, #24
 8001dc8:	4628      	mov	r0, r5
  GPIO_InitStruct.Mode = GPIO_MODE_OUTPUT_PP;
 8001dca:	9607      	str	r6, [sp, #28]
  GPIO_InitStruct.Pin = LED_ERR_Pin;
 8001dcc:	9306      	str	r3, [sp, #24]
  GPIO_InitStruct.Speed = GPIO_SPEED_FREQ_LOW;
 8001dce:	e9cd a408 	strd	sl, r4, [sp, #32]
  HAL_GPIO_Init(LED_ERR_GPIO_Port, &GPIO_InitStruct);
 8001dd2:	f001 fd95 	bl	8003900 <HAL_GPIO_Init>

}
 8001dd6:	b00d      	add	sp, #52	@ 0x34
 8001dd8:	e8bd 8ff0 	ldmia.w	sp!, {r4, r5, r6, r7, r8, r9, sl, fp, pc}
 8001ddc:	40023800 	.word	0x40023800
 8001de0:	40020c00 	.word	0x40020c00
 8001de4:	40020000 	.word	0x40020000
 8001de8:	40020400 	.word	0x40020400
 8001dec:	40021000 	.word	0x40021000
 8001df0:	40020800 	.word	0x40020800

08001df4 <MX_I2C1_Init>:

I2C_HandleTypeDef hi2c1;

/* I2C1 init function */
void MX_I2C1_Init(void)
{
 8001df4:	b510      	push	{r4, lr}
  /* USER CODE END I2C1_Init 0 */

  /* USER CODE BEGIN I2C1_Init 1 */

  /* USER CODE END I2C1_Init 1 */
  hi2c1.Instance = I2C1;
 8001df6:	4817      	ldr	r0, [pc, #92]	@ (8001e54 <MX_I2C1_Init+0x60>)
  hi2c1.Init.Timing = 0x20404768;
 8001df8:	2300      	movs	r3, #0
 8001dfa:	4917      	ldr	r1, [pc, #92]	@ (8001e58 <MX_I2C1_Init+0x64>)
 8001dfc:	2401      	movs	r4, #1
 8001dfe:	4a17      	ldr	r2, [pc, #92]	@ (8001e5c <MX_I2C1_Init+0x68>)
 8001e00:	6203      	str	r3, [r0, #32]
 8001e02:	e880 001e 	stmia.w	r0, {r1, r2, r3, r4}
 8001e06:	e9c0 3304 	strd	r3, r3, [r0, #16]
 8001e0a:	e9c0 3306 	strd	r3, r3, [r0, #24]
  hi2c1.Init.DualAddressMode = I2C_DUALADDRESS_DISABLE;
  hi2c1.Init.OwnAddress2 = 0;
  hi2c1.Init.OwnAddress2Masks = I2C_OA2_NOMASK;
  hi2c1.Init.GeneralCallMode = I2C_GENERALCALL_DISABLE;
  hi2c1.Init.NoStretchMode = I2C_NOSTRETCH_DISABLE;
  if (HAL_I2C_Init(&hi2c1) != HAL_OK)
 8001e0e:	f001 febb 	bl	8003b88 <HAL_I2C_Init>
 8001e12:	b950      	cbnz	r0, 8001e2a <MX_I2C1_Init+0x36>
    Error_Handler();
  }

  /** Configure Analogue filter
  */
  if (HAL_I2CEx_ConfigAnalogFilter(&hi2c1, I2C_ANALOGFILTER_ENABLE) != HAL_OK)
 8001e14:	2100      	movs	r1, #0
 8001e16:	480f      	ldr	r0, [pc, #60]	@ (8001e54 <MX_I2C1_Init+0x60>)
 8001e18:	f001 ff0c 	bl	8003c34 <HAL_I2CEx_ConfigAnalogFilter>
 8001e1c:	b968      	cbnz	r0, 8001e3a <MX_I2C1_Init+0x46>
    Error_Handler();
  }

  /** Configure Digital filter
  */
  if (HAL_I2CEx_ConfigDigitalFilter(&hi2c1, 0) != HAL_OK)
 8001e1e:	2100      	movs	r1, #0
 8001e20:	480c      	ldr	r0, [pc, #48]	@ (8001e54 <MX_I2C1_Init+0x60>)
 8001e22:	f001 ff31 	bl	8003c88 <HAL_I2CEx_ConfigDigitalFilter>
 8001e26:	b980      	cbnz	r0, 8001e4a <MX_I2C1_Init+0x56>
  }
  /* USER CODE BEGIN I2C1_Init 2 */

  /* USER CODE END I2C1_Init 2 */

}
 8001e28:	bd10      	pop	{r4, pc}
    Error_Handler();
 8001e2a:	f000 f933 	bl	8002094 <Error_Handler>
  if (HAL_I2CEx_ConfigAnalogFilter(&hi2c1, I2C_ANALOGFILTER_ENABLE) != HAL_OK)
 8001e2e:	2100      	movs	r1, #0
 8001e30:	4808      	ldr	r0, [pc, #32]	@ (8001e54 <MX_I2C1_Init+0x60>)
 8001e32:	f001 feff 	bl	8003c34 <HAL_I2CEx_ConfigAnalogFilter>
 8001e36:	2800      	cmp	r0, #0
 8001e38:	d0f1      	beq.n	8001e1e <MX_I2C1_Init+0x2a>
    Error_Handler();
 8001e3a:	f000 f92b 	bl	8002094 <Error_Handler>
  if (HAL_I2CEx_ConfigDigitalFilter(&hi2c1, 0) != HAL_OK)
 8001e3e:	2100      	movs	r1, #0
 8001e40:	4804      	ldr	r0, [pc, #16]	@ (8001e54 <MX_I2C1_Init+0x60>)
 8001e42:	f001 ff21 	bl	8003c88 <HAL_I2CEx_ConfigDigitalFilter>
 8001e46:	2800      	cmp	r0, #0
 8001e48:	d0ee      	beq.n	8001e28 <MX_I2C1_Init+0x34>
}
 8001e4a:	e8bd 4010 	ldmia.w	sp!, {r4, lr}
    Error_Handler();
 8001e4e:	f000 b921 	b.w	8002094 <Error_Handler>
 8001e52:	bf00      	nop
 8001e54:	20000720 	.word	0x20000720
 8001e58:	40005400 	.word	0x40005400
 8001e5c:	20404768 	.word	0x20404768

08001e60 <HAL_I2C_MspInit>:

void HAL_I2C_MspInit(I2C_HandleTypeDef* i2cHandle)
{
 8001e60:	b510      	push	{r4, lr}
 8001e62:	b0ac      	sub	sp, #176	@ 0xb0

  GPIO_InitTypeDef GPIO_InitStruct = {0};
 8001e64:	2100      	movs	r1, #0
{
 8001e66:	4604      	mov	r4, r0
  RCC_PeriphCLKInitTypeDef PeriphClkInitStruct = {0};
 8001e68:	2290      	movs	r2, #144	@ 0x90
 8001e6a:	a808      	add	r0, sp, #32
  GPIO_InitTypeDef GPIO_InitStruct = {0};
 8001e6c:	9106      	str	r1, [sp, #24]
 8001e6e:	e9cd 1102 	strd	r1, r1, [sp, #8]
 8001e72:	e9cd 1104 	strd	r1, r1, [sp, #16]
  RCC_PeriphCLKInitTypeDef PeriphClkInitStruct = {0};
 8001e76:	f003 fd35 	bl	80058e4 <memset>
  if(i2cHandle->Instance==I2C1)
 8001e7a:	4b1b      	ldr	r3, [pc, #108]	@ (8001ee8 <HAL_I2C_MspInit+0x88>)
 8001e7c:	6822      	ldr	r2, [r4, #0]
 8001e7e:	429a      	cmp	r2, r3
 8001e80:	d001      	beq.n	8001e86 <HAL_I2C_MspInit+0x26>
    __HAL_RCC_I2C1_CLK_ENABLE();
  /* USER CODE BEGIN I2C1_MspInit 1 */

  /* USER CODE END I2C1_MspInit 1 */
  }
}
 8001e82:	b02c      	add	sp, #176	@ 0xb0
 8001e84:	bd10      	pop	{r4, pc}
    PeriphClkInitStruct.PeriphClockSelection = RCC_PERIPHCLK_I2C1;
 8001e86:	f44f 4380 	mov.w	r3, #16384	@ 0x4000
    if (HAL_RCCEx_PeriphCLKConfig(&PeriphClkInitStruct) != HAL_OK)
 8001e8a:	a808      	add	r0, sp, #32
    PeriphClkInitStruct.PeriphClockSelection = RCC_PERIPHCLK_I2C1;
 8001e8c:	9308      	str	r3, [sp, #32]
    if (HAL_RCCEx_PeriphCLKConfig(&PeriphClkInitStruct) != HAL_OK)
 8001e8e:	f002 fa2b 	bl	80042e8 <HAL_RCCEx_PeriphCLKConfig>
 8001e92:	bb10      	cbnz	r0, 8001eda <HAL_I2C_MspInit+0x7a>
    __HAL_RCC_GPIOB_CLK_ENABLE();
 8001e94:	4c15      	ldr	r4, [pc, #84]	@ (8001eec <HAL_I2C_MspInit+0x8c>)
    GPIO_InitStruct.Alternate = GPIO_AF4_I2C1;
 8001e96:	2204      	movs	r2, #4
    HAL_GPIO_Init(GPIOB, &GPIO_InitStruct);
 8001e98:	a902      	add	r1, sp, #8
 8001e9a:	4815      	ldr	r0, [pc, #84]	@ (8001ef0 <HAL_I2C_MspInit+0x90>)
    __HAL_RCC_GPIOB_CLK_ENABLE();
 8001e9c:	6b23      	ldr	r3, [r4, #48]	@ 0x30
 8001e9e:	f043 0302 	orr.w	r3, r3, #2
 8001ea2:	6323      	str	r3, [r4, #48]	@ 0x30
 8001ea4:	6b23      	ldr	r3, [r4, #48]	@ 0x30
    GPIO_InitStruct.Alternate = GPIO_AF4_I2C1;
 8001ea6:	9206      	str	r2, [sp, #24]
    GPIO_InitStruct.Pin = GPIO_PIN_6|GPIO_PIN_7;
 8001ea8:	2200      	movs	r2, #0
    __HAL_RCC_GPIOB_CLK_ENABLE();
 8001eaa:	f003 0302 	and.w	r3, r3, #2
    GPIO_InitStruct.Pin = GPIO_PIN_6|GPIO_PIN_7;
 8001eae:	ed9f 7b0c 	vldr	d7, [pc, #48]	@ 8001ee0 <HAL_I2C_MspInit+0x80>
    __HAL_RCC_GPIOB_CLK_ENABLE();
 8001eb2:	9300      	str	r3, [sp, #0]
 8001eb4:	9b00      	ldr	r3, [sp, #0]
    GPIO_InitStruct.Pin = GPIO_PIN_6|GPIO_PIN_7;
 8001eb6:	2303      	movs	r3, #3
 8001eb8:	ed8d 7b02 	vstr	d7, [sp, #8]
 8001ebc:	e9cd 2304 	strd	r2, r3, [sp, #16]
    HAL_GPIO_Init(GPIOB, &GPIO_InitStruct);
 8001ec0:	f001 fd1e 	bl	8003900 <HAL_GPIO_Init>
    __HAL_RCC_I2C1_CLK_ENABLE();
 8001ec4:	6c23      	ldr	r3, [r4, #64]	@ 0x40
 8001ec6:	f443 1300 	orr.w	r3, r3, #2097152	@ 0x200000
 8001eca:	6423      	str	r3, [r4, #64]	@ 0x40
 8001ecc:	6c23      	ldr	r3, [r4, #64]	@ 0x40
 8001ece:	f403 1300 	and.w	r3, r3, #2097152	@ 0x200000
 8001ed2:	9301      	str	r3, [sp, #4]
 8001ed4:	9b01      	ldr	r3, [sp, #4]
}
 8001ed6:	b02c      	add	sp, #176	@ 0xb0
 8001ed8:	bd10      	pop	{r4, pc}
      Error_Handler();
 8001eda:	f000 f8db 	bl	8002094 <Error_Handler>
 8001ede:	e7d9      	b.n	8001e94 <HAL_I2C_MspInit+0x34>
 8001ee0:	000000c0 	.word	0x000000c0
 8001ee4:	00000012 	.word	0x00000012
 8001ee8:	40005400 	.word	0x40005400
 8001eec:	40023800 	.word	0x40023800
 8001ef0:	40020400 	.word	0x40020400

08001ef4 <SystemClock_Config>:
/**
  * @brief System Clock Configuration
  * @retval None
  */
void SystemClock_Config(void)
{
 8001ef4:	b530      	push	{r4, r5, lr}
  RCC_OscInitTypeDef RCC_OscInitStruct = {0};
 8001ef6:	2300      	movs	r3, #0
{
 8001ef8:	b097      	sub	sp, #92	@ 0x5c
  RCC_ClkInitTypeDef RCC_ClkInitStruct = {0};

  /** Configure the main internal regulator output voltage
  */
  __HAL_RCC_PWR_CLK_ENABLE();
 8001efa:	4927      	ldr	r1, [pc, #156]	@ (8001f98 <SystemClock_Config+0xa4>)
  /** Initializes the RCC Oscillators according to the specified parameters
  * in the RCC_OscInitTypeDef structure.
  */
  RCC_OscInitStruct.OscillatorType = RCC_OSCILLATORTYPE_HSE;
  RCC_OscInitStruct.HSEState = RCC_HSE_ON;
  RCC_OscInitStruct.PLL.PLLState = RCC_PLL_ON;
 8001efc:	2402      	movs	r4, #2
  RCC_OscInitTypeDef RCC_OscInitStruct = {0};
 8001efe:	930a      	str	r3, [sp, #40]	@ 0x28
  RCC_OscInitStruct.PLL.PLLM = 10;
  RCC_OscInitStruct.PLL.PLLN = 216;
  RCC_OscInitStruct.PLL.PLLP = RCC_PLLP_DIV2;
  RCC_OscInitStruct.PLL.PLLQ = 9;
  RCC_OscInitStruct.PLL.PLLR = 2;
  if (HAL_RCC_OscConfig(&RCC_OscInitStruct) != HAL_OK)
 8001f00:	a808      	add	r0, sp, #32
  RCC_ClkInitTypeDef RCC_ClkInitStruct = {0};
 8001f02:	9303      	str	r3, [sp, #12]
  RCC_OscInitTypeDef RCC_OscInitStruct = {0};
 8001f04:	930d      	str	r3, [sp, #52]	@ 0x34
  __HAL_PWR_VOLTAGESCALING_CONFIG(PWR_REGULATOR_VOLTAGE_SCALE1);
 8001f06:	4a25      	ldr	r2, [pc, #148]	@ (8001f9c <SystemClock_Config+0xa8>)
  RCC_OscInitTypeDef RCC_OscInitStruct = {0};
 8001f08:	e9cd 330b 	strd	r3, r3, [sp, #44]	@ 0x2c
  RCC_ClkInitTypeDef RCC_ClkInitStruct = {0};
 8001f0c:	e9cd 3304 	strd	r3, r3, [sp, #16]
 8001f10:	e9cd 3306 	strd	r3, r3, [sp, #24]
  __HAL_RCC_PWR_CLK_ENABLE();
 8001f14:	6c0b      	ldr	r3, [r1, #64]	@ 0x40
 8001f16:	f043 5380 	orr.w	r3, r3, #268435456	@ 0x10000000
 8001f1a:	640b      	str	r3, [r1, #64]	@ 0x40
 8001f1c:	6c0b      	ldr	r3, [r1, #64]	@ 0x40
 8001f1e:	f003 5380 	and.w	r3, r3, #268435456	@ 0x10000000
 8001f22:	9301      	str	r3, [sp, #4]
 8001f24:	9b01      	ldr	r3, [sp, #4]
  __HAL_PWR_VOLTAGESCALING_CONFIG(PWR_REGULATOR_VOLTAGE_SCALE1);
 8001f26:	6813      	ldr	r3, [r2, #0]
 8001f28:	f443 4340 	orr.w	r3, r3, #49152	@ 0xc000
 8001f2c:	6013      	str	r3, [r2, #0]
 8001f2e:	6813      	ldr	r3, [r2, #0]
  RCC_OscInitStruct.OscillatorType = RCC_OSCILLATORTYPE_HSE;
 8001f30:	2201      	movs	r2, #1
  RCC_OscInitStruct.PLL.PLLState = RCC_PLL_ON;
 8001f32:	940e      	str	r4, [sp, #56]	@ 0x38
  __HAL_PWR_VOLTAGESCALING_CONFIG(PWR_REGULATOR_VOLTAGE_SCALE1);
 8001f34:	f403 4340 	and.w	r3, r3, #49152	@ 0xc000
  RCC_OscInitStruct.PLL.PLLR = 2;
 8001f38:	9414      	str	r4, [sp, #80]	@ 0x50
  __HAL_PWR_VOLTAGESCALING_CONFIG(PWR_REGULATOR_VOLTAGE_SCALE1);
 8001f3a:	9302      	str	r3, [sp, #8]
  RCC_OscInitStruct.OscillatorType = RCC_OSCILLATORTYPE_HSE;
 8001f3c:	f44f 3380 	mov.w	r3, #65536	@ 0x10000
  __HAL_PWR_VOLTAGESCALING_CONFIG(PWR_REGULATOR_VOLTAGE_SCALE1);
 8001f40:	9902      	ldr	r1, [sp, #8]
  RCC_OscInitStruct.OscillatorType = RCC_OSCILLATORTYPE_HSE;
 8001f42:	e9cd 2308 	strd	r2, r3, [sp, #32]
  RCC_OscInitStruct.PLL.PLLM = 10;
 8001f46:	f44f 0280 	mov.w	r2, #4194304	@ 0x400000
 8001f4a:	230a      	movs	r3, #10
 8001f4c:	e9cd 230f 	strd	r2, r3, [sp, #60]	@ 0x3c
  RCC_OscInitStruct.PLL.PLLN = 216;
 8001f50:	23d8      	movs	r3, #216	@ 0xd8
  RCC_OscInitStruct.PLL.PLLP = RCC_PLLP_DIV2;
 8001f52:	2202      	movs	r2, #2
  RCC_OscInitStruct.PLL.PLLN = 216;
 8001f54:	9311      	str	r3, [sp, #68]	@ 0x44
  RCC_OscInitStruct.PLL.PLLP = RCC_PLLP_DIV2;
 8001f56:	2309      	movs	r3, #9
 8001f58:	e9cd 2312 	strd	r2, r3, [sp, #72]	@ 0x48
  if (HAL_RCC_OscConfig(&RCC_OscInitStruct) != HAL_OK)
 8001f5c:	f001 fefa 	bl	8003d54 <HAL_RCC_OscConfig>
 8001f60:	b108      	cbz	r0, 8001f66 <SystemClock_Config+0x72>
  \details Disables IRQ interrupts by setting the I-bit in the CPSR.
           Can only be executed in Privileged modes.
 */
__STATIC_FORCEINLINE void __disable_irq(void)
{
  __ASM volatile ("cpsid i" : : : "memory");
 8001f62:	b672      	cpsid	i
void Error_Handler(void)
{
  /* USER CODE BEGIN Error_Handler_Debug */
  /* User can add his own implementation to report the HAL error return state */
  __disable_irq();
  while (1)
 8001f64:	e7fe      	b.n	8001f64 <SystemClock_Config+0x70>
  if (HAL_PWREx_EnableOverDrive() != HAL_OK)
 8001f66:	f001 febb 	bl	8003ce0 <HAL_PWREx_EnableOverDrive>
 8001f6a:	4603      	mov	r3, r0
 8001f6c:	b108      	cbz	r0, 8001f72 <SystemClock_Config+0x7e>
 8001f6e:	b672      	cpsid	i
  while (1)
 8001f70:	e7fe      	b.n	8001f70 <SystemClock_Config+0x7c>
  RCC_ClkInitStruct.ClockType = RCC_CLOCKTYPE_HCLK|RCC_CLOCKTYPE_SYSCLK
 8001f72:	220f      	movs	r2, #15
  RCC_ClkInitStruct.APB1CLKDivider = RCC_HCLK_DIV4;
 8001f74:	f44f 55a0 	mov.w	r5, #5120	@ 0x1400
  if (HAL_RCC_ClockConfig(&RCC_ClkInitStruct, FLASH_LATENCY_7) != HAL_OK)
 8001f78:	a803      	add	r0, sp, #12
 8001f7a:	2107      	movs	r1, #7
  RCC_ClkInitStruct.ClockType = RCC_CLOCKTYPE_HCLK|RCC_CLOCKTYPE_SYSCLK
 8001f7c:	e9cd 2403 	strd	r2, r4, [sp, #12]
  RCC_ClkInitStruct.APB2CLKDivider = RCC_HCLK_DIV2;
 8001f80:	f44f 5280 	mov.w	r2, #4096	@ 0x1000
  RCC_ClkInitStruct.APB1CLKDivider = RCC_HCLK_DIV4;
 8001f84:	e9cd 3505 	strd	r3, r5, [sp, #20]
  RCC_ClkInitStruct.APB2CLKDivider = RCC_HCLK_DIV2;
 8001f88:	9207      	str	r2, [sp, #28]
  if (HAL_RCC_ClockConfig(&RCC_ClkInitStruct, FLASH_LATENCY_7) != HAL_OK)
 8001f8a:	f002 f8d9 	bl	8004140 <HAL_RCC_ClockConfig>
 8001f8e:	b108      	cbz	r0, 8001f94 <SystemClock_Config+0xa0>
 8001f90:	b672      	cpsid	i
  while (1)
 8001f92:	e7fe      	b.n	8001f92 <SystemClock_Config+0x9e>
}
 8001f94:	b017      	add	sp, #92	@ 0x5c
 8001f96:	bd30      	pop	{r4, r5, pc}
 8001f98:	40023800 	.word	0x40023800
 8001f9c:	40007000 	.word	0x40007000

08001fa0 <main>:
{
 8001fa0:	b500      	push	{lr}
 8001fa2:	b085      	sub	sp, #20
	  eval_inv_FSM(&inverter_left);
 8001fa4:	4d29      	ldr	r5, [pc, #164]	@ (800204c <main+0xac>)
  HAL_Init();
 8001fa6:	f000 fc7b 	bl	80028a0 <HAL_Init>
	  eval_inv_FSM(&inverter_right);
 8001faa:	4c29      	ldr	r4, [pc, #164]	@ (8002050 <main+0xb0>)
  SystemClock_Config();
 8001fac:	f7ff ffa2 	bl	8001ef4 <SystemClock_Config>
  MX_GPIO_Init();
 8001fb0:	f7ff fe36 	bl	8001c20 <MX_GPIO_Init>
  MX_DMA_Init();
 8001fb4:	f7ff fe0a 	bl	8001bcc <MX_DMA_Init>
  MX_ADC1_Init();
 8001fb8:	f7ff fb2e 	bl	8001618 <MX_ADC1_Init>
  MX_CAN1_Init();
 8001fbc:	f7ff fd44 	bl	8001a48 <MX_CAN1_Init>
  MX_USB_OTG_FS_USB_Init();
 8001fc0:	f000 fc1e 	bl	8002800 <MX_USB_OTG_FS_USB_Init>
  MX_ADC2_Init();
 8001fc4:	f7ff fb8c 	bl	80016e0 <MX_ADC2_Init>
  MX_ADC3_Init();
 8001fc8:	f7ff fbee 	bl	80017a8 <MX_ADC3_Init>
  MX_DAC_Init();
 8001fcc:	f7ff fd9c 	bl	8001b08 <MX_DAC_Init>
  MX_I2C1_Init();
 8001fd0:	f7ff ff10 	bl	8001df4 <MX_I2C1_Init>
  MX_TIM1_Init();
 8001fd4:	f000 fac4 	bl	8002560 <MX_TIM1_Init>
  MX_TIM8_Init();
 8001fd8:	f000 fb6e 	bl	80026b8 <MX_TIM8_Init>
  MX_TIM2_Init();
 8001fdc:	f000 f8c8 	bl	8002170 <MX_TIM2_Init>
  MX_TIM4_Init();
 8001fe0:	f000 f90c 	bl	80021fc <MX_TIM4_Init>
  MX_TIM6_Init();
 8001fe4:	f000 f952 	bl	800228c <MX_TIM6_Init>
  HAL_ADC_Start_DMA(&hadc3, (uint32_t *) rawADC_temp,4); // Starts ADC DMA for temperatures
 8001fe8:	2204      	movs	r2, #4
 8001fea:	491a      	ldr	r1, [pc, #104]	@ (8002054 <main+0xb4>)
 8001fec:	481a      	ldr	r0, [pc, #104]	@ (8002058 <main+0xb8>)
 8001fee:	f000 fd35 	bl	8002a5c <HAL_ADC_Start_DMA>
  initialize_inverter(&inverter_left, &led_left, ENABLE_L_GPIO_Port, ENABLE_L_Pin, &htim1, &hadc2, &motor_left, rawADC_left);
 8001ff2:	4a1a      	ldr	r2, [pc, #104]	@ (800205c <main+0xbc>)
 8001ff4:	4b1a      	ldr	r3, [pc, #104]	@ (8002060 <main+0xc0>)
 8001ff6:	481b      	ldr	r0, [pc, #108]	@ (8002064 <main+0xc4>)
 8001ff8:	491b      	ldr	r1, [pc, #108]	@ (8002068 <main+0xc8>)
 8001ffa:	e9cd 3202 	strd	r3, r2, [sp, #8]
 8001ffe:	e9cd 1000 	strd	r1, r0, [sp]
 8002002:	2380      	movs	r3, #128	@ 0x80
 8002004:	4a19      	ldr	r2, [pc, #100]	@ (800206c <main+0xcc>)
 8002006:	491a      	ldr	r1, [pc, #104]	@ (8002070 <main+0xd0>)
 8002008:	4628      	mov	r0, r5
 800200a:	f7fe fe5d 	bl	8000cc8 <initialize_inverter>
  initialize_inverter(&inverter_right, &led_right, ENABLE_R_GPIO_Port, ENABLE_R_Pin, &htim8, &hadc1, &motor_right, rawADC_right);
 800200e:	4a19      	ldr	r2, [pc, #100]	@ (8002074 <main+0xd4>)
 8002010:	4b19      	ldr	r3, [pc, #100]	@ (8002078 <main+0xd8>)
 8002012:	481a      	ldr	r0, [pc, #104]	@ (800207c <main+0xdc>)
 8002014:	491a      	ldr	r1, [pc, #104]	@ (8002080 <main+0xe0>)
 8002016:	e9cd 3202 	strd	r3, r2, [sp, #8]
 800201a:	e9cd 1000 	strd	r1, r0, [sp]
 800201e:	2304      	movs	r3, #4
 8002020:	4918      	ldr	r1, [pc, #96]	@ (8002084 <main+0xe4>)
 8002022:	4a19      	ldr	r2, [pc, #100]	@ (8002088 <main+0xe8>)
 8002024:	480a      	ldr	r0, [pc, #40]	@ (8002050 <main+0xb0>)
 8002026:	f7fe fe4f 	bl	8000cc8 <initialize_inverter>
  HAL_TIM_Base_Start_IT(&htim6);
 800202a:	4818      	ldr	r0, [pc, #96]	@ (800208c <main+0xec>)
 800202c:	f002 fcac 	bl	8004988 <HAL_TIM_Base_Start_IT>
  HAL_CAN_Start(&hcan1);
 8002030:	4817      	ldr	r0, [pc, #92]	@ (8002090 <main+0xf0>)
 8002032:	f000 ff43 	bl	8002ebc <HAL_CAN_Start>
  HAL_CAN_ActivateNotification(&hcan1, CAN_IT_RX_FIFO0_MSG_PENDING);
 8002036:	2102      	movs	r1, #2
 8002038:	4815      	ldr	r0, [pc, #84]	@ (8002090 <main+0xf0>)
 800203a:	f001 f83d 	bl	80030b8 <HAL_CAN_ActivateNotification>
	  eval_inv_FSM(&inverter_left);
 800203e:	4628      	mov	r0, r5
 8002040:	f7fe fe00 	bl	8000c44 <eval_inv_FSM>
	  eval_inv_FSM(&inverter_right);
 8002044:	4620      	mov	r0, r4
 8002046:	f7fe fdfd 	bl	8000c44 <eval_inv_FSM>
  while (1)
 800204a:	e7f8      	b.n	800203e <main+0x9e>
 800204c:	20000348 	.word	0x20000348
 8002050:	200001e8 	.word	0x200001e8
 8002054:	200004a8 	.word	0x200004a8
 8002058:	20000608 	.word	0x20000608
 800205c:	200004c8 	.word	0x200004c8
 8002060:	200000b0 	.word	0x200000b0
 8002064:	20000650 	.word	0x20000650
 8002068:	200008b8 	.word	0x200008b8
 800206c:	40021000 	.word	0x40021000
 8002070:	2000013c 	.word	0x2000013c
 8002074:	200004b8 	.word	0x200004b8
 8002078:	20000034 	.word	0x20000034
 800207c:	20000698 	.word	0x20000698
 8002080:	20000778 	.word	0x20000778
 8002084:	20000134 	.word	0x20000134
 8002088:	40020400 	.word	0x40020400
 800208c:	200007c8 	.word	0x200007c8
 8002090:	200006e0 	.word	0x200006e0

08002094 <Error_Handler>:
 8002094:	b672      	cpsid	i
  while (1)
 8002096:	e7fe      	b.n	8002096 <Error_Handler+0x2>

08002098 <HAL_MspInit>:

  /* USER CODE BEGIN MspInit 0 */

  /* USER CODE END MspInit 0 */

  __HAL_RCC_PWR_CLK_ENABLE();
 8002098:	4b0a      	ldr	r3, [pc, #40]	@ (80020c4 <HAL_MspInit+0x2c>)
{
 800209a:	b082      	sub	sp, #8
  __HAL_RCC_PWR_CLK_ENABLE();
 800209c:	6c1a      	ldr	r2, [r3, #64]	@ 0x40
 800209e:	f042 5280 	orr.w	r2, r2, #268435456	@ 0x10000000
 80020a2:	641a      	str	r2, [r3, #64]	@ 0x40
 80020a4:	6c1a      	ldr	r2, [r3, #64]	@ 0x40
 80020a6:	f002 5280 	and.w	r2, r2, #268435456	@ 0x10000000
 80020aa:	9200      	str	r2, [sp, #0]
 80020ac:	9a00      	ldr	r2, [sp, #0]
  __HAL_RCC_SYSCFG_CLK_ENABLE();
 80020ae:	6c5a      	ldr	r2, [r3, #68]	@ 0x44
 80020b0:	f442 4280 	orr.w	r2, r2, #16384	@ 0x4000
 80020b4:	645a      	str	r2, [r3, #68]	@ 0x44
 80020b6:	6c5b      	ldr	r3, [r3, #68]	@ 0x44
 80020b8:	f403 4380 	and.w	r3, r3, #16384	@ 0x4000
 80020bc:	9301      	str	r3, [sp, #4]
 80020be:	9b01      	ldr	r3, [sp, #4]
  /* System interrupt init*/

  /* USER CODE BEGIN MspInit 1 */

  /* USER CODE END MspInit 1 */
}
 80020c0:	b002      	add	sp, #8
 80020c2:	4770      	bx	lr
 80020c4:	40023800 	.word	0x40023800

080020c8 <NMI_Handler>:
{
  /* USER CODE BEGIN NonMaskableInt_IRQn 0 */

  /* USER CODE END NonMaskableInt_IRQn 0 */
  /* USER CODE BEGIN NonMaskableInt_IRQn 1 */
  while (1)
 80020c8:	e7fe      	b.n	80020c8 <NMI_Handler>
 80020ca:	bf00      	nop

080020cc <HardFault_Handler>:
void HardFault_Handler(void)
{
  /* USER CODE BEGIN HardFault_IRQn 0 */

  /* USER CODE END HardFault_IRQn 0 */
  while (1)
 80020cc:	e7fe      	b.n	80020cc <HardFault_Handler>
 80020ce:	bf00      	nop

080020d0 <MemManage_Handler>:
void MemManage_Handler(void)
{
  /* USER CODE BEGIN MemoryManagement_IRQn 0 */

  /* USER CODE END MemoryManagement_IRQn 0 */
  while (1)
 80020d0:	e7fe      	b.n	80020d0 <MemManage_Handler>
 80020d2:	bf00      	nop

080020d4 <BusFault_Handler>:
void BusFault_Handler(void)
{
  /* USER CODE BEGIN BusFault_IRQn 0 */

  /* USER CODE END BusFault_IRQn 0 */
  while (1)
 80020d4:	e7fe      	b.n	80020d4 <BusFault_Handler>
 80020d6:	bf00      	nop

080020d8 <UsageFault_Handler>:
void UsageFault_Handler(void)
{
  /* USER CODE BEGIN UsageFault_IRQn 0 */

  /* USER CODE END UsageFault_IRQn 0 */
  while (1)
 80020d8:	e7fe      	b.n	80020d8 <UsageFault_Handler>
 80020da:	bf00      	nop

080020dc <SVC_Handler>:

  /* USER CODE END SVCall_IRQn 0 */
  /* USER CODE BEGIN SVCall_IRQn 1 */

  /* USER CODE END SVCall_IRQn 1 */
}
 80020dc:	4770      	bx	lr
 80020de:	bf00      	nop

080020e0 <DebugMon_Handler>:

/**
  * @brief This function handles Debug monitor.
  */
void DebugMon_Handler(void)
 80020e0:	4770      	bx	lr
 80020e2:	bf00      	nop

080020e4 <PendSV_Handler>:
}

/**
  * @brief This function handles Pendable request for system service.
  */
void PendSV_Handler(void)
 80020e4:	4770      	bx	lr
 80020e6:	bf00      	nop

080020e8 <SysTick_Handler>:
void SysTick_Handler(void)
{
  /* USER CODE BEGIN SysTick_IRQn 0 */

  /* USER CODE END SysTick_IRQn 0 */
  HAL_IncTick();
 80020e8:	f000 bbe6 	b.w	80028b8 <HAL_IncTick>

080020ec <CAN1_RX0_IRQHandler>:

/**
  * @brief This function handles CAN1 RX0 interrupts.
  */
void CAN1_RX0_IRQHandler(void)
{
 80020ec:	b510      	push	{r4, lr}
  /* USER CODE BEGIN CAN1_RX0_IRQn 0 */

  /* USER CODE END CAN1_RX0_IRQn 0 */
  HAL_CAN_IRQHandler(&hcan1);
 80020ee:	4c04      	ldr	r4, [pc, #16]	@ (8002100 <CAN1_RX0_IRQHandler+0x14>)
 80020f0:	4620      	mov	r0, r4
 80020f2:	f001 f80d 	bl	8003110 <HAL_CAN_IRQHandler>
  /* USER CODE BEGIN CAN1_RX0_IRQn 1 */
  handle_CAN(&hcan1);
 80020f6:	4620      	mov	r0, r4
  /* USER CODE END CAN1_RX0_IRQn 1 */
}
 80020f8:	e8bd 4010 	ldmia.w	sp!, {r4, lr}
  handle_CAN(&hcan1);
 80020fc:	f7fe bc34 	b.w	8000968 <handle_CAN>
 8002100:	200006e0 	.word	0x200006e0

08002104 <TIM1_UP_TIM10_IRQHandler>:

/**
  * @brief This function handles TIM1 update interrupt and TIM10 global interrupt.
  */
void TIM1_UP_TIM10_IRQHandler(void)
{
 8002104:	b508      	push	{r3, lr}
  /* USER CODE BEGIN TIM1_UP_TIM10_IRQn 0 */

  /* USER CODE END TIM1_UP_TIM10_IRQn 0 */
  HAL_TIM_IRQHandler(&htim1);
 8002106:	4803      	ldr	r0, [pc, #12]	@ (8002114 <TIM1_UP_TIM10_IRQHandler+0x10>)
 8002108:	f003 fa8e 	bl	8005628 <HAL_TIM_IRQHandler>
  /* USER CODE BEGIN TIM1_UP_TIM10_IRQn 1 */
  tasks_20us_left();
  /* USER CODE END TIM1_UP_TIM10_IRQn 1 */
}
 800210c:	e8bd 4008 	ldmia.w	sp!, {r3, lr}
  tasks_20us_left();
 8002110:	f7ff b9ee 	b.w	80014f0 <tasks_20us_left>
 8002114:	200008b8 	.word	0x200008b8

08002118 <TIM6_DAC_IRQHandler>:

/**
  * @brief This function handles TIM6 global interrupt, DAC1 and DAC2 underrun error interrupts.
  */
void TIM6_DAC_IRQHandler(void)
{
 8002118:	b508      	push	{r3, lr}
  /* USER CODE BEGIN TIM6_DAC_IRQn 0 */

  /* USER CODE END TIM6_DAC_IRQn 0 */
  HAL_DAC_IRQHandler(&hdac);
 800211a:	4805      	ldr	r0, [pc, #20]	@ (8002130 <TIM6_DAC_IRQHandler+0x18>)
 800211c:	f001 f9e0 	bl	80034e0 <HAL_DAC_IRQHandler>
  HAL_TIM_IRQHandler(&htim6);
 8002120:	4804      	ldr	r0, [pc, #16]	@ (8002134 <TIM6_DAC_IRQHandler+0x1c>)
 8002122:	f003 fa81 	bl	8005628 <HAL_TIM_IRQHandler>
  /* USER CODE BEGIN TIM6_DAC_IRQn 1 */
  tasks_1ms();
  /* USER CODE END TIM6_DAC_IRQn 1 */
}
 8002126:	e8bd 4008 	ldmia.w	sp!, {r3, lr}
  tasks_1ms();
 800212a:	f7ff b99b 	b.w	8001464 <tasks_1ms>
 800212e:	bf00      	nop
 8002130:	20000708 	.word	0x20000708
 8002134:	200007c8 	.word	0x200007c8

08002138 <DMA2_Stream0_IRQHandler>:
void DMA2_Stream0_IRQHandler(void)
{
  /* USER CODE BEGIN DMA2_Stream0_IRQn 0 */

  /* USER CODE END DMA2_Stream0_IRQn 0 */
  HAL_DMA_IRQHandler(&hdma_adc1);
 8002138:	4801      	ldr	r0, [pc, #4]	@ (8002140 <DMA2_Stream0_IRQHandler+0x8>)
 800213a:	f001 bb0d 	b.w	8003758 <HAL_DMA_IRQHandler>
 800213e:	bf00      	nop
 8002140:	200005a8 	.word	0x200005a8

08002144 <DMA2_Stream1_IRQHandler>:
void DMA2_Stream1_IRQHandler(void)
{
  /* USER CODE BEGIN DMA2_Stream1_IRQn 0 */

  /* USER CODE END DMA2_Stream1_IRQn 0 */
  HAL_DMA_IRQHandler(&hdma_adc3);
 8002144:	4801      	ldr	r0, [pc, #4]	@ (800214c <DMA2_Stream1_IRQHandler+0x8>)
 8002146:	f001 bb07 	b.w	8003758 <HAL_DMA_IRQHandler>
 800214a:	bf00      	nop
 800214c:	200004e8 	.word	0x200004e8

08002150 <DMA2_Stream2_IRQHandler>:
void DMA2_Stream2_IRQHandler(void)
{
  /* USER CODE BEGIN DMA2_Stream2_IRQn 0 */

  /* USER CODE END DMA2_Stream2_IRQn 0 */
  HAL_DMA_IRQHandler(&hdma_adc2);
 8002150:	4801      	ldr	r0, [pc, #4]	@ (8002158 <DMA2_Stream2_IRQHandler+0x8>)
 8002152:	f001 bb01 	b.w	8003758 <HAL_DMA_IRQHandler>
 8002156:	bf00      	nop
 8002158:	20000548 	.word	0x20000548

0800215c <SystemInit>:
  */
void SystemInit(void)
{
  /* FPU settings ------------------------------------------------------------*/
#if (__FPU_PRESENT == 1) && (__FPU_USED == 1)
  SCB->CPACR |= ((3UL << 10*2)|(3UL << 11*2));  /* set CP10 and CP11 Full Access */
 800215c:	4a03      	ldr	r2, [pc, #12]	@ (800216c <SystemInit+0x10>)
 800215e:	f8d2 3088 	ldr.w	r3, [r2, #136]	@ 0x88
 8002162:	f443 0370 	orr.w	r3, r3, #15728640	@ 0xf00000
 8002166:	f8c2 3088 	str.w	r3, [r2, #136]	@ 0x88

  /* Configure the Vector Table location -------------------------------------*/
#if defined(USER_VECT_TAB_ADDRESS)
  SCB->VTOR = VECT_TAB_BASE_ADDRESS | VECT_TAB_OFFSET; /* Vector Table Relocation in Internal SRAM */
#endif /* USER_VECT_TAB_ADDRESS */
}
 800216a:	4770      	bx	lr
 800216c:	e000ed00 	.word	0xe000ed00

08002170 <MX_TIM2_Init>:
  HAL_TIM_MspPostInit(&htim1);

}
/* TIM2 init function */
void MX_TIM2_Init(void)
{
 8002170:	b500      	push	{lr}

  /* USER CODE BEGIN TIM2_Init 0 */

  /* USER CODE END TIM2_Init 0 */

  TIM_MasterConfigTypeDef sMasterConfig = {0};
 8002172:	2300      	movs	r3, #0
{
 8002174:	b089      	sub	sp, #36	@ 0x24
  TIM_IC_InitTypeDef sConfigIC = {0};

  /* USER CODE BEGIN TIM2_Init 1 */

  /* USER CODE END TIM2_Init 1 */
  htim2.Instance = TIM2;
 8002176:	4820      	ldr	r0, [pc, #128]	@ (80021f8 <MX_TIM2_Init+0x88>)
 8002178:	f04f 4180 	mov.w	r1, #1073741824	@ 0x40000000
  htim2.Init.Prescaler = 0;
 800217c:	f04f 32ff 	mov.w	r2, #4294967295
  TIM_MasterConfigTypeDef sMasterConfig = {0};
 8002180:	9301      	str	r3, [sp, #4]
  TIM_IC_InitTypeDef sConfigIC = {0};
 8002182:	9304      	str	r3, [sp, #16]
  htim2.Init.Prescaler = 0;
 8002184:	6103      	str	r3, [r0, #16]
  htim2.Init.CounterMode = TIM_COUNTERMODE_UP;
  htim2.Init.Period = 4294967295;
  htim2.Init.ClockDivision = TIM_CLOCKDIVISION_DIV1;
  htim2.Init.AutoReloadPreload = TIM_AUTORELOAD_PRELOAD_DISABLE;
 8002186:	6183      	str	r3, [r0, #24]
  TIM_IC_InitTypeDef sConfigIC = {0};
 8002188:	9307      	str	r3, [sp, #28]
  htim2.Init.Prescaler = 0;
 800218a:	e9c0 1300 	strd	r1, r3, [r0]
 800218e:	e9c0 3202 	strd	r3, r2, [r0, #8]
  TIM_MasterConfigTypeDef sMasterConfig = {0};
 8002192:	e9cd 3302 	strd	r3, r3, [sp, #8]
  TIM_IC_InitTypeDef sConfigIC = {0};
 8002196:	e9cd 3305 	strd	r3, r3, [sp, #20]
  if (HAL_TIM_IC_Init(&htim2) != HAL_OK)
 800219a:	f002 fd77 	bl	8004c8c <HAL_TIM_IC_Init>
 800219e:	b9e8      	cbnz	r0, 80021dc <MX_TIM2_Init+0x6c>
  {
    Error_Handler();
  }
  sMasterConfig.MasterOutputTrigger = TIM_TRGO_RESET;
 80021a0:	2300      	movs	r3, #0
  sMasterConfig.MasterSlaveMode = TIM_MASTERSLAVEMODE_DISABLE;
  if (HAL_TIMEx_MasterConfigSynchronization(&htim2, &sMasterConfig) != HAL_OK)
 80021a2:	a901      	add	r1, sp, #4
 80021a4:	4814      	ldr	r0, [pc, #80]	@ (80021f8 <MX_TIM2_Init+0x88>)
  sMasterConfig.MasterOutputTrigger = TIM_TRGO_RESET;
 80021a6:	9301      	str	r3, [sp, #4]
  sMasterConfig.MasterSlaveMode = TIM_MASTERSLAVEMODE_DISABLE;
 80021a8:	9303      	str	r3, [sp, #12]
  if (HAL_TIMEx_MasterConfigSynchronization(&htim2, &sMasterConfig) != HAL_OK)
 80021aa:	f003 faf5 	bl	8005798 <HAL_TIMEx_MasterConfigSynchronization>
 80021ae:	bb00      	cbnz	r0, 80021f2 <MX_TIM2_Init+0x82>
  {
    Error_Handler();
  }
  sConfigIC.ICPolarity = TIM_INPUTCHANNELPOLARITY_RISING;
 80021b0:	2000      	movs	r0, #0
 80021b2:	2101      	movs	r1, #1
 80021b4:	2200      	movs	r2, #0
 80021b6:	2300      	movs	r3, #0
 80021b8:	e9cd 0104 	strd	r0, r1, [sp, #16]
  sConfigIC.ICSelection = TIM_ICSELECTION_DIRECTTI;
  sConfigIC.ICPrescaler = TIM_ICPSC_DIV1;
  sConfigIC.ICFilter = 0;
  if (HAL_TIM_IC_ConfigChannel(&htim2, &sConfigIC, TIM_CHANNEL_1) != HAL_OK)
 80021bc:	a904      	add	r1, sp, #16
 80021be:	480e      	ldr	r0, [pc, #56]	@ (80021f8 <MX_TIM2_Init+0x88>)
  sConfigIC.ICPolarity = TIM_INPUTCHANNELPOLARITY_RISING;
 80021c0:	e9cd 2306 	strd	r2, r3, [sp, #24]
  if (HAL_TIM_IC_ConfigChannel(&htim2, &sConfigIC, TIM_CHANNEL_1) != HAL_OK)
 80021c4:	f002 ff28 	bl	8005018 <HAL_TIM_IC_ConfigChannel>
 80021c8:	b980      	cbnz	r0, 80021ec <MX_TIM2_Init+0x7c>
  {
    Error_Handler();
  }
  if (HAL_TIM_IC_ConfigChannel(&htim2, &sConfigIC, TIM_CHANNEL_3) != HAL_OK)
 80021ca:	2208      	movs	r2, #8
 80021cc:	a904      	add	r1, sp, #16
 80021ce:	480a      	ldr	r0, [pc, #40]	@ (80021f8 <MX_TIM2_Init+0x88>)
 80021d0:	f002 ff22 	bl	8005018 <HAL_TIM_IC_ConfigChannel>
 80021d4:	b928      	cbnz	r0, 80021e2 <MX_TIM2_Init+0x72>
  }
  /* USER CODE BEGIN TIM2_Init 2 */

  /* USER CODE END TIM2_Init 2 */

}
 80021d6:	b009      	add	sp, #36	@ 0x24
 80021d8:	f85d fb04 	ldr.w	pc, [sp], #4
    Error_Handler();
 80021dc:	f7ff ff5a 	bl	8002094 <Error_Handler>
 80021e0:	e7de      	b.n	80021a0 <MX_TIM2_Init+0x30>
    Error_Handler();
 80021e2:	f7ff ff57 	bl	8002094 <Error_Handler>
}
 80021e6:	b009      	add	sp, #36	@ 0x24
 80021e8:	f85d fb04 	ldr.w	pc, [sp], #4
    Error_Handler();
 80021ec:	f7ff ff52 	bl	8002094 <Error_Handler>
 80021f0:	e7eb      	b.n	80021ca <MX_TIM2_Init+0x5a>
    Error_Handler();
 80021f2:	f7ff ff4f 	bl	8002094 <Error_Handler>
 80021f6:	e7db      	b.n	80021b0 <MX_TIM2_Init+0x40>
 80021f8:	20000868 	.word	0x20000868

080021fc <MX_TIM4_Init>:
/* TIM4 init function */
void MX_TIM4_Init(void)
{
 80021fc:	b500      	push	{lr}

  /* USER CODE BEGIN TIM4_Init 0 */

  /* USER CODE END TIM4_Init 0 */

  TIM_MasterConfigTypeDef sMasterConfig = {0};
 80021fe:	2300      	movs	r3, #0
{
 8002200:	b089      	sub	sp, #36	@ 0x24
  TIM_IC_InitTypeDef sConfigIC = {0};

  /* USER CODE BEGIN TIM4_Init 1 */

  /* USER CODE END TIM4_Init 1 */
  htim4.Instance = TIM4;
 8002202:	4820      	ldr	r0, [pc, #128]	@ (8002284 <MX_TIM4_Init+0x88>)
  htim4.Init.Prescaler = 0;
 8002204:	f64f 72ff 	movw	r2, #65535	@ 0xffff
  htim4.Instance = TIM4;
 8002208:	491f      	ldr	r1, [pc, #124]	@ (8002288 <MX_TIM4_Init+0x8c>)
  TIM_MasterConfigTypeDef sMasterConfig = {0};
 800220a:	9301      	str	r3, [sp, #4]
  TIM_IC_InitTypeDef sConfigIC = {0};
 800220c:	9304      	str	r3, [sp, #16]
  htim4.Init.Prescaler = 0;
 800220e:	6103      	str	r3, [r0, #16]
  htim4.Init.CounterMode = TIM_COUNTERMODE_UP;
  htim4.Init.Period = 65535;
  htim4.Init.ClockDivision = TIM_CLOCKDIVISION_DIV1;
  htim4.Init.AutoReloadPreload = TIM_AUTORELOAD_PRELOAD_DISABLE;
 8002210:	6183      	str	r3, [r0, #24]
  TIM_IC_InitTypeDef sConfigIC = {0};
 8002212:	9307      	str	r3, [sp, #28]
  htim4.Init.Prescaler = 0;
 8002214:	e9c0 1300 	strd	r1, r3, [r0]
 8002218:	e9c0 3202 	strd	r3, r2, [r0, #8]
  TIM_MasterConfigTypeDef sMasterConfig = {0};
 800221c:	e9cd 3302 	strd	r3, r3, [sp, #8]
  TIM_IC_InitTypeDef sConfigIC = {0};
 8002220:	e9cd 3305 	strd	r3, r3, [sp, #20]
  if (HAL_TIM_IC_Init(&htim4) != HAL_OK)
 8002224:	f002 fd32 	bl	8004c8c <HAL_TIM_IC_Init>
 8002228:	b9e8      	cbnz	r0, 8002266 <MX_TIM4_Init+0x6a>
  {
    Error_Handler();
  }
  sMasterConfig.MasterOutputTrigger = TIM_TRGO_RESET;
 800222a:	2300      	movs	r3, #0
  sMasterConfig.MasterSlaveMode = TIM_MASTERSLAVEMODE_DISABLE;
  if (HAL_TIMEx_MasterConfigSynchronization(&htim4, &sMasterConfig) != HAL_OK)
 800222c:	a901      	add	r1, sp, #4
 800222e:	4815      	ldr	r0, [pc, #84]	@ (8002284 <MX_TIM4_Init+0x88>)
  sMasterConfig.MasterOutputTrigger = TIM_TRGO_RESET;
 8002230:	9301      	str	r3, [sp, #4]
  sMasterConfig.MasterSlaveMode = TIM_MASTERSLAVEMODE_DISABLE;
 8002232:	9303      	str	r3, [sp, #12]
  if (HAL_TIMEx_MasterConfigSynchronization(&htim4, &sMasterConfig) != HAL_OK)
 8002234:	f003 fab0 	bl	8005798 <HAL_TIMEx_MasterConfigSynchronization>
 8002238:	bb00      	cbnz	r0, 800227c <MX_TIM4_Init+0x80>
  {
    Error_Handler();
  }
  sConfigIC.ICPolarity = TIM_INPUTCHANNELPOLARITY_RISING;
 800223a:	2000      	movs	r0, #0
 800223c:	2101      	movs	r1, #1
 800223e:	2200      	movs	r2, #0
 8002240:	2300      	movs	r3, #0
 8002242:	e9cd 0104 	strd	r0, r1, [sp, #16]
  sConfigIC.ICSelection = TIM_ICSELECTION_DIRECTTI;
  sConfigIC.ICPrescaler = TIM_ICPSC_DIV1;
  sConfigIC.ICFilter = 0;
  if (HAL_TIM_IC_ConfigChannel(&htim4, &sConfigIC, TIM_CHANNEL_1) != HAL_OK)
 8002246:	a904      	add	r1, sp, #16
 8002248:	480e      	ldr	r0, [pc, #56]	@ (8002284 <MX_TIM4_Init+0x88>)
  sConfigIC.ICPolarity = TIM_INPUTCHANNELPOLARITY_RISING;
 800224a:	e9cd 2306 	strd	r2, r3, [sp, #24]
  if (HAL_TIM_IC_ConfigChannel(&htim4, &sConfigIC, TIM_CHANNEL_1) != HAL_OK)
 800224e:	f002 fee3 	bl	8005018 <HAL_TIM_IC_ConfigChannel>
 8002252:	b980      	cbnz	r0, 8002276 <MX_TIM4_Init+0x7a>
  {
    Error_Handler();
  }
  if (HAL_TIM_IC_ConfigChannel(&htim4, &sConfigIC, TIM_CHANNEL_3) != HAL_OK)
 8002254:	2208      	movs	r2, #8
 8002256:	a904      	add	r1, sp, #16
 8002258:	480a      	ldr	r0, [pc, #40]	@ (8002284 <MX_TIM4_Init+0x88>)
 800225a:	f002 fedd 	bl	8005018 <HAL_TIM_IC_ConfigChannel>
 800225e:	b928      	cbnz	r0, 800226c <MX_TIM4_Init+0x70>
  }
  /* USER CODE BEGIN TIM4_Init 2 */

  /* USER CODE END TIM4_Init 2 */

}
 8002260:	b009      	add	sp, #36	@ 0x24
 8002262:	f85d fb04 	ldr.w	pc, [sp], #4
    Error_Handler();
 8002266:	f7ff ff15 	bl	8002094 <Error_Handler>
 800226a:	e7de      	b.n	800222a <MX_TIM4_Init+0x2e>
    Error_Handler();
 800226c:	f7ff ff12 	bl	8002094 <Error_Handler>
}
 8002270:	b009      	add	sp, #36	@ 0x24
 8002272:	f85d fb04 	ldr.w	pc, [sp], #4
    Error_Handler();
 8002276:	f7ff ff0d 	bl	8002094 <Error_Handler>
 800227a:	e7eb      	b.n	8002254 <MX_TIM4_Init+0x58>
    Error_Handler();
 800227c:	f7ff ff0a 	bl	8002094 <Error_Handler>
 8002280:	e7db      	b.n	800223a <MX_TIM4_Init+0x3e>
 8002282:	bf00      	nop
 8002284:	20000818 	.word	0x20000818
 8002288:	40000800 	.word	0x40000800

0800228c <MX_TIM6_Init>:
/* TIM6 init function */
void MX_TIM6_Init(void)
{
 800228c:	b510      	push	{r4, lr}
  TIM_MasterConfigTypeDef sMasterConfig = {0};

  /* USER CODE BEGIN TIM6_Init 1 */

  /* USER CODE END TIM6_Init 1 */
  htim6.Instance = TIM6;
 800228e:	4812      	ldr	r0, [pc, #72]	@ (80022d8 <MX_TIM6_Init+0x4c>)
  htim6.Init.Prescaler = 1;
 8002290:	2201      	movs	r2, #1
  htim6.Instance = TIM6;
 8002292:	4c12      	ldr	r4, [pc, #72]	@ (80022dc <MX_TIM6_Init+0x50>)
{
 8002294:	b084      	sub	sp, #16
  TIM_MasterConfigTypeDef sMasterConfig = {0};
 8002296:	2300      	movs	r3, #0
  htim6.Init.CounterMode = TIM_COUNTERMODE_UP;
  htim6.Init.Period = 53999;
 8002298:	f24d 21ef 	movw	r1, #53999	@ 0xd2ef
  htim6.Init.Prescaler = 1;
 800229c:	e9c0 4200 	strd	r4, r2, [r0]
  htim6.Init.AutoReloadPreload = TIM_AUTORELOAD_PRELOAD_ENABLE;
 80022a0:	2280      	movs	r2, #128	@ 0x80
  TIM_MasterConfigTypeDef sMasterConfig = {0};
 80022a2:	9301      	str	r3, [sp, #4]
  htim6.Init.Period = 53999;
 80022a4:	e9c0 3102 	strd	r3, r1, [r0, #8]
  htim6.Init.AutoReloadPreload = TIM_AUTORELOAD_PRELOAD_ENABLE;
 80022a8:	6182      	str	r2, [r0, #24]
  TIM_MasterConfigTypeDef sMasterConfig = {0};
 80022aa:	e9cd 3302 	strd	r3, r3, [sp, #8]
  if (HAL_TIM_Base_Init(&htim6) != HAL_OK)
 80022ae:	f002 fad5 	bl	800485c <HAL_TIM_Base_Init>
 80022b2:	b950      	cbnz	r0, 80022ca <MX_TIM6_Init+0x3e>
  {
    Error_Handler();
  }
  sMasterConfig.MasterOutputTrigger = TIM_TRGO_UPDATE;
 80022b4:	2220      	movs	r2, #32
  sMasterConfig.MasterSlaveMode = TIM_MASTERSLAVEMODE_DISABLE;
 80022b6:	2300      	movs	r3, #0
  if (HAL_TIMEx_MasterConfigSynchronization(&htim6, &sMasterConfig) != HAL_OK)
 80022b8:	a901      	add	r1, sp, #4
 80022ba:	4807      	ldr	r0, [pc, #28]	@ (80022d8 <MX_TIM6_Init+0x4c>)
  sMasterConfig.MasterOutputTrigger = TIM_TRGO_UPDATE;
 80022bc:	9201      	str	r2, [sp, #4]
  sMasterConfig.MasterSlaveMode = TIM_MASTERSLAVEMODE_DISABLE;
 80022be:	9303      	str	r3, [sp, #12]
  if (HAL_TIMEx_MasterConfigSynchronization(&htim6, &sMasterConfig) != HAL_OK)
 80022c0:	f003 fa6a 	bl	8005798 <HAL_TIMEx_MasterConfigSynchronization>
 80022c4:	b920      	cbnz	r0, 80022d0 <MX_TIM6_Init+0x44>
  }
  /* USER CODE BEGIN TIM6_Init 2 */

  /* USER CODE END TIM6_Init 2 */

}
 80022c6:	b004      	add	sp, #16
 80022c8:	bd10      	pop	{r4, pc}
    Error_Handler();
 80022ca:	f7ff fee3 	bl	8002094 <Error_Handler>
 80022ce:	e7f1      	b.n	80022b4 <MX_TIM6_Init+0x28>
    Error_Handler();
 80022d0:	f7ff fee0 	bl	8002094 <Error_Handler>
}
 80022d4:	b004      	add	sp, #16
 80022d6:	bd10      	pop	{r4, pc}
 80022d8:	200007c8 	.word	0x200007c8
 80022dc:	40001000 	.word	0x40001000

080022e0 <HAL_TIM_Base_MspInit>:
}

void HAL_TIM_Base_MspInit(TIM_HandleTypeDef* tim_baseHandle)
{

  if(tim_baseHandle->Instance==TIM1)
 80022e0:	4a21      	ldr	r2, [pc, #132]	@ (8002368 <HAL_TIM_Base_MspInit+0x88>)
 80022e2:	6803      	ldr	r3, [r0, #0]
 80022e4:	4293      	cmp	r3, r2
{
 80022e6:	b510      	push	{r4, lr}
 80022e8:	b084      	sub	sp, #16
  if(tim_baseHandle->Instance==TIM1)
 80022ea:	d013      	beq.n	8002314 <HAL_TIM_Base_MspInit+0x34>
    HAL_NVIC_EnableIRQ(TIM1_UP_TIM10_IRQn);
  /* USER CODE BEGIN TIM1_MspInit 1 */

  /* USER CODE END TIM1_MspInit 1 */
  }
  else if(tim_baseHandle->Instance==TIM6)
 80022ec:	4a1f      	ldr	r2, [pc, #124]	@ (800236c <HAL_TIM_Base_MspInit+0x8c>)
 80022ee:	4293      	cmp	r3, r2
 80022f0:	d025      	beq.n	800233e <HAL_TIM_Base_MspInit+0x5e>
    HAL_NVIC_EnableIRQ(TIM6_DAC_IRQn);
  /* USER CODE BEGIN TIM6_MspInit 1 */

  /* USER CODE END TIM6_MspInit 1 */
  }
  else if(tim_baseHandle->Instance==TIM8)
 80022f2:	4a1f      	ldr	r2, [pc, #124]	@ (8002370 <HAL_TIM_Base_MspInit+0x90>)
 80022f4:	4293      	cmp	r3, r2
 80022f6:	d001      	beq.n	80022fc <HAL_TIM_Base_MspInit+0x1c>
    __HAL_RCC_TIM8_CLK_ENABLE();
  /* USER CODE BEGIN TIM8_MspInit 1 */

  /* USER CODE END TIM8_MspInit 1 */
  }
}
 80022f8:	b004      	add	sp, #16
 80022fa:	bd10      	pop	{r4, pc}
    __HAL_RCC_TIM8_CLK_ENABLE();
 80022fc:	4b1d      	ldr	r3, [pc, #116]	@ (8002374 <HAL_TIM_Base_MspInit+0x94>)
 80022fe:	6c5a      	ldr	r2, [r3, #68]	@ 0x44
 8002300:	f042 0202 	orr.w	r2, r2, #2
 8002304:	645a      	str	r2, [r3, #68]	@ 0x44
 8002306:	6c5b      	ldr	r3, [r3, #68]	@ 0x44
 8002308:	f003 0302 	and.w	r3, r3, #2
 800230c:	9303      	str	r3, [sp, #12]
 800230e:	9b03      	ldr	r3, [sp, #12]
}
 8002310:	b004      	add	sp, #16
 8002312:	bd10      	pop	{r4, pc}
    __HAL_RCC_TIM1_CLK_ENABLE();
 8002314:	4b17      	ldr	r3, [pc, #92]	@ (8002374 <HAL_TIM_Base_MspInit+0x94>)
    HAL_NVIC_SetPriority(TIM1_UP_TIM10_IRQn, 0, 0);
 8002316:	2200      	movs	r2, #0
 8002318:	2019      	movs	r0, #25
    __HAL_RCC_TIM1_CLK_ENABLE();
 800231a:	6c5c      	ldr	r4, [r3, #68]	@ 0x44
    HAL_NVIC_SetPriority(TIM1_UP_TIM10_IRQn, 0, 0);
 800231c:	4611      	mov	r1, r2
    __HAL_RCC_TIM1_CLK_ENABLE();
 800231e:	f044 0401 	orr.w	r4, r4, #1
 8002322:	645c      	str	r4, [r3, #68]	@ 0x44
 8002324:	6c5b      	ldr	r3, [r3, #68]	@ 0x44
 8002326:	f003 0301 	and.w	r3, r3, #1
 800232a:	9301      	str	r3, [sp, #4]
 800232c:	9b01      	ldr	r3, [sp, #4]
    HAL_NVIC_SetPriority(TIM1_UP_TIM10_IRQn, 0, 0);
 800232e:	f001 f85f 	bl	80033f0 <HAL_NVIC_SetPriority>
    HAL_NVIC_EnableIRQ(TIM1_UP_TIM10_IRQn);
 8002332:	2019      	movs	r0, #25
}
 8002334:	b004      	add	sp, #16
 8002336:	e8bd 4010 	ldmia.w	sp!, {r4, lr}
    HAL_NVIC_EnableIRQ(TIM6_DAC_IRQn);
 800233a:	f001 b895 	b.w	8003468 <HAL_NVIC_EnableIRQ>
    __HAL_RCC_TIM6_CLK_ENABLE();
 800233e:	4b0d      	ldr	r3, [pc, #52]	@ (8002374 <HAL_TIM_Base_MspInit+0x94>)
    HAL_NVIC_SetPriority(TIM6_DAC_IRQn, 0, 0);
 8002340:	2200      	movs	r2, #0
 8002342:	2036      	movs	r0, #54	@ 0x36
    __HAL_RCC_TIM6_CLK_ENABLE();
 8002344:	6c1c      	ldr	r4, [r3, #64]	@ 0x40
    HAL_NVIC_SetPriority(TIM6_DAC_IRQn, 0, 0);
 8002346:	4611      	mov	r1, r2
    __HAL_RCC_TIM6_CLK_ENABLE();
 8002348:	f044 0410 	orr.w	r4, r4, #16
 800234c:	641c      	str	r4, [r3, #64]	@ 0x40
 800234e:	6c1b      	ldr	r3, [r3, #64]	@ 0x40
 8002350:	f003 0310 	and.w	r3, r3, #16
 8002354:	9302      	str	r3, [sp, #8]
 8002356:	9b02      	ldr	r3, [sp, #8]
    HAL_NVIC_SetPriority(TIM6_DAC_IRQn, 0, 0);
 8002358:	f001 f84a 	bl	80033f0 <HAL_NVIC_SetPriority>
    HAL_NVIC_EnableIRQ(TIM6_DAC_IRQn);
 800235c:	2036      	movs	r0, #54	@ 0x36
}
 800235e:	b004      	add	sp, #16
 8002360:	e8bd 4010 	ldmia.w	sp!, {r4, lr}
    HAL_NVIC_EnableIRQ(TIM6_DAC_IRQn);
 8002364:	f001 b880 	b.w	8003468 <HAL_NVIC_EnableIRQ>
 8002368:	40010000 	.word	0x40010000
 800236c:	40001000 	.word	0x40001000
 8002370:	40010400 	.word	0x40010400
 8002374:	40023800 	.word	0x40023800

08002378 <HAL_TIM_IC_MspInit>:

void HAL_TIM_IC_MspInit(TIM_HandleTypeDef* tim_icHandle)
{

  GPIO_InitTypeDef GPIO_InitStruct = {0};
  if(tim_icHandle->Instance==TIM2)
 8002378:	6803      	ldr	r3, [r0, #0]
{
 800237a:	b530      	push	{r4, r5, lr}
  if(tim_icHandle->Instance==TIM2)
 800237c:	f1b3 4f80 	cmp.w	r3, #1073741824	@ 0x40000000
{
 8002380:	b08d      	sub	sp, #52	@ 0x34
  GPIO_InitTypeDef GPIO_InitStruct = {0};
 8002382:	f04f 0400 	mov.w	r4, #0
 8002386:	e9cd 4406 	strd	r4, r4, [sp, #24]
 800238a:	e9cd 4408 	strd	r4, r4, [sp, #32]
 800238e:	940a      	str	r4, [sp, #40]	@ 0x28
  if(tim_icHandle->Instance==TIM2)
 8002390:	d004      	beq.n	800239c <HAL_TIM_IC_MspInit+0x24>

  /* USER CODE BEGIN TIM2_MspInit 1 */

  /* USER CODE END TIM2_MspInit 1 */
  }
  else if(tim_icHandle->Instance==TIM4)
 8002392:	4a2f      	ldr	r2, [pc, #188]	@ (8002450 <HAL_TIM_IC_MspInit+0xd8>)
 8002394:	4293      	cmp	r3, r2
 8002396:	d037      	beq.n	8002408 <HAL_TIM_IC_MspInit+0x90>

  /* USER CODE BEGIN TIM4_MspInit 1 */

  /* USER CODE END TIM4_MspInit 1 */
  }
}
 8002398:	b00d      	add	sp, #52	@ 0x34
 800239a:	bd30      	pop	{r4, r5, pc}
    __HAL_RCC_TIM2_CLK_ENABLE();
 800239c:	f503 330e 	add.w	r3, r3, #145408	@ 0x23800
    GPIO_InitStruct.Alternate = GPIO_AF1_TIM2;
 80023a0:	2501      	movs	r5, #1
    HAL_GPIO_Init(B_R_GPIO_Port, &GPIO_InitStruct);
 80023a2:	482c      	ldr	r0, [pc, #176]	@ (8002454 <HAL_TIM_IC_MspInit+0xdc>)
    __HAL_RCC_TIM2_CLK_ENABLE();
 80023a4:	6c1a      	ldr	r2, [r3, #64]	@ 0x40
 80023a6:	f042 0201 	orr.w	r2, r2, #1
 80023aa:	641a      	str	r2, [r3, #64]	@ 0x40
 80023ac:	6c1a      	ldr	r2, [r3, #64]	@ 0x40
 80023ae:	f002 0201 	and.w	r2, r2, #1
 80023b2:	9201      	str	r2, [sp, #4]
 80023b4:	9a01      	ldr	r2, [sp, #4]
    __HAL_RCC_GPIOB_CLK_ENABLE();
 80023b6:	6b1a      	ldr	r2, [r3, #48]	@ 0x30
 80023b8:	f042 0202 	orr.w	r2, r2, #2
 80023bc:	631a      	str	r2, [r3, #48]	@ 0x30
 80023be:	6b1a      	ldr	r2, [r3, #48]	@ 0x30
 80023c0:	f002 0202 	and.w	r2, r2, #2
 80023c4:	9202      	str	r2, [sp, #8]
 80023c6:	9a02      	ldr	r2, [sp, #8]
    __HAL_RCC_GPIOA_CLK_ENABLE();
 80023c8:	6b1a      	ldr	r2, [r3, #48]	@ 0x30
 80023ca:	f042 0201 	orr.w	r2, r2, #1
 80023ce:	631a      	str	r2, [r3, #48]	@ 0x30
    GPIO_InitStruct.Pin = B_R_Pin;
 80023d0:	f44f 6280 	mov.w	r2, #1024	@ 0x400
    __HAL_RCC_GPIOA_CLK_ENABLE();
 80023d4:	6b1b      	ldr	r3, [r3, #48]	@ 0x30
    GPIO_InitStruct.Alternate = GPIO_AF1_TIM2;
 80023d6:	950a      	str	r5, [sp, #40]	@ 0x28
    __HAL_RCC_GPIOA_CLK_ENABLE();
 80023d8:	f003 0301 	and.w	r3, r3, #1
 80023dc:	9303      	str	r3, [sp, #12]
    GPIO_InitStruct.Pin = B_R_Pin;
 80023de:	2302      	movs	r3, #2
    __HAL_RCC_GPIOA_CLK_ENABLE();
 80023e0:	9903      	ldr	r1, [sp, #12]
    HAL_GPIO_Init(B_R_GPIO_Port, &GPIO_InitStruct);
 80023e2:	a906      	add	r1, sp, #24
    GPIO_InitStruct.Pin = B_R_Pin;
 80023e4:	e9cd 2306 	strd	r2, r3, [sp, #24]
    HAL_GPIO_Init(B_R_GPIO_Port, &GPIO_InitStruct);
 80023e8:	f001 fa8a 	bl	8003900 <HAL_GPIO_Init>
    GPIO_InitStruct.Pin = A_R_Pin;
 80023ec:	f44f 4200 	mov.w	r2, #32768	@ 0x8000
    GPIO_InitStruct.Mode = GPIO_MODE_AF_PP;
 80023f0:	2302      	movs	r3, #2
    HAL_GPIO_Init(A_R_GPIO_Port, &GPIO_InitStruct);
 80023f2:	a906      	add	r1, sp, #24
 80023f4:	4818      	ldr	r0, [pc, #96]	@ (8002458 <HAL_TIM_IC_MspInit+0xe0>)
    GPIO_InitStruct.Pin = A_R_Pin;
 80023f6:	9206      	str	r2, [sp, #24]
    GPIO_InitStruct.Mode = GPIO_MODE_AF_PP;
 80023f8:	e9cd 3407 	strd	r3, r4, [sp, #28]
    GPIO_InitStruct.Alternate = GPIO_AF1_TIM2;
 80023fc:	e9cd 4509 	strd	r4, r5, [sp, #36]	@ 0x24
    HAL_GPIO_Init(A_R_GPIO_Port, &GPIO_InitStruct);
 8002400:	f001 fa7e 	bl	8003900 <HAL_GPIO_Init>
}
 8002404:	b00d      	add	sp, #52	@ 0x34
 8002406:	bd30      	pop	{r4, r5, pc}
    __HAL_RCC_TIM4_CLK_ENABLE();
 8002408:	4b14      	ldr	r3, [pc, #80]	@ (800245c <HAL_TIM_IC_MspInit+0xe4>)
    GPIO_InitStruct.Alternate = GPIO_AF2_TIM4;
 800240a:	2402      	movs	r4, #2
    HAL_GPIO_Init(GPIOD, &GPIO_InitStruct);
 800240c:	a906      	add	r1, sp, #24
 800240e:	4814      	ldr	r0, [pc, #80]	@ (8002460 <HAL_TIM_IC_MspInit+0xe8>)
    __HAL_RCC_TIM4_CLK_ENABLE();
 8002410:	6c1a      	ldr	r2, [r3, #64]	@ 0x40
 8002412:	f042 0204 	orr.w	r2, r2, #4
 8002416:	641a      	str	r2, [r3, #64]	@ 0x40
 8002418:	6c1a      	ldr	r2, [r3, #64]	@ 0x40
 800241a:	f002 0204 	and.w	r2, r2, #4
 800241e:	9204      	str	r2, [sp, #16]
 8002420:	9a04      	ldr	r2, [sp, #16]
    __HAL_RCC_GPIOD_CLK_ENABLE();
 8002422:	6b1a      	ldr	r2, [r3, #48]	@ 0x30
 8002424:	f042 0208 	orr.w	r2, r2, #8
 8002428:	631a      	str	r2, [r3, #48]	@ 0x30
 800242a:	6b1b      	ldr	r3, [r3, #48]	@ 0x30
    GPIO_InitStruct.Alternate = GPIO_AF2_TIM4;
 800242c:	940a      	str	r4, [sp, #40]	@ 0x28
    __HAL_RCC_GPIOD_CLK_ENABLE();
 800242e:	f003 0308 	and.w	r3, r3, #8
    GPIO_InitStruct.Pin = A_L_Pin|B_L_Pin;
 8002432:	ed9f 7b05 	vldr	d7, [pc, #20]	@ 8002448 <HAL_TIM_IC_MspInit+0xd0>
    __HAL_RCC_GPIOD_CLK_ENABLE();
 8002436:	9305      	str	r3, [sp, #20]
 8002438:	9b05      	ldr	r3, [sp, #20]
    GPIO_InitStruct.Pin = A_L_Pin|B_L_Pin;
 800243a:	ed8d 7b06 	vstr	d7, [sp, #24]
    HAL_GPIO_Init(GPIOD, &GPIO_InitStruct);
 800243e:	f001 fa5f 	bl	8003900 <HAL_GPIO_Init>
}
 8002442:	b00d      	add	sp, #52	@ 0x34
 8002444:	bd30      	pop	{r4, r5, pc}
 8002446:	bf00      	nop
 8002448:	00005000 	.word	0x00005000
 800244c:	00000002 	.word	0x00000002
 8002450:	40000800 	.word	0x40000800
 8002454:	40020400 	.word	0x40020400
 8002458:	40020000 	.word	0x40020000
 800245c:	40023800 	.word	0x40023800
 8002460:	40020c00 	.word	0x40020c00
 8002464:	00000000 	.word	0x00000000

08002468 <HAL_TIM_MspPostInit>:
void HAL_TIM_MspPostInit(TIM_HandleTypeDef* timHandle)
{

  GPIO_InitTypeDef GPIO_InitStruct = {0};
  if(timHandle->Instance==TIM1)
 8002468:	4a35      	ldr	r2, [pc, #212]	@ (8002540 <HAL_TIM_MspPostInit+0xd8>)
 800246a:	6803      	ldr	r3, [r0, #0]
{
 800246c:	b570      	push	{r4, r5, r6, lr}
  if(timHandle->Instance==TIM1)
 800246e:	4293      	cmp	r3, r2
{
 8002470:	b08a      	sub	sp, #40	@ 0x28
  GPIO_InitTypeDef GPIO_InitStruct = {0};
 8002472:	f04f 0400 	mov.w	r4, #0
 8002476:	e9cd 4404 	strd	r4, r4, [sp, #16]
 800247a:	e9cd 4406 	strd	r4, r4, [sp, #24]
 800247e:	9408      	str	r4, [sp, #32]
  if(timHandle->Instance==TIM1)
 8002480:	d004      	beq.n	800248c <HAL_TIM_MspPostInit+0x24>

  /* USER CODE BEGIN TIM1_MspPostInit 1 */

  /* USER CODE END TIM1_MspPostInit 1 */
  }
  else if(timHandle->Instance==TIM8)
 8002482:	4a30      	ldr	r2, [pc, #192]	@ (8002544 <HAL_TIM_MspPostInit+0xdc>)
 8002484:	4293      	cmp	r3, r2
 8002486:	d017      	beq.n	80024b8 <HAL_TIM_MspPostInit+0x50>
  /* USER CODE BEGIN TIM8_MspPostInit 1 */

  /* USER CODE END TIM8_MspPostInit 1 */
  }

}
 8002488:	b00a      	add	sp, #40	@ 0x28
 800248a:	bd70      	pop	{r4, r5, r6, pc}
    __HAL_RCC_GPIOE_CLK_ENABLE();
 800248c:	4b2e      	ldr	r3, [pc, #184]	@ (8002548 <HAL_TIM_MspPostInit+0xe0>)
    GPIO_InitStruct.Alternate = GPIO_AF1_TIM1;
 800248e:	2401      	movs	r4, #1
    HAL_GPIO_Init(GPIOE, &GPIO_InitStruct);
 8002490:	a904      	add	r1, sp, #16
 8002492:	482e      	ldr	r0, [pc, #184]	@ (800254c <HAL_TIM_MspPostInit+0xe4>)
    __HAL_RCC_GPIOE_CLK_ENABLE();
 8002494:	6b1a      	ldr	r2, [r3, #48]	@ 0x30
 8002496:	f042 0210 	orr.w	r2, r2, #16
 800249a:	631a      	str	r2, [r3, #48]	@ 0x30
 800249c:	6b1b      	ldr	r3, [r3, #48]	@ 0x30
    GPIO_InitStruct.Alternate = GPIO_AF1_TIM1;
 800249e:	9408      	str	r4, [sp, #32]
    __HAL_RCC_GPIOE_CLK_ENABLE();
 80024a0:	f003 0310 	and.w	r3, r3, #16
    GPIO_InitStruct.Pin = PWM1_L_Pin|PWM2_L_Pin|PWM3_L_Pin|PWM4_L_Pin
 80024a4:	ed9f 7b24 	vldr	d7, [pc, #144]	@ 8002538 <HAL_TIM_MspPostInit+0xd0>
    __HAL_RCC_GPIOE_CLK_ENABLE();
 80024a8:	9300      	str	r3, [sp, #0]
 80024aa:	9b00      	ldr	r3, [sp, #0]
    GPIO_InitStruct.Pin = PWM1_L_Pin|PWM2_L_Pin|PWM3_L_Pin|PWM4_L_Pin
 80024ac:	ed8d 7b04 	vstr	d7, [sp, #16]
    HAL_GPIO_Init(GPIOE, &GPIO_InitStruct);
 80024b0:	f001 fa26 	bl	8003900 <HAL_GPIO_Init>
}
 80024b4:	b00a      	add	sp, #40	@ 0x28
 80024b6:	bd70      	pop	{r4, r5, r6, pc}
    __HAL_RCC_GPIOA_CLK_ENABLE();
 80024b8:	4b23      	ldr	r3, [pc, #140]	@ (8002548 <HAL_TIM_MspPostInit+0xe0>)
    GPIO_InitStruct.Alternate = GPIO_AF3_TIM8;
 80024ba:	2503      	movs	r5, #3
    HAL_GPIO_Init(PWM1_R_GPIO_Port, &GPIO_InitStruct);
 80024bc:	4824      	ldr	r0, [pc, #144]	@ (8002550 <HAL_TIM_MspPostInit+0xe8>)
    GPIO_InitStruct.Mode = GPIO_MODE_AF_PP;
 80024be:	2602      	movs	r6, #2
    __HAL_RCC_GPIOA_CLK_ENABLE();
 80024c0:	6b1a      	ldr	r2, [r3, #48]	@ 0x30
 80024c2:	f042 0201 	orr.w	r2, r2, #1
 80024c6:	631a      	str	r2, [r3, #48]	@ 0x30
 80024c8:	6b1a      	ldr	r2, [r3, #48]	@ 0x30
 80024ca:	f002 0201 	and.w	r2, r2, #1
 80024ce:	9201      	str	r2, [sp, #4]
 80024d0:	9a01      	ldr	r2, [sp, #4]
    __HAL_RCC_GPIOB_CLK_ENABLE();
 80024d2:	6b1a      	ldr	r2, [r3, #48]	@ 0x30
 80024d4:	f042 0202 	orr.w	r2, r2, #2
 80024d8:	631a      	str	r2, [r3, #48]	@ 0x30
 80024da:	6b1a      	ldr	r2, [r3, #48]	@ 0x30
 80024dc:	f002 0202 	and.w	r2, r2, #2
 80024e0:	9202      	str	r2, [sp, #8]
 80024e2:	9a02      	ldr	r2, [sp, #8]
    __HAL_RCC_GPIOC_CLK_ENABLE();
 80024e4:	6b1a      	ldr	r2, [r3, #48]	@ 0x30
 80024e6:	f042 0204 	orr.w	r2, r2, #4
 80024ea:	631a      	str	r2, [r3, #48]	@ 0x30
    GPIO_InitStruct.Pin = PWM1_R_Pin;
 80024ec:	2220      	movs	r2, #32
    __HAL_RCC_GPIOC_CLK_ENABLE();
 80024ee:	6b1b      	ldr	r3, [r3, #48]	@ 0x30
    GPIO_InitStruct.Alternate = GPIO_AF3_TIM8;
 80024f0:	9508      	str	r5, [sp, #32]
    __HAL_RCC_GPIOC_CLK_ENABLE();
 80024f2:	f003 0304 	and.w	r3, r3, #4
 80024f6:	9303      	str	r3, [sp, #12]
    GPIO_InitStruct.Pin = PWM1_R_Pin;
 80024f8:	2302      	movs	r3, #2
    __HAL_RCC_GPIOC_CLK_ENABLE();
 80024fa:	9903      	ldr	r1, [sp, #12]
    HAL_GPIO_Init(PWM1_R_GPIO_Port, &GPIO_InitStruct);
 80024fc:	a904      	add	r1, sp, #16
    GPIO_InitStruct.Pin = PWM1_R_Pin;
 80024fe:	e9cd 2304 	strd	r2, r3, [sp, #16]
    HAL_GPIO_Init(PWM1_R_GPIO_Port, &GPIO_InitStruct);
 8002502:	f001 f9fd 	bl	8003900 <HAL_GPIO_Init>
    GPIO_InitStruct.Pin = PWM3_R_Pin|PWM5_R_Pin;
 8002506:	f44f 4340 	mov.w	r3, #49152	@ 0xc000
    HAL_GPIO_Init(GPIOB, &GPIO_InitStruct);
 800250a:	a904      	add	r1, sp, #16
 800250c:	4811      	ldr	r0, [pc, #68]	@ (8002554 <HAL_TIM_MspPostInit+0xec>)
    GPIO_InitStruct.Pin = PWM3_R_Pin|PWM5_R_Pin;
 800250e:	9304      	str	r3, [sp, #16]
    GPIO_InitStruct.Speed = GPIO_SPEED_FREQ_LOW;
 8002510:	9407      	str	r4, [sp, #28]
    GPIO_InitStruct.Alternate = GPIO_AF3_TIM8;
 8002512:	9508      	str	r5, [sp, #32]
    GPIO_InitStruct.Mode = GPIO_MODE_AF_PP;
 8002514:	e9cd 6405 	strd	r6, r4, [sp, #20]
    HAL_GPIO_Init(GPIOB, &GPIO_InitStruct);
 8002518:	f001 f9f2 	bl	8003900 <HAL_GPIO_Init>
    GPIO_InitStruct.Pin = PWM2_R_Pin|PWM4_R_Pin|PWM6_R_Pin;
 800251c:	f44f 73e0 	mov.w	r3, #448	@ 0x1c0
    HAL_GPIO_Init(GPIOC, &GPIO_InitStruct);
 8002520:	a904      	add	r1, sp, #16
 8002522:	480d      	ldr	r0, [pc, #52]	@ (8002558 <HAL_TIM_MspPostInit+0xf0>)
    GPIO_InitStruct.Mode = GPIO_MODE_AF_PP;
 8002524:	9605      	str	r6, [sp, #20]
    GPIO_InitStruct.Pin = PWM2_R_Pin|PWM4_R_Pin|PWM6_R_Pin;
 8002526:	9304      	str	r3, [sp, #16]
    GPIO_InitStruct.Alternate = GPIO_AF3_TIM8;
 8002528:	9508      	str	r5, [sp, #32]
    GPIO_InitStruct.Speed = GPIO_SPEED_FREQ_LOW;
 800252a:	e9cd 4406 	strd	r4, r4, [sp, #24]
    HAL_GPIO_Init(GPIOC, &GPIO_InitStruct);
 800252e:	f001 f9e7 	bl	8003900 <HAL_GPIO_Init>
}
 8002532:	b00a      	add	sp, #40	@ 0x28
 8002534:	bd70      	pop	{r4, r5, r6, pc}
 8002536:	bf00      	nop
 8002538:	00003f00 	.word	0x00003f00
 800253c:	00000002 	.word	0x00000002
 8002540:	40010000 	.word	0x40010000
 8002544:	40010400 	.word	0x40010400
 8002548:	40023800 	.word	0x40023800
 800254c:	40021000 	.word	0x40021000
 8002550:	40020000 	.word	0x40020000
 8002554:	40020400 	.word	0x40020400
 8002558:	40020800 	.word	0x40020800
 800255c:	00000000 	.word	0x00000000

08002560 <MX_TIM1_Init>:
{
 8002560:	b510      	push	{r4, lr}
  TIM_ClockConfigTypeDef sClockSourceConfig = {0};
 8002562:	2400      	movs	r4, #0
{
 8002564:	b09c      	sub	sp, #112	@ 0x70
  TIM_BreakDeadTimeConfigTypeDef sBreakDeadTimeConfig = {0};
 8002566:	222c      	movs	r2, #44	@ 0x2c
 8002568:	4621      	mov	r1, r4
 800256a:	a810      	add	r0, sp, #64	@ 0x40
  TIM_ClockConfigTypeDef sClockSourceConfig = {0};
 800256c:	9404      	str	r4, [sp, #16]
  TIM_MasterConfigTypeDef sMasterConfig = {0};
 800256e:	9400      	str	r4, [sp, #0]
  TIM_OC_InitTypeDef sConfigOC = {0};
 8002570:	9408      	str	r4, [sp, #32]
  TIM_ClockConfigTypeDef sClockSourceConfig = {0};
 8002572:	9407      	str	r4, [sp, #28]
 8002574:	e9cd 4405 	strd	r4, r4, [sp, #20]
  TIM_MasterConfigTypeDef sMasterConfig = {0};
 8002578:	e9cd 4401 	strd	r4, r4, [sp, #4]
  TIM_OC_InitTypeDef sConfigOC = {0};
 800257c:	e9cd 4409 	strd	r4, r4, [sp, #36]	@ 0x24
 8002580:	e9cd 440b 	strd	r4, r4, [sp, #44]	@ 0x2c
 8002584:	e9cd 440d 	strd	r4, r4, [sp, #52]	@ 0x34
  TIM_BreakDeadTimeConfigTypeDef sBreakDeadTimeConfig = {0};
 8002588:	f003 f9ac 	bl	80058e4 <memset>
  htim1.Instance = TIM1;
 800258c:	4848      	ldr	r0, [pc, #288]	@ (80026b0 <MX_TIM1_Init+0x150>)
  htim1.Init.RepetitionCounter = 1;
 800258e:	2380      	movs	r3, #128	@ 0x80
 8002590:	2201      	movs	r2, #1
  htim1.Init.Prescaler = 0;
 8002592:	6044      	str	r4, [r0, #4]
  htim1.Init.ClockDivision = TIM_CLOCKDIVISION_DIV1;
 8002594:	6104      	str	r4, [r0, #16]
  htim1.Init.Period = (216000000*TS)/2;
 8002596:	2420      	movs	r4, #32
  htim1.Init.RepetitionCounter = 1;
 8002598:	e9c0 2305 	strd	r2, r3, [r0, #20]
  htim1.Instance = TIM1;
 800259c:	4b45      	ldr	r3, [pc, #276]	@ (80026b4 <MX_TIM1_Init+0x154>)
 800259e:	6003      	str	r3, [r0, #0]
  htim1.Init.Period = (216000000*TS)/2;
 80025a0:	f640 238c 	movw	r3, #2700	@ 0xa8c
 80025a4:	e9c0 4302 	strd	r4, r3, [r0, #8]
  if (HAL_TIM_Base_Init(&htim1) != HAL_OK)
 80025a8:	f002 f958 	bl	800485c <HAL_TIM_Base_Init>
 80025ac:	2800      	cmp	r0, #0
 80025ae:	d15c      	bne.n	800266a <MX_TIM1_Init+0x10a>
  sClockSourceConfig.ClockSource = TIM_CLOCKSOURCE_INTERNAL;
 80025b0:	f44f 5380 	mov.w	r3, #4096	@ 0x1000
  if (HAL_TIM_ConfigClockSource(&htim1, &sClockSourceConfig) != HAL_OK)
 80025b4:	a904      	add	r1, sp, #16
 80025b6:	483e      	ldr	r0, [pc, #248]	@ (80026b0 <MX_TIM1_Init+0x150>)
  sClockSourceConfig.ClockSource = TIM_CLOCKSOURCE_INTERNAL;
 80025b8:	9304      	str	r3, [sp, #16]
  if (HAL_TIM_ConfigClockSource(&htim1, &sClockSourceConfig) != HAL_OK)
 80025ba:	f002 ff81 	bl	80054c0 <HAL_TIM_ConfigClockSource>
 80025be:	2800      	cmp	r0, #0
 80025c0:	d16c      	bne.n	800269c <MX_TIM1_Init+0x13c>
  if (HAL_TIM_PWM_Init(&htim1) != HAL_OK)
 80025c2:	483b      	ldr	r0, [pc, #236]	@ (80026b0 <MX_TIM1_Init+0x150>)
 80025c4:	f002 facc 	bl	8004b60 <HAL_TIM_PWM_Init>
 80025c8:	2800      	cmp	r0, #0
 80025ca:	d164      	bne.n	8002696 <MX_TIM1_Init+0x136>
  sMasterConfig.MasterOutputTrigger = TIM_TRGO_UPDATE;
 80025cc:	2300      	movs	r3, #0
 80025ce:	2220      	movs	r2, #32
  if (HAL_TIMEx_MasterConfigSynchronization(&htim1, &sMasterConfig) != HAL_OK)
 80025d0:	4669      	mov	r1, sp
 80025d2:	4837      	ldr	r0, [pc, #220]	@ (80026b0 <MX_TIM1_Init+0x150>)
  sMasterConfig.MasterOutputTrigger = TIM_TRGO_UPDATE;
 80025d4:	e9cd 2300 	strd	r2, r3, [sp]
  sMasterConfig.MasterSlaveMode = TIM_MASTERSLAVEMODE_DISABLE;
 80025d8:	2300      	movs	r3, #0
 80025da:	9302      	str	r3, [sp, #8]
  if (HAL_TIMEx_MasterConfigSynchronization(&htim1, &sMasterConfig) != HAL_OK)
 80025dc:	f003 f8dc 	bl	8005798 <HAL_TIMEx_MasterConfigSynchronization>
 80025e0:	2800      	cmp	r0, #0
 80025e2:	d155      	bne.n	8002690 <MX_TIM1_Init+0x130>
  sConfigOC.Pulse = 0;
 80025e4:	2200      	movs	r2, #0
  sConfigOC.OCMode = TIM_OCMODE_PWM1;
 80025e6:	2160      	movs	r1, #96	@ 0x60
  sConfigOC.OCNPolarity = TIM_OCNPOLARITY_LOW;
 80025e8:	2308      	movs	r3, #8
  sConfigOC.OCFastMode = TIM_OCFAST_DISABLE;
 80025ea:	2000      	movs	r0, #0
  sConfigOC.Pulse = 0;
 80025ec:	e9cd 1208 	strd	r1, r2, [sp, #32]
  sConfigOC.OCFastMode = TIM_OCFAST_DISABLE;
 80025f0:	2100      	movs	r1, #0
  sConfigOC.OCNPolarity = TIM_OCNPOLARITY_LOW;
 80025f2:	e9cd 230a 	strd	r2, r3, [sp, #40]	@ 0x28
  sConfigOC.OCNIdleState = TIM_OCNIDLESTATE_SET;
 80025f6:	f44f 7300 	mov.w	r3, #512	@ 0x200
  sConfigOC.OCFastMode = TIM_OCFAST_DISABLE;
 80025fa:	e9cd 010c 	strd	r0, r1, [sp, #48]	@ 0x30
  if (HAL_TIM_PWM_ConfigChannel(&htim1, &sConfigOC, TIM_CHANNEL_1) != HAL_OK)
 80025fe:	a908      	add	r1, sp, #32
 8002600:	482b      	ldr	r0, [pc, #172]	@ (80026b0 <MX_TIM1_Init+0x150>)
  sConfigOC.OCNIdleState = TIM_OCNIDLESTATE_SET;
 8002602:	930e      	str	r3, [sp, #56]	@ 0x38
  if (HAL_TIM_PWM_ConfigChannel(&htim1, &sConfigOC, TIM_CHANNEL_1) != HAL_OK)
 8002604:	f002 fddc 	bl	80051c0 <HAL_TIM_PWM_ConfigChannel>
 8002608:	2800      	cmp	r0, #0
 800260a:	d13e      	bne.n	800268a <MX_TIM1_Init+0x12a>
  if (HAL_TIM_PWM_ConfigChannel(&htim1, &sConfigOC, TIM_CHANNEL_2) != HAL_OK)
 800260c:	2204      	movs	r2, #4
 800260e:	a908      	add	r1, sp, #32
 8002610:	4827      	ldr	r0, [pc, #156]	@ (80026b0 <MX_TIM1_Init+0x150>)
 8002612:	f002 fdd5 	bl	80051c0 <HAL_TIM_PWM_ConfigChannel>
 8002616:	bba8      	cbnz	r0, 8002684 <MX_TIM1_Init+0x124>
  if (HAL_TIM_PWM_ConfigChannel(&htim1, &sConfigOC, TIM_CHANNEL_3) != HAL_OK)
 8002618:	2208      	movs	r2, #8
 800261a:	a908      	add	r1, sp, #32
 800261c:	4824      	ldr	r0, [pc, #144]	@ (80026b0 <MX_TIM1_Init+0x150>)
 800261e:	f002 fdcf 	bl	80051c0 <HAL_TIM_PWM_ConfigChannel>
 8002622:	bb60      	cbnz	r0, 800267e <MX_TIM1_Init+0x11e>
  sBreakDeadTimeConfig.OffStateRunMode = TIM_OSSR_ENABLE;
 8002624:	f44f 6000 	mov.w	r0, #2048	@ 0x800
  sBreakDeadTimeConfig.OffStateIDLEMode = TIM_OSSI_ENABLE;
 8002628:	f44f 6280 	mov.w	r2, #1024	@ 0x400
  sBreakDeadTimeConfig.LockLevel = TIM_LOCKLEVEL_1;
 800262c:	f44f 7480 	mov.w	r4, #256	@ 0x100
  sBreakDeadTimeConfig.BreakState = TIM_BREAK_DISABLE;
 8002630:	2300      	movs	r3, #0
  if (HAL_TIMEx_ConfigBreakDeadTime(&htim1, &sBreakDeadTimeConfig) != HAL_OK)
 8002632:	a910      	add	r1, sp, #64	@ 0x40
  sBreakDeadTimeConfig.AutomaticOutput = TIM_AUTOMATICOUTPUT_DISABLE;
 8002634:	931a      	str	r3, [sp, #104]	@ 0x68
  sBreakDeadTimeConfig.OffStateIDLEMode = TIM_OSSI_ENABLE;
 8002636:	e9cd 0210 	strd	r0, r2, [sp, #64]	@ 0x40
  sBreakDeadTimeConfig.DeadTime = DT*216000000;
 800263a:	2220      	movs	r2, #32
  sBreakDeadTimeConfig.BreakPolarity = TIM_BREAKPOLARITY_HIGH;
 800263c:	f44f 5000 	mov.w	r0, #8192	@ 0x2000
  sBreakDeadTimeConfig.Break2Polarity = TIM_BREAK2POLARITY_HIGH;
 8002640:	ed9f 7b19 	vldr	d7, [pc, #100]	@ 80026a8 <MX_TIM1_Init+0x148>
  sBreakDeadTimeConfig.DeadTime = DT*216000000;
 8002644:	e9cd 4212 	strd	r4, r2, [sp, #72]	@ 0x48
  sBreakDeadTimeConfig.Break2State = TIM_BREAK2_ENABLE;
 8002648:	f04f 7280 	mov.w	r2, #16777216	@ 0x1000000
  sBreakDeadTimeConfig.BreakPolarity = TIM_BREAKPOLARITY_HIGH;
 800264c:	e9cd 3014 	strd	r3, r0, [sp, #80]	@ 0x50
  if (HAL_TIMEx_ConfigBreakDeadTime(&htim1, &sBreakDeadTimeConfig) != HAL_OK)
 8002650:	4817      	ldr	r0, [pc, #92]	@ (80026b0 <MX_TIM1_Init+0x150>)
  sBreakDeadTimeConfig.Break2State = TIM_BREAK2_ENABLE;
 8002652:	e9cd 3216 	strd	r3, r2, [sp, #88]	@ 0x58
  sBreakDeadTimeConfig.Break2Polarity = TIM_BREAK2POLARITY_HIGH;
 8002656:	ed8d 7b18 	vstr	d7, [sp, #96]	@ 0x60
  if (HAL_TIMEx_ConfigBreakDeadTime(&htim1, &sBreakDeadTimeConfig) != HAL_OK)
 800265a:	f003 f8f7 	bl	800584c <HAL_TIMEx_ConfigBreakDeadTime>
 800265e:	b938      	cbnz	r0, 8002670 <MX_TIM1_Init+0x110>
  HAL_TIM_MspPostInit(&htim1);
 8002660:	4813      	ldr	r0, [pc, #76]	@ (80026b0 <MX_TIM1_Init+0x150>)
 8002662:	f7ff ff01 	bl	8002468 <HAL_TIM_MspPostInit>
}
 8002666:	b01c      	add	sp, #112	@ 0x70
 8002668:	bd10      	pop	{r4, pc}
    Error_Handler();
 800266a:	f7ff fd13 	bl	8002094 <Error_Handler>
 800266e:	e79f      	b.n	80025b0 <MX_TIM1_Init+0x50>
    Error_Handler();
 8002670:	f7ff fd10 	bl	8002094 <Error_Handler>
  HAL_TIM_MspPostInit(&htim1);
 8002674:	480e      	ldr	r0, [pc, #56]	@ (80026b0 <MX_TIM1_Init+0x150>)
 8002676:	f7ff fef7 	bl	8002468 <HAL_TIM_MspPostInit>
}
 800267a:	b01c      	add	sp, #112	@ 0x70
 800267c:	bd10      	pop	{r4, pc}
    Error_Handler();
 800267e:	f7ff fd09 	bl	8002094 <Error_Handler>
 8002682:	e7cf      	b.n	8002624 <MX_TIM1_Init+0xc4>
    Error_Handler();
 8002684:	f7ff fd06 	bl	8002094 <Error_Handler>
 8002688:	e7c6      	b.n	8002618 <MX_TIM1_Init+0xb8>
    Error_Handler();
 800268a:	f7ff fd03 	bl	8002094 <Error_Handler>
 800268e:	e7bd      	b.n	800260c <MX_TIM1_Init+0xac>
    Error_Handler();
 8002690:	f7ff fd00 	bl	8002094 <Error_Handler>
 8002694:	e7a6      	b.n	80025e4 <MX_TIM1_Init+0x84>
    Error_Handler();
 8002696:	f7ff fcfd 	bl	8002094 <Error_Handler>
 800269a:	e797      	b.n	80025cc <MX_TIM1_Init+0x6c>
    Error_Handler();
 800269c:	f7ff fcfa 	bl	8002094 <Error_Handler>
 80026a0:	e78f      	b.n	80025c2 <MX_TIM1_Init+0x62>
 80026a2:	bf00      	nop
 80026a4:	f3af 8000 	nop.w
 80026a8:	02000000 	.word	0x02000000
 80026ac:	00000000 	.word	0x00000000
 80026b0:	200008b8 	.word	0x200008b8
 80026b4:	40010000 	.word	0x40010000

080026b8 <MX_TIM8_Init>:
{
 80026b8:	b510      	push	{r4, lr}
  TIM_ClockConfigTypeDef sClockSourceConfig = {0};
 80026ba:	2400      	movs	r4, #0
{
 80026bc:	b09c      	sub	sp, #112	@ 0x70
  TIM_BreakDeadTimeConfigTypeDef sBreakDeadTimeConfig = {0};
 80026be:	222c      	movs	r2, #44	@ 0x2c
 80026c0:	4621      	mov	r1, r4
 80026c2:	a810      	add	r0, sp, #64	@ 0x40
  TIM_ClockConfigTypeDef sClockSourceConfig = {0};
 80026c4:	9404      	str	r4, [sp, #16]
  TIM_MasterConfigTypeDef sMasterConfig = {0};
 80026c6:	9400      	str	r4, [sp, #0]
  TIM_OC_InitTypeDef sConfigOC = {0};
 80026c8:	9408      	str	r4, [sp, #32]
  TIM_ClockConfigTypeDef sClockSourceConfig = {0};
 80026ca:	9407      	str	r4, [sp, #28]
 80026cc:	e9cd 4405 	strd	r4, r4, [sp, #20]
  TIM_MasterConfigTypeDef sMasterConfig = {0};
 80026d0:	e9cd 4401 	strd	r4, r4, [sp, #4]
  TIM_OC_InitTypeDef sConfigOC = {0};
 80026d4:	e9cd 4409 	strd	r4, r4, [sp, #36]	@ 0x24
 80026d8:	e9cd 440b 	strd	r4, r4, [sp, #44]	@ 0x2c
 80026dc:	e9cd 440d 	strd	r4, r4, [sp, #52]	@ 0x34
  TIM_BreakDeadTimeConfigTypeDef sBreakDeadTimeConfig = {0};
 80026e0:	f003 f900 	bl	80058e4 <memset>
  htim8.Instance = TIM8;
 80026e4:	4844      	ldr	r0, [pc, #272]	@ (80027f8 <MX_TIM8_Init+0x140>)
 80026e6:	4b45      	ldr	r3, [pc, #276]	@ (80027fc <MX_TIM8_Init+0x144>)
  htim8.Init.RepetitionCounter = 0;
 80026e8:	6184      	str	r4, [r0, #24]
  htim8.Instance = TIM8;
 80026ea:	6003      	str	r3, [r0, #0]
  htim8.Init.Period = 65535;
 80026ec:	f64f 73ff 	movw	r3, #65535	@ 0xffff
  htim8.Init.CounterMode = TIM_COUNTERMODE_UP;
 80026f0:	e9c0 4401 	strd	r4, r4, [r0, #4]
  htim8.Init.RepetitionCounter = 0;
 80026f4:	e9c0 4404 	strd	r4, r4, [r0, #16]
  htim8.Init.Period = 65535;
 80026f8:	60c3      	str	r3, [r0, #12]
  if (HAL_TIM_Base_Init(&htim8) != HAL_OK)
 80026fa:	f002 f8af 	bl	800485c <HAL_TIM_Base_Init>
 80026fe:	2800      	cmp	r0, #0
 8002700:	d157      	bne.n	80027b2 <MX_TIM8_Init+0xfa>
  sClockSourceConfig.ClockSource = TIM_CLOCKSOURCE_INTERNAL;
 8002702:	f44f 5380 	mov.w	r3, #4096	@ 0x1000
  if (HAL_TIM_ConfigClockSource(&htim8, &sClockSourceConfig) != HAL_OK)
 8002706:	a904      	add	r1, sp, #16
 8002708:	483b      	ldr	r0, [pc, #236]	@ (80027f8 <MX_TIM8_Init+0x140>)
  sClockSourceConfig.ClockSource = TIM_CLOCKSOURCE_INTERNAL;
 800270a:	9304      	str	r3, [sp, #16]
  if (HAL_TIM_ConfigClockSource(&htim8, &sClockSourceConfig) != HAL_OK)
 800270c:	f002 fed8 	bl	80054c0 <HAL_TIM_ConfigClockSource>
 8002710:	2800      	cmp	r0, #0
 8002712:	d16a      	bne.n	80027ea <MX_TIM8_Init+0x132>
  if (HAL_TIM_PWM_Init(&htim8) != HAL_OK)
 8002714:	4838      	ldr	r0, [pc, #224]	@ (80027f8 <MX_TIM8_Init+0x140>)
 8002716:	f002 fa23 	bl	8004b60 <HAL_TIM_PWM_Init>
 800271a:	2800      	cmp	r0, #0
 800271c:	d162      	bne.n	80027e4 <MX_TIM8_Init+0x12c>
  if (HAL_TIM_OC_Init(&htim8) != HAL_OK)
 800271e:	4836      	ldr	r0, [pc, #216]	@ (80027f8 <MX_TIM8_Init+0x140>)
 8002720:	f002 f986 	bl	8004a30 <HAL_TIM_OC_Init>
 8002724:	2800      	cmp	r0, #0
 8002726:	d15a      	bne.n	80027de <MX_TIM8_Init+0x126>
  sMasterConfig.MasterOutputTrigger = TIM_TRGO_RESET;
 8002728:	2300      	movs	r3, #0
 800272a:	2200      	movs	r2, #0
  if (HAL_TIMEx_MasterConfigSynchronization(&htim8, &sMasterConfig) != HAL_OK)
 800272c:	4669      	mov	r1, sp
 800272e:	4832      	ldr	r0, [pc, #200]	@ (80027f8 <MX_TIM8_Init+0x140>)
  sMasterConfig.MasterOutputTrigger = TIM_TRGO_RESET;
 8002730:	e9cd 2300 	strd	r2, r3, [sp]
  sMasterConfig.MasterSlaveMode = TIM_MASTERSLAVEMODE_DISABLE;
 8002734:	2300      	movs	r3, #0
 8002736:	9302      	str	r3, [sp, #8]
  if (HAL_TIMEx_MasterConfigSynchronization(&htim8, &sMasterConfig) != HAL_OK)
 8002738:	f003 f82e 	bl	8005798 <HAL_TIMEx_MasterConfigSynchronization>
 800273c:	2800      	cmp	r0, #0
 800273e:	d14b      	bne.n	80027d8 <MX_TIM8_Init+0x120>
  sConfigOC.OCFastMode = TIM_OCFAST_DISABLE;
 8002740:	2000      	movs	r0, #0
 8002742:	2100      	movs	r1, #0
  sConfigOC.OCMode = TIM_OCMODE_PWM1;
 8002744:	2200      	movs	r2, #0
 8002746:	2360      	movs	r3, #96	@ 0x60
  sConfigOC.OCFastMode = TIM_OCFAST_DISABLE;
 8002748:	e9cd 010c 	strd	r0, r1, [sp, #48]	@ 0x30
  if (HAL_TIM_PWM_ConfigChannel(&htim8, &sConfigOC, TIM_CHANNEL_1) != HAL_OK)
 800274c:	a908      	add	r1, sp, #32
 800274e:	482a      	ldr	r0, [pc, #168]	@ (80027f8 <MX_TIM8_Init+0x140>)
  sConfigOC.OCNIdleState = TIM_OCNIDLESTATE_RESET;
 8002750:	920e      	str	r2, [sp, #56]	@ 0x38
  sConfigOC.OCMode = TIM_OCMODE_PWM1;
 8002752:	e9cd 3208 	strd	r3, r2, [sp, #32]
  sConfigOC.OCNPolarity = TIM_OCNPOLARITY_HIGH;
 8002756:	e9cd 220a 	strd	r2, r2, [sp, #40]	@ 0x28
  if (HAL_TIM_PWM_ConfigChannel(&htim8, &sConfigOC, TIM_CHANNEL_1) != HAL_OK)
 800275a:	f002 fd31 	bl	80051c0 <HAL_TIM_PWM_ConfigChannel>
 800275e:	2800      	cmp	r0, #0
 8002760:	d137      	bne.n	80027d2 <MX_TIM8_Init+0x11a>
  if (HAL_TIM_PWM_ConfigChannel(&htim8, &sConfigOC, TIM_CHANNEL_2) != HAL_OK)
 8002762:	2204      	movs	r2, #4
 8002764:	a908      	add	r1, sp, #32
 8002766:	4824      	ldr	r0, [pc, #144]	@ (80027f8 <MX_TIM8_Init+0x140>)
 8002768:	f002 fd2a 	bl	80051c0 <HAL_TIM_PWM_ConfigChannel>
 800276c:	bb70      	cbnz	r0, 80027cc <MX_TIM8_Init+0x114>
  sConfigOC.OCMode = TIM_OCMODE_TIMING;
 800276e:	2300      	movs	r3, #0
  if (HAL_TIM_OC_ConfigChannel(&htim8, &sConfigOC, TIM_CHANNEL_3) != HAL_OK)
 8002770:	2208      	movs	r2, #8
 8002772:	a908      	add	r1, sp, #32
 8002774:	4820      	ldr	r0, [pc, #128]	@ (80027f8 <MX_TIM8_Init+0x140>)
  sConfigOC.OCMode = TIM_OCMODE_TIMING;
 8002776:	9308      	str	r3, [sp, #32]
  if (HAL_TIM_OC_ConfigChannel(&htim8, &sConfigOC, TIM_CHANNEL_3) != HAL_OK)
 8002778:	f002 fb1e 	bl	8004db8 <HAL_TIM_OC_ConfigChannel>
 800277c:	bb18      	cbnz	r0, 80027c6 <MX_TIM8_Init+0x10e>
  sBreakDeadTimeConfig.OffStateRunMode = TIM_OSSR_DISABLE;
 800277e:	2300      	movs	r3, #0
  sBreakDeadTimeConfig.BreakPolarity = TIM_BREAKPOLARITY_HIGH;
 8002780:	f44f 5200 	mov.w	r2, #8192	@ 0x2000
  if (HAL_TIMEx_ConfigBreakDeadTime(&htim8, &sBreakDeadTimeConfig) != HAL_OK)
 8002784:	a910      	add	r1, sp, #64	@ 0x40
 8002786:	481c      	ldr	r0, [pc, #112]	@ (80027f8 <MX_TIM8_Init+0x140>)
  sBreakDeadTimeConfig.AutomaticOutput = TIM_AUTOMATICOUTPUT_DISABLE;
 8002788:	931a      	str	r3, [sp, #104]	@ 0x68
  sBreakDeadTimeConfig.Break2Polarity = TIM_BREAK2POLARITY_HIGH;
 800278a:	ed9f 7b19 	vldr	d7, [pc, #100]	@ 80027f0 <MX_TIM8_Init+0x138>
  sBreakDeadTimeConfig.OffStateIDLEMode = TIM_OSSI_DISABLE;
 800278e:	e9cd 3310 	strd	r3, r3, [sp, #64]	@ 0x40
  sBreakDeadTimeConfig.DeadTime = 0;
 8002792:	e9cd 3312 	strd	r3, r3, [sp, #72]	@ 0x48
  sBreakDeadTimeConfig.BreakPolarity = TIM_BREAKPOLARITY_HIGH;
 8002796:	e9cd 3214 	strd	r3, r2, [sp, #80]	@ 0x50
  sBreakDeadTimeConfig.Break2State = TIM_BREAK2_DISABLE;
 800279a:	e9cd 3316 	strd	r3, r3, [sp, #88]	@ 0x58
  sBreakDeadTimeConfig.Break2Polarity = TIM_BREAK2POLARITY_HIGH;
 800279e:	ed8d 7b18 	vstr	d7, [sp, #96]	@ 0x60
  if (HAL_TIMEx_ConfigBreakDeadTime(&htim8, &sBreakDeadTimeConfig) != HAL_OK)
 80027a2:	f003 f853 	bl	800584c <HAL_TIMEx_ConfigBreakDeadTime>
 80027a6:	b938      	cbnz	r0, 80027b8 <MX_TIM8_Init+0x100>
  HAL_TIM_MspPostInit(&htim8);
 80027a8:	4813      	ldr	r0, [pc, #76]	@ (80027f8 <MX_TIM8_Init+0x140>)
 80027aa:	f7ff fe5d 	bl	8002468 <HAL_TIM_MspPostInit>
}
 80027ae:	b01c      	add	sp, #112	@ 0x70
 80027b0:	bd10      	pop	{r4, pc}
    Error_Handler();
 80027b2:	f7ff fc6f 	bl	8002094 <Error_Handler>
 80027b6:	e7a4      	b.n	8002702 <MX_TIM8_Init+0x4a>
    Error_Handler();
 80027b8:	f7ff fc6c 	bl	8002094 <Error_Handler>
  HAL_TIM_MspPostInit(&htim8);
 80027bc:	480e      	ldr	r0, [pc, #56]	@ (80027f8 <MX_TIM8_Init+0x140>)
 80027be:	f7ff fe53 	bl	8002468 <HAL_TIM_MspPostInit>
}
 80027c2:	b01c      	add	sp, #112	@ 0x70
 80027c4:	bd10      	pop	{r4, pc}
    Error_Handler();
 80027c6:	f7ff fc65 	bl	8002094 <Error_Handler>
 80027ca:	e7d8      	b.n	800277e <MX_TIM8_Init+0xc6>
    Error_Handler();
 80027cc:	f7ff fc62 	bl	8002094 <Error_Handler>
 80027d0:	e7cd      	b.n	800276e <MX_TIM8_Init+0xb6>
    Error_Handler();
 80027d2:	f7ff fc5f 	bl	8002094 <Error_Handler>
 80027d6:	e7c4      	b.n	8002762 <MX_TIM8_Init+0xaa>
    Error_Handler();
 80027d8:	f7ff fc5c 	bl	8002094 <Error_Handler>
 80027dc:	e7b0      	b.n	8002740 <MX_TIM8_Init+0x88>
    Error_Handler();
 80027de:	f7ff fc59 	bl	8002094 <Error_Handler>
 80027e2:	e7a1      	b.n	8002728 <MX_TIM8_Init+0x70>
    Error_Handler();
 80027e4:	f7ff fc56 	bl	8002094 <Error_Handler>
 80027e8:	e799      	b.n	800271e <MX_TIM8_Init+0x66>
    Error_Handler();
 80027ea:	f7ff fc53 	bl	8002094 <Error_Handler>
 80027ee:	e791      	b.n	8002714 <MX_TIM8_Init+0x5c>
 80027f0:	02000000 	.word	0x02000000
 80027f4:	00000000 	.word	0x00000000
 80027f8:	20000778 	.word	0x20000778
 80027fc:	40010400 	.word	0x40010400

08002800 <MX_USB_OTG_FS_USB_Init>:
  /* USER CODE END USB_OTG_FS_Init 1 */
  /* USER CODE BEGIN USB_OTG_FS_Init 2 */

  /* USER CODE END USB_OTG_FS_Init 2 */

}
 8002800:	4770      	bx	lr
 8002802:	bf00      	nop

08002804 <Reset_Handler>:

    .section  .text.Reset_Handler
  .weak  Reset_Handler
  .type  Reset_Handler, %function
Reset_Handler:  
  ldr   sp, =_estack      /* set stack pointer */
 8002804:	f8df d034 	ldr.w	sp, [pc, #52]	@ 800283c <LoopFillZerobss+0x12>

/* Copy the data segment initializers from flash to SRAM */  
  ldr r0, =_sdata
 8002808:	480d      	ldr	r0, [pc, #52]	@ (8002840 <LoopFillZerobss+0x16>)
  ldr r1, =_edata
 800280a:	490e      	ldr	r1, [pc, #56]	@ (8002844 <LoopFillZerobss+0x1a>)
  ldr r2, =_sidata
 800280c:	4a0e      	ldr	r2, [pc, #56]	@ (8002848 <LoopFillZerobss+0x1e>)
  movs r3, #0
 800280e:	2300      	movs	r3, #0
  b LoopCopyDataInit
 8002810:	e002      	b.n	8002818 <LoopCopyDataInit>

08002812 <CopyDataInit>:

CopyDataInit:
  ldr r4, [r2, r3]
 8002812:	58d4      	ldr	r4, [r2, r3]
  str r4, [r0, r3]
 8002814:	50c4      	str	r4, [r0, r3]
  adds r3, r3, #4
 8002816:	3304      	adds	r3, #4

08002818 <LoopCopyDataInit>:

LoopCopyDataInit:
  adds r4, r0, r3
 8002818:	18c4      	adds	r4, r0, r3
  cmp r4, r1
 800281a:	428c      	cmp	r4, r1
  bcc CopyDataInit
 800281c:	d3f9      	bcc.n	8002812 <CopyDataInit>
  
/* Zero fill the bss segment. */
  ldr r2, =_sbss
 800281e:	4a0b      	ldr	r2, [pc, #44]	@ (800284c <LoopFillZerobss+0x22>)
  ldr r4, =_ebss
 8002820:	4c0b      	ldr	r4, [pc, #44]	@ (8002850 <LoopFillZerobss+0x26>)
  movs r3, #0
 8002822:	2300      	movs	r3, #0
  b LoopFillZerobss
 8002824:	e001      	b.n	800282a <LoopFillZerobss>

08002826 <FillZerobss>:

FillZerobss:
  str  r3, [r2]
 8002826:	6013      	str	r3, [r2, #0]
  adds r2, r2, #4
 8002828:	3204      	adds	r2, #4

0800282a <LoopFillZerobss>:

LoopFillZerobss:
  cmp r2, r4
 800282a:	42a2      	cmp	r2, r4
  bcc FillZerobss
 800282c:	d3fb      	bcc.n	8002826 <FillZerobss>

/* Call the clock system intitialization function.*/
  bl  SystemInit   
 800282e:	f7ff fc95 	bl	800215c <SystemInit>
/* Call static constructors */
    bl __libc_init_array
 8002832:	f003 f865 	bl	8005900 <__libc_init_array>
/* Call the application's entry point.*/
  bl  main
 8002836:	f7ff fbb3 	bl	8001fa0 <main>
  bx  lr    
 800283a:	4770      	bx	lr
  ldr   sp, =_estack      /* set stack pointer */
 800283c:	20080000 	.word	0x20080000
  ldr r0, =_sdata
 8002840:	20000000 	.word	0x20000000
  ldr r1, =_edata
 8002844:	200001c4 	.word	0x200001c4
  ldr r2, =_sidata
 8002848:	0800e5e8 	.word	0x0800e5e8
  ldr r2, =_sbss
 800284c:	200001c8 	.word	0x200001c8
  ldr r4, =_ebss
 8002850:	20000a40 	.word	0x20000a40

08002854 <ADC_IRQHandler>:
 * @retval None       
*/
    .section  .text.Default_Handler,"ax",%progbits
Default_Handler:
Infinite_Loop:
  b  Infinite_Loop
 8002854:	e7fe      	b.n	8002854 <ADC_IRQHandler>
	...

08002858 <HAL_InitTick>:
  * @retval HAL status
  */
__weak HAL_StatusTypeDef HAL_InitTick(uint32_t TickPriority)
{
  /* Configure the SysTick to have interrupt in 1ms time basis*/
  if (HAL_SYSTICK_Config(SystemCoreClock / (1000U / uwTickFreq)) > 0U)
 8002858:	490e      	ldr	r1, [pc, #56]	@ (8002894 <HAL_InitTick+0x3c>)
 800285a:	f44f 737a 	mov.w	r3, #1000	@ 0x3e8
 800285e:	4a0e      	ldr	r2, [pc, #56]	@ (8002898 <HAL_InitTick+0x40>)
{
 8002860:	b510      	push	{r4, lr}
  if (HAL_SYSTICK_Config(SystemCoreClock / (1000U / uwTickFreq)) > 0U)
 8002862:	7809      	ldrb	r1, [r1, #0]
{
 8002864:	4604      	mov	r4, r0
  if (HAL_SYSTICK_Config(SystemCoreClock / (1000U / uwTickFreq)) > 0U)
 8002866:	6812      	ldr	r2, [r2, #0]
 8002868:	fbb3 f3f1 	udiv	r3, r3, r1
 800286c:	fbb2 f0f3 	udiv	r0, r2, r3
 8002870:	f000 fe08 	bl	8003484 <HAL_SYSTICK_Config>
  {
    return HAL_ERROR;
  }

  /* Configure the SysTick IRQ priority */
  if (TickPriority < (1UL << __NVIC_PRIO_BITS))
 8002874:	b908      	cbnz	r0, 800287a <HAL_InitTick+0x22>
 8002876:	2c0f      	cmp	r4, #15
 8002878:	d901      	bls.n	800287e <HAL_InitTick+0x26>
    return HAL_ERROR;
 800287a:	2001      	movs	r0, #1
    return HAL_ERROR;
  }

  /* Return function status */
  return HAL_OK;
}
 800287c:	bd10      	pop	{r4, pc}
    HAL_NVIC_SetPriority(SysTick_IRQn, TickPriority, 0U);
 800287e:	2200      	movs	r2, #0
 8002880:	4621      	mov	r1, r4
 8002882:	f04f 30ff 	mov.w	r0, #4294967295
 8002886:	f000 fdb3 	bl	80033f0 <HAL_NVIC_SetPriority>
    uwTickPrio = TickPriority;
 800288a:	4b04      	ldr	r3, [pc, #16]	@ (800289c <HAL_InitTick+0x44>)
 800288c:	2000      	movs	r0, #0
 800288e:	601c      	str	r4, [r3, #0]
}
 8002890:	bd10      	pop	{r4, pc}
 8002892:	bf00      	nop
 8002894:	2000016c 	.word	0x2000016c
 8002898:	20000168 	.word	0x20000168
 800289c:	20000170 	.word	0x20000170

080028a0 <HAL_Init>:
{
 80028a0:	b508      	push	{r3, lr}
  HAL_NVIC_SetPriorityGrouping(NVIC_PRIORITYGROUP_4);
 80028a2:	2003      	movs	r0, #3
 80028a4:	f000 fd92 	bl	80033cc <HAL_NVIC_SetPriorityGrouping>
  HAL_InitTick(TICK_INT_PRIORITY);
 80028a8:	200f      	movs	r0, #15
 80028aa:	f7ff ffd5 	bl	8002858 <HAL_InitTick>
  HAL_MspInit();
 80028ae:	f7ff fbf3 	bl	8002098 <HAL_MspInit>
}
 80028b2:	2000      	movs	r0, #0
 80028b4:	bd08      	pop	{r3, pc}
 80028b6:	bf00      	nop

080028b8 <HAL_IncTick>:
  *      implementations in user file.
  * @retval None
  */
__weak void HAL_IncTick(void)
{
  uwTick += uwTickFreq;
 80028b8:	4a03      	ldr	r2, [pc, #12]	@ (80028c8 <HAL_IncTick+0x10>)
 80028ba:	4b04      	ldr	r3, [pc, #16]	@ (80028cc <HAL_IncTick+0x14>)
 80028bc:	6811      	ldr	r1, [r2, #0]
 80028be:	781b      	ldrb	r3, [r3, #0]
 80028c0:	440b      	add	r3, r1
 80028c2:	6013      	str	r3, [r2, #0]
}
 80028c4:	4770      	bx	lr
 80028c6:	bf00      	nop
 80028c8:	20000904 	.word	0x20000904
 80028cc:	2000016c 	.word	0x2000016c

080028d0 <HAL_GetTick>:
  *       implementations in user file.
  * @retval tick value
  */
__weak uint32_t HAL_GetTick(void)
{
  return uwTick;
 80028d0:	4b01      	ldr	r3, [pc, #4]	@ (80028d8 <HAL_GetTick+0x8>)
 80028d2:	6818      	ldr	r0, [r3, #0]
}
 80028d4:	4770      	bx	lr
 80028d6:	bf00      	nop
 80028d8:	20000904 	.word	0x20000904

080028dc <HAL_Delay>:
  *       implementations in user file.
  * @param Delay  specifies the delay time length, in milliseconds.
  * @retval None
  */
__weak void HAL_Delay(uint32_t Delay)
{
 80028dc:	b538      	push	{r3, r4, r5, lr}
 80028de:	4604      	mov	r4, r0
  uint32_t tickstart = HAL_GetTick();
 80028e0:	f7ff fff6 	bl	80028d0 <HAL_GetTick>
 80028e4:	4605      	mov	r5, r0
  uint32_t wait = Delay;

  /* Add a freq to guarantee minimum wait */
  if (wait < HAL_MAX_DELAY)
 80028e6:	1c63      	adds	r3, r4, #1
 80028e8:	d002      	beq.n	80028f0 <HAL_Delay+0x14>
  {
    wait += (uint32_t)(uwTickFreq);
 80028ea:	4b04      	ldr	r3, [pc, #16]	@ (80028fc <HAL_Delay+0x20>)
 80028ec:	781b      	ldrb	r3, [r3, #0]
 80028ee:	441c      	add	r4, r3
  }

  while ((HAL_GetTick() - tickstart) < wait)
 80028f0:	f7ff ffee 	bl	80028d0 <HAL_GetTick>
 80028f4:	1b40      	subs	r0, r0, r5
 80028f6:	42a0      	cmp	r0, r4
 80028f8:	d3fa      	bcc.n	80028f0 <HAL_Delay+0x14>
  {
  }
}
 80028fa:	bd38      	pop	{r3, r4, r5, pc}
 80028fc:	2000016c 	.word	0x2000016c

08002900 <HAL_ADC_Init>:
HAL_StatusTypeDef HAL_ADC_Init(ADC_HandleTypeDef* hadc)
{
  HAL_StatusTypeDef tmp_hal_status = HAL_OK;
  
  /* Check ADC handle */
  if(hadc == NULL)
 8002900:	2800      	cmp	r0, #0
 8002902:	f000 809d 	beq.w	8002a40 <HAL_ADC_Init+0x140>
{
 8002906:	b538      	push	{r3, r4, r5, lr}
  if(hadc->Init.ExternalTrigConv != ADC_SOFTWARE_START)
  {
    assert_param(IS_ADC_EXT_TRIG_EDGE(hadc->Init.ExternalTrigConvEdge));
  }

  if(hadc->State == HAL_ADC_STATE_RESET)
 8002908:	6c05      	ldr	r5, [r0, #64]	@ 0x40
 800290a:	4604      	mov	r4, r0
 800290c:	b13d      	cbz	r5, 800291e <HAL_ADC_Init+0x1e>
    hadc->Lock = HAL_UNLOCKED;
  }
  
  /* Configuration of ADC parameters if previous preliminary actions are      */ 
  /* correctly completed.                                                     */
  if (HAL_IS_BIT_CLR(hadc->State, HAL_ADC_STATE_ERROR_INTERNAL))
 800290e:	6c23      	ldr	r3, [r4, #64]	@ 0x40
 8002910:	06db      	lsls	r3, r3, #27
 8002912:	d50c      	bpl.n	800292e <HAL_ADC_Init+0x2e>
  {
    tmp_hal_status = HAL_ERROR;
  }
  
  /* Release Lock */
  __HAL_UNLOCK(hadc);
 8002914:	2300      	movs	r3, #0
    tmp_hal_status = HAL_ERROR;
 8002916:	2001      	movs	r0, #1
  __HAL_UNLOCK(hadc);
 8002918:	f884 303c 	strb.w	r3, [r4, #60]	@ 0x3c

  /* Return function status */
  return tmp_hal_status;
}
 800291c:	bd38      	pop	{r3, r4, r5, pc}
    HAL_ADC_MspInit(hadc);
 800291e:	f7fe ffa7 	bl	8001870 <HAL_ADC_MspInit>
    ADC_CLEAR_ERRORCODE(hadc);
 8002922:	6465      	str	r5, [r4, #68]	@ 0x44
  if (HAL_IS_BIT_CLR(hadc->State, HAL_ADC_STATE_ERROR_INTERNAL))
 8002924:	6c23      	ldr	r3, [r4, #64]	@ 0x40
    hadc->Lock = HAL_UNLOCKED;
 8002926:	f884 503c 	strb.w	r5, [r4, #60]	@ 0x3c
  if (HAL_IS_BIT_CLR(hadc->State, HAL_ADC_STATE_ERROR_INTERNAL))
 800292a:	06db      	lsls	r3, r3, #27
 800292c:	d4f2      	bmi.n	8002914 <HAL_ADC_Init+0x14>
    ADC_STATE_CLR_SET(hadc->State,
 800292e:	6c21      	ldr	r1, [r4, #64]	@ 0x40
 8002930:	4b47      	ldr	r3, [pc, #284]	@ (8002a50 <HAL_ADC_Init+0x150>)
  */
static void ADC_Init(ADC_HandleTypeDef* hadc)
{
  /* Set ADC parameters */
  /* Set the ADC clock prescaler */
  ADC->CCR &= ~(ADC_CCR_ADCPRE);
 8002932:	4a48      	ldr	r2, [pc, #288]	@ (8002a54 <HAL_ADC_Init+0x154>)
    ADC_STATE_CLR_SET(hadc->State,
 8002934:	400b      	ands	r3, r1
 8002936:	f043 0302 	orr.w	r3, r3, #2
 800293a:	6423      	str	r3, [r4, #64]	@ 0x40
  ADC->CCR &= ~(ADC_CCR_ADCPRE);
 800293c:	6851      	ldr	r1, [r2, #4]
  ADC->CCR |=  hadc->Init.ClockPrescaler;
  
  /* Set ADC scan mode */
  hadc->Instance->CR1 &= ~(ADC_CR1_SCAN);
 800293e:	6823      	ldr	r3, [r4, #0]
  ADC->CCR &= ~(ADC_CCR_ADCPRE);
 8002940:	f421 3140 	bic.w	r1, r1, #196608	@ 0x30000
 8002944:	6051      	str	r1, [r2, #4]
  ADC->CCR |=  hadc->Init.ClockPrescaler;
 8002946:	6850      	ldr	r0, [r2, #4]
 8002948:	6861      	ldr	r1, [r4, #4]
 800294a:	4308      	orrs	r0, r1
  /* Enable external trigger if trigger selection is different of software  */
  /* start.                                                                 */
  /* Note: This configuration keeps the hardware feature of parameter       */
  /*       ExternalTrigConvEdge "trigger edge none" equivalent to           */
  /*       software start.                                                  */
  if(hadc->Init.ExternalTrigConv != ADC_SOFTWARE_START)
 800294c:	4942      	ldr	r1, [pc, #264]	@ (8002a58 <HAL_ADC_Init+0x158>)
  ADC->CCR |=  hadc->Init.ClockPrescaler;
 800294e:	6050      	str	r0, [r2, #4]
  hadc->Instance->CR1 &= ~(ADC_CR1_SCAN);
 8002950:	685a      	ldr	r2, [r3, #4]
  hadc->Instance->CR1 |=  ADC_CR1_SCANCONV(hadc->Init.ScanConvMode);
 8002952:	6920      	ldr	r0, [r4, #16]
  hadc->Instance->CR1 &= ~(ADC_CR1_SCAN);
 8002954:	f422 7280 	bic.w	r2, r2, #256	@ 0x100
 8002958:	605a      	str	r2, [r3, #4]
  hadc->Instance->CR1 |=  ADC_CR1_SCANCONV(hadc->Init.ScanConvMode);
 800295a:	685a      	ldr	r2, [r3, #4]
 800295c:	ea42 2200 	orr.w	r2, r2, r0, lsl #8
  hadc->Instance->CR1 |=  hadc->Init.Resolution;
 8002960:	68a0      	ldr	r0, [r4, #8]
  hadc->Instance->CR1 |=  ADC_CR1_SCANCONV(hadc->Init.ScanConvMode);
 8002962:	605a      	str	r2, [r3, #4]
  hadc->Instance->CR1 &= ~(ADC_CR1_RES);
 8002964:	685a      	ldr	r2, [r3, #4]
 8002966:	f022 7240 	bic.w	r2, r2, #50331648	@ 0x3000000
 800296a:	605a      	str	r2, [r3, #4]
  hadc->Instance->CR1 |=  hadc->Init.Resolution;
 800296c:	685a      	ldr	r2, [r3, #4]
 800296e:	4302      	orrs	r2, r0
  hadc->Instance->CR2 |= hadc->Init.DataAlign;
 8002970:	68e0      	ldr	r0, [r4, #12]
  hadc->Instance->CR1 |=  hadc->Init.Resolution;
 8002972:	605a      	str	r2, [r3, #4]
  hadc->Instance->CR2 &= ~(ADC_CR2_ALIGN);
 8002974:	689a      	ldr	r2, [r3, #8]
 8002976:	f422 6200 	bic.w	r2, r2, #2048	@ 0x800
 800297a:	609a      	str	r2, [r3, #8]
  hadc->Instance->CR2 |= hadc->Init.DataAlign;
 800297c:	689a      	ldr	r2, [r3, #8]
 800297e:	4302      	orrs	r2, r0
  if(hadc->Init.ExternalTrigConv != ADC_SOFTWARE_START)
 8002980:	6aa0      	ldr	r0, [r4, #40]	@ 0x28
 8002982:	4288      	cmp	r0, r1
  hadc->Instance->CR2 |= hadc->Init.DataAlign;
 8002984:	609a      	str	r2, [r3, #8]
  {
    /* Select external trigger to start conversion */
    hadc->Instance->CR2 &= ~(ADC_CR2_EXTSEL);
 8002986:	689a      	ldr	r2, [r3, #8]
  if(hadc->Init.ExternalTrigConv != ADC_SOFTWARE_START)
 8002988:	d052      	beq.n	8002a30 <HAL_ADC_Init+0x130>
    hadc->Instance->CR2 &= ~(ADC_CR2_EXTSEL);
 800298a:	f022 6270 	bic.w	r2, r2, #251658240	@ 0xf000000
    hadc->Instance->CR2 |= hadc->Init.ExternalTrigConv;
    
    /* Select external trigger polarity */
    hadc->Instance->CR2 &= ~(ADC_CR2_EXTEN);
    hadc->Instance->CR2 |= hadc->Init.ExternalTrigConvEdge;
 800298e:	6ae1      	ldr	r1, [r4, #44]	@ 0x2c
    hadc->Instance->CR2 &= ~(ADC_CR2_EXTSEL);
 8002990:	609a      	str	r2, [r3, #8]
    hadc->Instance->CR2 |= hadc->Init.ExternalTrigConv;
 8002992:	689a      	ldr	r2, [r3, #8]
 8002994:	4310      	orrs	r0, r2
 8002996:	6098      	str	r0, [r3, #8]
    hadc->Instance->CR2 &= ~(ADC_CR2_EXTEN);
 8002998:	689a      	ldr	r2, [r3, #8]
 800299a:	f022 5240 	bic.w	r2, r2, #805306368	@ 0x30000000
 800299e:	609a      	str	r2, [r3, #8]
    hadc->Instance->CR2 |= hadc->Init.ExternalTrigConvEdge;
 80029a0:	689a      	ldr	r2, [r3, #8]
 80029a2:	430a      	orrs	r2, r1
 80029a4:	609a      	str	r2, [r3, #8]
    hadc->Instance->CR2 &= ~(ADC_CR2_EXTSEL);
    hadc->Instance->CR2 &= ~(ADC_CR2_EXTEN);
  }
  
  /* Enable or disable ADC continuous conversion mode */
  hadc->Instance->CR2 &= ~(ADC_CR2_CONT);
 80029a6:	689a      	ldr	r2, [r3, #8]
  hadc->Instance->CR2 |= ADC_CR2_CONTINUOUS((uint32_t)hadc->Init.ContinuousConvMode);
 80029a8:	69a1      	ldr	r1, [r4, #24]
  hadc->Instance->CR2 &= ~(ADC_CR2_CONT);
 80029aa:	f022 0202 	bic.w	r2, r2, #2
 80029ae:	609a      	str	r2, [r3, #8]
  hadc->Instance->CR2 |= ADC_CR2_CONTINUOUS((uint32_t)hadc->Init.ContinuousConvMode);
 80029b0:	689a      	ldr	r2, [r3, #8]
 80029b2:	ea42 0241 	orr.w	r2, r2, r1, lsl #1
 80029b6:	609a      	str	r2, [r3, #8]
  
  if(hadc->Init.DiscontinuousConvMode != DISABLE)
 80029b8:	f894 2020 	ldrb.w	r2, [r4, #32]
 80029bc:	2a00      	cmp	r2, #0
 80029be:	d041      	beq.n	8002a44 <HAL_ADC_Init+0x144>
  {
    assert_param(IS_ADC_REGULAR_DISC_NUMBER(hadc->Init.NbrOfDiscConversion));
  
    /* Enable the selected ADC regular discontinuous mode */
    hadc->Instance->CR1 |= (uint32_t)ADC_CR1_DISCEN;
 80029c0:	6858      	ldr	r0, [r3, #4]
    
    /* Set the number of channels to be converted in discontinuous mode */
    hadc->Instance->CR1 &= ~(ADC_CR1_DISCNUM);
    hadc->Instance->CR1 |=  ADC_CR1_DISCONTINUOUS(hadc->Init.NbrOfDiscConversion);
 80029c2:	6a62      	ldr	r2, [r4, #36]	@ 0x24
    hadc->Instance->CR1 |= (uint32_t)ADC_CR1_DISCEN;
 80029c4:	f440 6000 	orr.w	r0, r0, #2048	@ 0x800
    hadc->Instance->CR1 |=  ADC_CR1_DISCONTINUOUS(hadc->Init.NbrOfDiscConversion);
 80029c8:	1e51      	subs	r1, r2, #1
    hadc->Instance->CR1 |= (uint32_t)ADC_CR1_DISCEN;
 80029ca:	6058      	str	r0, [r3, #4]
    hadc->Instance->CR1 &= ~(ADC_CR1_DISCNUM);
 80029cc:	685a      	ldr	r2, [r3, #4]
 80029ce:	f422 4260 	bic.w	r2, r2, #57344	@ 0xe000
 80029d2:	605a      	str	r2, [r3, #4]
    hadc->Instance->CR1 |=  ADC_CR1_DISCONTINUOUS(hadc->Init.NbrOfDiscConversion);
 80029d4:	685a      	ldr	r2, [r3, #4]
 80029d6:	ea42 3241 	orr.w	r2, r2, r1, lsl #13
 80029da:	605a      	str	r2, [r3, #4]
    /* Disable the selected ADC regular discontinuous mode */
    hadc->Instance->CR1 &= ~(ADC_CR1_DISCEN);
  }
  
  /* Set ADC number of conversion */
  hadc->Instance->SQR1 &= ~(ADC_SQR1_L);
 80029dc:	6add      	ldr	r5, [r3, #44]	@ 0x2c
  hadc->Instance->SQR1 |=  ADC_SQR1(hadc->Init.NbrOfConversion);
 80029de:	69e2      	ldr	r2, [r4, #28]
  hadc->Instance->SQR1 &= ~(ADC_SQR1_L);
 80029e0:	f425 0570 	bic.w	r5, r5, #15728640	@ 0xf00000
  hadc->Instance->CR2 &= ~(ADC_CR2_DDS);
  hadc->Instance->CR2 |= ADC_CR2_DMAContReq((uint32_t)hadc->Init.DMAContinuousRequests);
  
  /* Enable or disable ADC end of conversion selection */
  hadc->Instance->CR2 &= ~(ADC_CR2_EOCS);
  hadc->Instance->CR2 |= ADC_CR2_EOCSelection(hadc->Init.EOCSelection);
 80029e4:	6960      	ldr	r0, [r4, #20]
  hadc->Instance->SQR1 |=  ADC_SQR1(hadc->Init.NbrOfConversion);
 80029e6:	1e51      	subs	r1, r2, #1
  hadc->Instance->SQR1 &= ~(ADC_SQR1_L);
 80029e8:	62dd      	str	r5, [r3, #44]	@ 0x2c
  hadc->Instance->SQR1 |=  ADC_SQR1(hadc->Init.NbrOfConversion);
 80029ea:	6ada      	ldr	r2, [r3, #44]	@ 0x2c
 80029ec:	ea42 5201 	orr.w	r2, r2, r1, lsl #20
 80029f0:	62da      	str	r2, [r3, #44]	@ 0x2c
  hadc->Instance->CR2 &= ~(ADC_CR2_DDS);
 80029f2:	689a      	ldr	r2, [r3, #8]
 80029f4:	f422 7200 	bic.w	r2, r2, #512	@ 0x200
 80029f8:	609a      	str	r2, [r3, #8]
  hadc->Instance->CR2 |= ADC_CR2_DMAContReq((uint32_t)hadc->Init.DMAContinuousRequests);
 80029fa:	689a      	ldr	r2, [r3, #8]
 80029fc:	f894 1030 	ldrb.w	r1, [r4, #48]	@ 0x30
 8002a00:	ea42 2241 	orr.w	r2, r2, r1, lsl #9
    ADC_CLEAR_ERRORCODE(hadc);
 8002a04:	2100      	movs	r1, #0
  hadc->Instance->CR2 |= ADC_CR2_DMAContReq((uint32_t)hadc->Init.DMAContinuousRequests);
 8002a06:	609a      	str	r2, [r3, #8]
  hadc->Instance->CR2 &= ~(ADC_CR2_EOCS);
 8002a08:	689a      	ldr	r2, [r3, #8]
 8002a0a:	f422 6280 	bic.w	r2, r2, #1024	@ 0x400
 8002a0e:	609a      	str	r2, [r3, #8]
  hadc->Instance->CR2 |= ADC_CR2_EOCSelection(hadc->Init.EOCSelection);
 8002a10:	689a      	ldr	r2, [r3, #8]
 8002a12:	ea42 2280 	orr.w	r2, r2, r0, lsl #10
  HAL_StatusTypeDef tmp_hal_status = HAL_OK;
 8002a16:	4608      	mov	r0, r1
  hadc->Instance->CR2 |= ADC_CR2_EOCSelection(hadc->Init.EOCSelection);
 8002a18:	609a      	str	r2, [r3, #8]
    ADC_CLEAR_ERRORCODE(hadc);
 8002a1a:	6461      	str	r1, [r4, #68]	@ 0x44
    ADC_STATE_CLR_SET(hadc->State,
 8002a1c:	6c23      	ldr	r3, [r4, #64]	@ 0x40
 8002a1e:	f023 0303 	bic.w	r3, r3, #3
 8002a22:	f043 0301 	orr.w	r3, r3, #1
 8002a26:	6423      	str	r3, [r4, #64]	@ 0x40
  __HAL_UNLOCK(hadc);
 8002a28:	2300      	movs	r3, #0
 8002a2a:	f884 303c 	strb.w	r3, [r4, #60]	@ 0x3c
}
 8002a2e:	bd38      	pop	{r3, r4, r5, pc}
    hadc->Instance->CR2 &= ~(ADC_CR2_EXTSEL);
 8002a30:	f022 6270 	bic.w	r2, r2, #251658240	@ 0xf000000
 8002a34:	609a      	str	r2, [r3, #8]
    hadc->Instance->CR2 &= ~(ADC_CR2_EXTEN);
 8002a36:	689a      	ldr	r2, [r3, #8]
 8002a38:	f022 5240 	bic.w	r2, r2, #805306368	@ 0x30000000
 8002a3c:	609a      	str	r2, [r3, #8]
 8002a3e:	e7b2      	b.n	80029a6 <HAL_ADC_Init+0xa6>
    return HAL_ERROR;
 8002a40:	2001      	movs	r0, #1
}
 8002a42:	4770      	bx	lr
    hadc->Instance->CR1 &= ~(ADC_CR1_DISCEN);
 8002a44:	685a      	ldr	r2, [r3, #4]
 8002a46:	f422 6200 	bic.w	r2, r2, #2048	@ 0x800
 8002a4a:	605a      	str	r2, [r3, #4]
 8002a4c:	e7c6      	b.n	80029dc <HAL_ADC_Init+0xdc>
 8002a4e:	bf00      	nop
 8002a50:	ffffeefd 	.word	0xffffeefd
 8002a54:	40012300 	.word	0x40012300
 8002a58:	0f000001 	.word	0x0f000001

08002a5c <HAL_ADC_Start_DMA>:
{
 8002a5c:	b570      	push	{r4, r5, r6, lr}
 8002a5e:	4605      	mov	r5, r0
  __HAL_LOCK(hadc);
 8002a60:	f890 003c 	ldrb.w	r0, [r0, #60]	@ 0x3c
{
 8002a64:	b082      	sub	sp, #8
  __IO uint32_t counter = 0;
 8002a66:	2300      	movs	r3, #0
  __HAL_LOCK(hadc);
 8002a68:	2801      	cmp	r0, #1
  __IO uint32_t counter = 0;
 8002a6a:	9301      	str	r3, [sp, #4]
  __HAL_LOCK(hadc);
 8002a6c:	f000 8085 	beq.w	8002b7a <HAL_ADC_Start_DMA+0x11e>
 8002a70:	2301      	movs	r3, #1
  if((hadc->Instance->CR2 & ADC_CR2_ADON) != ADC_CR2_ADON)
 8002a72:	682e      	ldr	r6, [r5, #0]
  __HAL_LOCK(hadc);
 8002a74:	f885 303c 	strb.w	r3, [r5, #60]	@ 0x3c
  if((hadc->Instance->CR2 & ADC_CR2_ADON) != ADC_CR2_ADON)
 8002a78:	68b3      	ldr	r3, [r6, #8]
 8002a7a:	07dc      	lsls	r4, r3, #31
 8002a7c:	d414      	bmi.n	8002aa8 <HAL_ADC_Start_DMA+0x4c>
    __HAL_ADC_ENABLE(hadc);
 8002a7e:	68b3      	ldr	r3, [r6, #8]
 8002a80:	f043 0301 	orr.w	r3, r3, #1
 8002a84:	60b3      	str	r3, [r6, #8]
    counter = (ADC_STAB_DELAY_US * (SystemCoreClock / 1000000));
 8002a86:	4b3e      	ldr	r3, [pc, #248]	@ (8002b80 <HAL_ADC_Start_DMA+0x124>)
 8002a88:	6818      	ldr	r0, [r3, #0]
 8002a8a:	4b3e      	ldr	r3, [pc, #248]	@ (8002b84 <HAL_ADC_Start_DMA+0x128>)
 8002a8c:	fba3 3000 	umull	r3, r0, r3, r0
 8002a90:	0c80      	lsrs	r0, r0, #18
 8002a92:	eb00 0040 	add.w	r0, r0, r0, lsl #1
 8002a96:	9001      	str	r0, [sp, #4]
    while(counter != 0)
 8002a98:	9b01      	ldr	r3, [sp, #4]
 8002a9a:	b12b      	cbz	r3, 8002aa8 <HAL_ADC_Start_DMA+0x4c>
      counter--;
 8002a9c:	9c01      	ldr	r4, [sp, #4]
 8002a9e:	3c01      	subs	r4, #1
 8002aa0:	9401      	str	r4, [sp, #4]
    while(counter != 0)
 8002aa2:	9801      	ldr	r0, [sp, #4]
 8002aa4:	2800      	cmp	r0, #0
 8002aa6:	d1f9      	bne.n	8002a9c <HAL_ADC_Start_DMA+0x40>
  if(HAL_IS_BIT_SET(hadc->Instance->CR2, ADC_CR2_ADON))
 8002aa8:	68b3      	ldr	r3, [r6, #8]
 8002aaa:	f013 0f01 	tst.w	r3, #1
    ADC_STATE_CLR_SET(hadc->State,
 8002aae:	6c2b      	ldr	r3, [r5, #64]	@ 0x40
  if(HAL_IS_BIT_SET(hadc->Instance->CR2, ADC_CR2_ADON))
 8002ab0:	d03e      	beq.n	8002b30 <HAL_ADC_Start_DMA+0xd4>
    ADC_STATE_CLR_SET(hadc->State,
 8002ab2:	4835      	ldr	r0, [pc, #212]	@ (8002b88 <HAL_ADC_Start_DMA+0x12c>)
 8002ab4:	4018      	ands	r0, r3
 8002ab6:	f440 7080 	orr.w	r0, r0, #256	@ 0x100
 8002aba:	6428      	str	r0, [r5, #64]	@ 0x40
    if (READ_BIT(hadc->Instance->CR1, ADC_CR1_JAUTO) != RESET)
 8002abc:	6873      	ldr	r3, [r6, #4]
 8002abe:	0558      	lsls	r0, r3, #21
 8002ac0:	d505      	bpl.n	8002ace <HAL_ADC_Start_DMA+0x72>
      ADC_STATE_CLR_SET(hadc->State, HAL_ADC_STATE_INJ_EOC, HAL_ADC_STATE_INJ_BUSY);  
 8002ac2:	6c2b      	ldr	r3, [r5, #64]	@ 0x40
 8002ac4:	f423 5340 	bic.w	r3, r3, #12288	@ 0x3000
 8002ac8:	f443 5380 	orr.w	r3, r3, #4096	@ 0x1000
 8002acc:	642b      	str	r3, [r5, #64]	@ 0x40
    if (HAL_IS_BIT_SET(hadc->State, HAL_ADC_STATE_INJ_BUSY))
 8002ace:	6c2b      	ldr	r3, [r5, #64]	@ 0x40
 8002ad0:	f413 5380 	ands.w	r3, r3, #4096	@ 0x1000
 8002ad4:	d045      	beq.n	8002b62 <HAL_ADC_Start_DMA+0x106>
      CLEAR_BIT(hadc->ErrorCode, (HAL_ADC_ERROR_OVR | HAL_ADC_ERROR_DMA));         
 8002ad6:	6c6b      	ldr	r3, [r5, #68]	@ 0x44
 8002ad8:	f023 0306 	bic.w	r3, r3, #6
 8002adc:	646b      	str	r3, [r5, #68]	@ 0x44
    __HAL_UNLOCK(hadc);   
 8002ade:	2000      	movs	r0, #0
    HAL_DMA_Start_IT(hadc->DMA_Handle, (uint32_t)&hadc->Instance->DR, (uint32_t)pData, Length);
 8002ae0:	4613      	mov	r3, r2
 8002ae2:	460a      	mov	r2, r1
    hadc->DMA_Handle->XferCpltCallback = ADC_DMAConvCplt;
 8002ae4:	4929      	ldr	r1, [pc, #164]	@ (8002b8c <HAL_ADC_Start_DMA+0x130>)
    __HAL_UNLOCK(hadc);   
 8002ae6:	f885 003c 	strb.w	r0, [r5, #60]	@ 0x3c
    hadc->DMA_Handle->XferCpltCallback = ADC_DMAConvCplt;
 8002aea:	6ba8      	ldr	r0, [r5, #56]	@ 0x38
 8002aec:	63c1      	str	r1, [r0, #60]	@ 0x3c
    hadc->DMA_Handle->XferHalfCpltCallback = ADC_DMAHalfConvCplt;
 8002aee:	4928      	ldr	r1, [pc, #160]	@ (8002b90 <HAL_ADC_Start_DMA+0x134>)
 8002af0:	6401      	str	r1, [r0, #64]	@ 0x40
    hadc->DMA_Handle->XferErrorCallback = ADC_DMAError;
 8002af2:	4928      	ldr	r1, [pc, #160]	@ (8002b94 <HAL_ADC_Start_DMA+0x138>)
 8002af4:	64c1      	str	r1, [r0, #76]	@ 0x4c
    __HAL_ADC_CLEAR_FLAG(hadc, ADC_FLAG_EOC | ADC_FLAG_OVR);
 8002af6:	f06f 0122 	mvn.w	r1, #34	@ 0x22
 8002afa:	6031      	str	r1, [r6, #0]
    __HAL_ADC_ENABLE_IT(hadc, ADC_IT_OVR);
 8002afc:	6871      	ldr	r1, [r6, #4]
 8002afe:	f041 6180 	orr.w	r1, r1, #67108864	@ 0x4000000
 8002b02:	6071      	str	r1, [r6, #4]
    hadc->Instance->CR2 |= ADC_CR2_DMA;
 8002b04:	68b1      	ldr	r1, [r6, #8]
 8002b06:	f441 7180 	orr.w	r1, r1, #256	@ 0x100
 8002b0a:	60b1      	str	r1, [r6, #8]
    HAL_DMA_Start_IT(hadc->DMA_Handle, (uint32_t)&hadc->Instance->DR, (uint32_t)pData, Length);
 8002b0c:	f106 014c 	add.w	r1, r6, #76	@ 0x4c
 8002b10:	f000 fde2 	bl	80036d8 <HAL_DMA_Start_IT>
    if(HAL_IS_BIT_CLR(ADC->CCR, ADC_CCR_MULTI))
 8002b14:	4b20      	ldr	r3, [pc, #128]	@ (8002b98 <HAL_ADC_Start_DMA+0x13c>)
 8002b16:	685a      	ldr	r2, [r3, #4]
 8002b18:	06d2      	lsls	r2, r2, #27
 8002b1a:	d113      	bne.n	8002b44 <HAL_ADC_Start_DMA+0xe8>
      if((hadc->Instance->CR2 & ADC_CR2_EXTEN) == RESET) 
 8002b1c:	682b      	ldr	r3, [r5, #0]
 8002b1e:	689a      	ldr	r2, [r3, #8]
 8002b20:	f012 5f40 	tst.w	r2, #805306368	@ 0x30000000
 8002b24:	d10b      	bne.n	8002b3e <HAL_ADC_Start_DMA+0xe2>
          hadc->Instance->CR2 |= (uint32_t)ADC_CR2_SWSTART;
 8002b26:	689a      	ldr	r2, [r3, #8]
 8002b28:	f042 4280 	orr.w	r2, r2, #1073741824	@ 0x40000000
 8002b2c:	609a      	str	r2, [r3, #8]
 8002b2e:	e006      	b.n	8002b3e <HAL_ADC_Start_DMA+0xe2>
    SET_BIT(hadc->State, HAL_ADC_STATE_ERROR_INTERNAL);
 8002b30:	f043 0310 	orr.w	r3, r3, #16
 8002b34:	642b      	str	r3, [r5, #64]	@ 0x40
    SET_BIT(hadc->ErrorCode, HAL_ADC_ERROR_INTERNAL);
 8002b36:	6c6b      	ldr	r3, [r5, #68]	@ 0x44
 8002b38:	f043 0301 	orr.w	r3, r3, #1
 8002b3c:	646b      	str	r3, [r5, #68]	@ 0x44
  return HAL_OK;
 8002b3e:	2000      	movs	r0, #0
}
 8002b40:	b002      	add	sp, #8
 8002b42:	bd70      	pop	{r4, r5, r6, pc}
      if((hadc->Instance == ADC1) && ((hadc->Instance->CR2 & ADC_CR2_EXTEN) == RESET))
 8002b44:	682a      	ldr	r2, [r5, #0]
 8002b46:	4915      	ldr	r1, [pc, #84]	@ (8002b9c <HAL_ADC_Start_DMA+0x140>)
 8002b48:	428a      	cmp	r2, r1
 8002b4a:	d00c      	beq.n	8002b66 <HAL_ADC_Start_DMA+0x10a>
      if( HAL_IS_BIT_CLR(ADC->CCR, ADC_CCR_MULTI_4) )
 8002b4c:	685b      	ldr	r3, [r3, #4]
        if((hadc->Instance == ADC3) && ((hadc->Instance->CR2 & ADC_CR2_EXTEN) == RESET))
 8002b4e:	06db      	lsls	r3, r3, #27
 8002b50:	d4f5      	bmi.n	8002b3e <HAL_ADC_Start_DMA+0xe2>
 8002b52:	4b13      	ldr	r3, [pc, #76]	@ (8002ba0 <HAL_ADC_Start_DMA+0x144>)
 8002b54:	429a      	cmp	r2, r3
 8002b56:	d1f2      	bne.n	8002b3e <HAL_ADC_Start_DMA+0xe2>
 8002b58:	689a      	ldr	r2, [r3, #8]
 8002b5a:	f012 5f40 	tst.w	r2, #805306368	@ 0x30000000
 8002b5e:	d1ee      	bne.n	8002b3e <HAL_ADC_Start_DMA+0xe2>
 8002b60:	e7e1      	b.n	8002b26 <HAL_ADC_Start_DMA+0xca>
      ADC_CLEAR_ERRORCODE(hadc);
 8002b62:	646b      	str	r3, [r5, #68]	@ 0x44
 8002b64:	e7bb      	b.n	8002ade <HAL_ADC_Start_DMA+0x82>
      if((hadc->Instance == ADC1) && ((hadc->Instance->CR2 & ADC_CR2_EXTEN) == RESET))
 8002b66:	6891      	ldr	r1, [r2, #8]
 8002b68:	f011 5f40 	tst.w	r1, #805306368	@ 0x30000000
 8002b6c:	d103      	bne.n	8002b76 <HAL_ADC_Start_DMA+0x11a>
          hadc->Instance->CR2 |= (uint32_t)ADC_CR2_SWSTART;
 8002b6e:	6891      	ldr	r1, [r2, #8]
 8002b70:	f041 4180 	orr.w	r1, r1, #1073741824	@ 0x40000000
 8002b74:	6091      	str	r1, [r2, #8]
      if( HAL_IS_BIT_CLR(ADC->CCR, ADC_CCR_MULTI_4) )
 8002b76:	685b      	ldr	r3, [r3, #4]
 8002b78:	e7e1      	b.n	8002b3e <HAL_ADC_Start_DMA+0xe2>
  __HAL_LOCK(hadc);
 8002b7a:	2002      	movs	r0, #2
}
 8002b7c:	b002      	add	sp, #8
 8002b7e:	bd70      	pop	{r4, r5, r6, pc}
 8002b80:	20000168 	.word	0x20000168
 8002b84:	431bde83 	.word	0x431bde83
 8002b88:	fffff8fe 	.word	0xfffff8fe
 8002b8c:	08002bd5 	.word	0x08002bd5
 8002b90:	08002bad 	.word	0x08002bad
 8002b94:	08002bbd 	.word	0x08002bbd
 8002b98:	40012300 	.word	0x40012300
 8002b9c:	40012000 	.word	0x40012000
 8002ba0:	40012200 	.word	0x40012200

08002ba4 <HAL_ADC_ConvCpltCallback>:
__weak void HAL_ADC_ConvCpltCallback(ADC_HandleTypeDef* hadc)
 8002ba4:	4770      	bx	lr
 8002ba6:	bf00      	nop

08002ba8 <HAL_ADC_ConvHalfCpltCallback>:
__weak void HAL_ADC_ConvHalfCpltCallback(ADC_HandleTypeDef* hadc)
 8002ba8:	4770      	bx	lr
 8002baa:	bf00      	nop

08002bac <ADC_DMAHalfConvCplt>:
  ADC_HandleTypeDef* hadc = ( ADC_HandleTypeDef* )((DMA_HandleTypeDef* )hdma)->Parent;
   /* Half conversion callback */
#if (USE_HAL_ADC_REGISTER_CALLBACKS == 1)
  hadc->ConvHalfCpltCallback(hadc);
#else
  HAL_ADC_ConvHalfCpltCallback(hadc);
 8002bac:	6b80      	ldr	r0, [r0, #56]	@ 0x38
{
 8002bae:	b508      	push	{r3, lr}
  HAL_ADC_ConvHalfCpltCallback(hadc);
 8002bb0:	f7ff fffa 	bl	8002ba8 <HAL_ADC_ConvHalfCpltCallback>
#endif /* USE_HAL_ADC_REGISTER_CALLBACKS */
}
 8002bb4:	bd08      	pop	{r3, pc}
 8002bb6:	bf00      	nop

08002bb8 <HAL_ADC_ErrorCallback>:
__weak void HAL_ADC_ErrorCallback(ADC_HandleTypeDef *hadc)
 8002bb8:	4770      	bx	lr
 8002bba:	bf00      	nop

08002bbc <ADC_DMAError>:
  *                the configuration information for the specified DMA module.
  * @retval None
  */
static void ADC_DMAError(DMA_HandleTypeDef *hdma)   
{
  ADC_HandleTypeDef* hadc = ( ADC_HandleTypeDef* )((DMA_HandleTypeDef* )hdma)->Parent;
 8002bbc:	6b80      	ldr	r0, [r0, #56]	@ 0x38
{
 8002bbe:	b508      	push	{r3, lr}
  hadc->State= HAL_ADC_STATE_ERROR_DMA;
 8002bc0:	2340      	movs	r3, #64	@ 0x40
 8002bc2:	6403      	str	r3, [r0, #64]	@ 0x40
  /* Set ADC error code to DMA error */
  hadc->ErrorCode |= HAL_ADC_ERROR_DMA;
 8002bc4:	6c43      	ldr	r3, [r0, #68]	@ 0x44
 8002bc6:	f043 0304 	orr.w	r3, r3, #4
 8002bca:	6443      	str	r3, [r0, #68]	@ 0x44
  /* Error callback */
#if (USE_HAL_ADC_REGISTER_CALLBACKS == 1)
  hadc->ErrorCallback(hadc);
#else
  HAL_ADC_ErrorCallback(hadc);
 8002bcc:	f7ff fff4 	bl	8002bb8 <HAL_ADC_ErrorCallback>
#endif /* USE_HAL_ADC_REGISTER_CALLBACKS */
}
 8002bd0:	bd08      	pop	{r3, pc}
 8002bd2:	bf00      	nop

08002bd4 <ADC_DMAConvCplt>:
  ADC_HandleTypeDef* hadc = ( ADC_HandleTypeDef* )((DMA_HandleTypeDef* )hdma)->Parent;
 8002bd4:	6b83      	ldr	r3, [r0, #56]	@ 0x38
  if (HAL_IS_BIT_CLR(hadc->State, HAL_ADC_STATE_ERROR_INTERNAL | HAL_ADC_STATE_ERROR_DMA))
 8002bd6:	6c1a      	ldr	r2, [r3, #64]	@ 0x40
 8002bd8:	f012 0f50 	tst.w	r2, #80	@ 0x50
    SET_BIT(hadc->State, HAL_ADC_STATE_REG_EOC);
 8002bdc:	6c1a      	ldr	r2, [r3, #64]	@ 0x40
{
 8002bde:	b510      	push	{r4, lr}
  if (HAL_IS_BIT_CLR(hadc->State, HAL_ADC_STATE_ERROR_INTERNAL | HAL_ADC_STATE_ERROR_DMA))
 8002be0:	d123      	bne.n	8002c2a <ADC_DMAConvCplt+0x56>
    SET_BIT(hadc->State, HAL_ADC_STATE_REG_EOC);
 8002be2:	f442 7200 	orr.w	r2, r2, #512	@ 0x200
    if(ADC_IS_SOFTWARE_START_REGULAR(hadc)                   &&
 8002be6:	6819      	ldr	r1, [r3, #0]
    SET_BIT(hadc->State, HAL_ADC_STATE_REG_EOC);
 8002be8:	641a      	str	r2, [r3, #64]	@ 0x40
    if(ADC_IS_SOFTWARE_START_REGULAR(hadc)                   &&
 8002bea:	688a      	ldr	r2, [r1, #8]
 8002bec:	f012 5f40 	tst.w	r2, #805306368	@ 0x30000000
 8002bf0:	d117      	bne.n	8002c22 <ADC_DMAConvCplt+0x4e>
 8002bf2:	699a      	ldr	r2, [r3, #24]
 8002bf4:	b9aa      	cbnz	r2, 8002c22 <ADC_DMAConvCplt+0x4e>
       (HAL_IS_BIT_CLR(hadc->Instance->SQR1, ADC_SQR1_L) || 
 8002bf6:	6aca      	ldr	r2, [r1, #44]	@ 0x2c
       (hadc->Init.ContinuousConvMode == DISABLE)            &&
 8002bf8:	f412 0f70 	tst.w	r2, #15728640	@ 0xf00000
 8002bfc:	d002      	beq.n	8002c04 <ADC_DMAConvCplt+0x30>
        HAL_IS_BIT_CLR(hadc->Instance->CR2, ADC_CR2_EOCS)  )   )
 8002bfe:	688a      	ldr	r2, [r1, #8]
       (HAL_IS_BIT_CLR(hadc->Instance->SQR1, ADC_SQR1_L) || 
 8002c00:	0550      	lsls	r0, r2, #21
 8002c02:	d40e      	bmi.n	8002c22 <ADC_DMAConvCplt+0x4e>
      __HAL_ADC_DISABLE_IT(hadc, ADC_IT_EOC);
 8002c04:	684a      	ldr	r2, [r1, #4]
 8002c06:	f022 0220 	bic.w	r2, r2, #32
 8002c0a:	604a      	str	r2, [r1, #4]
      CLEAR_BIT(hadc->State, HAL_ADC_STATE_REG_BUSY);   
 8002c0c:	6c1a      	ldr	r2, [r3, #64]	@ 0x40
 8002c0e:	f422 7280 	bic.w	r2, r2, #256	@ 0x100
 8002c12:	641a      	str	r2, [r3, #64]	@ 0x40
      if (HAL_IS_BIT_CLR(hadc->State, HAL_ADC_STATE_INJ_BUSY))
 8002c14:	6c1a      	ldr	r2, [r3, #64]	@ 0x40
 8002c16:	04d1      	lsls	r1, r2, #19
 8002c18:	d403      	bmi.n	8002c22 <ADC_DMAConvCplt+0x4e>
        SET_BIT(hadc->State, HAL_ADC_STATE_READY);
 8002c1a:	6c1a      	ldr	r2, [r3, #64]	@ 0x40
 8002c1c:	f042 0201 	orr.w	r2, r2, #1
 8002c20:	641a      	str	r2, [r3, #64]	@ 0x40
    HAL_ADC_ConvCpltCallback(hadc);
 8002c22:	4618      	mov	r0, r3
 8002c24:	f7ff ffbe 	bl	8002ba4 <HAL_ADC_ConvCpltCallback>
}
 8002c28:	bd10      	pop	{r4, pc}
    if ((hadc->State & HAL_ADC_STATE_ERROR_INTERNAL) != 0UL)
 8002c2a:	06d2      	lsls	r2, r2, #27
 8002c2c:	d404      	bmi.n	8002c38 <ADC_DMAConvCplt+0x64>
      hadc->DMA_Handle->XferErrorCallback(hdma);
 8002c2e:	6b9b      	ldr	r3, [r3, #56]	@ 0x38
}
 8002c30:	e8bd 4010 	ldmia.w	sp!, {r4, lr}
      hadc->DMA_Handle->XferErrorCallback(hdma);
 8002c34:	6cdb      	ldr	r3, [r3, #76]	@ 0x4c
 8002c36:	4718      	bx	r3
      HAL_ADC_ErrorCallback(hadc);
 8002c38:	4618      	mov	r0, r3
 8002c3a:	f7ff ffbd 	bl	8002bb8 <HAL_ADC_ErrorCallback>
}
 8002c3e:	bd10      	pop	{r4, pc}

08002c40 <HAL_ADC_ConfigChannel>:
{
 8002c40:	b570      	push	{r4, r5, r6, lr}
  __IO uint32_t counter = 0;
 8002c42:	2300      	movs	r3, #0
{
 8002c44:	b082      	sub	sp, #8
  __IO uint32_t counter = 0;
 8002c46:	9301      	str	r3, [sp, #4]
  __HAL_LOCK(hadc);
 8002c48:	f890 303c 	ldrb.w	r3, [r0, #60]	@ 0x3c
 8002c4c:	2b01      	cmp	r3, #1
 8002c4e:	f000 80a7 	beq.w	8002da0 <HAL_ADC_ConfigChannel+0x160>
 8002c52:	2201      	movs	r2, #1
 8002c54:	4684      	mov	ip, r0
    hadc->Instance->SMPR1 &= ~ADC_SMPR1(ADC_SMPR1_SMP10, sConfig->Channel);
 8002c56:	6803      	ldr	r3, [r0, #0]
  __HAL_LOCK(hadc);
 8002c58:	f880 203c 	strb.w	r2, [r0, #60]	@ 0x3c
  if ((sConfig->Channel > ADC_CHANNEL_9) && (sConfig->Channel != ADC_INTERNAL_NONE))
 8002c5c:	6808      	ldr	r0, [r1, #0]
      hadc->Instance->SMPR1 |= ADC_SMPR1(sConfig->SamplingTime, ADC_CHANNEL_18);
 8002c5e:	688c      	ldr	r4, [r1, #8]
 8002c60:	b282      	uxth	r2, r0
  if ((sConfig->Channel > ADC_CHANNEL_9) && (sConfig->Channel != ADC_INTERNAL_NONE))
 8002c62:	2809      	cmp	r0, #9
    hadc->Instance->SMPR1 &= ~ADC_SMPR1(ADC_SMPR1_SMP10, sConfig->Channel);
 8002c64:	eb02 0e42 	add.w	lr, r2, r2, lsl #1
  if ((sConfig->Channel > ADC_CHANNEL_9) && (sConfig->Channel != ADC_INTERNAL_NONE))
 8002c68:	d92d      	bls.n	8002cc6 <HAL_ADC_ConfigChannel+0x86>
 8002c6a:	f1b0 4f00 	cmp.w	r0, #2147483648	@ 0x80000000
 8002c6e:	d02a      	beq.n	8002cc6 <HAL_ADC_ConfigChannel+0x86>
    hadc->Instance->SMPR1 &= ~ADC_SMPR1(ADC_SMPR1_SMP10, sConfig->Channel);
 8002c70:	f1ae 0e1e 	sub.w	lr, lr, #30
 8002c74:	2607      	movs	r6, #7
 8002c76:	68dd      	ldr	r5, [r3, #12]
 8002c78:	fa06 f60e 	lsl.w	r6, r6, lr
 8002c7c:	ea25 0506 	bic.w	r5, r5, r6
 8002c80:	60dd      	str	r5, [r3, #12]
    if (sConfig->Channel == ADC_CHANNEL_TEMPSENSOR)
 8002c82:	4d49      	ldr	r5, [pc, #292]	@ (8002da8 <HAL_ADC_ConfigChannel+0x168>)
 8002c84:	42a8      	cmp	r0, r5
 8002c86:	f000 8086 	beq.w	8002d96 <HAL_ADC_ConfigChannel+0x156>
      hadc->Instance->SMPR1 |= ADC_SMPR1(sConfig->SamplingTime, sConfig->Channel);
 8002c8a:	68dd      	ldr	r5, [r3, #12]
 8002c8c:	fa04 f40e 	lsl.w	r4, r4, lr
 8002c90:	432c      	orrs	r4, r5
 8002c92:	60dc      	str	r4, [r3, #12]
  if (sConfig->Rank < 7)
 8002c94:	684c      	ldr	r4, [r1, #4]
 8002c96:	2c06      	cmp	r4, #6
    hadc->Instance->SQR3 &= ~ADC_SQR3_RK(ADC_SQR3_SQ1, sConfig->Rank);
 8002c98:	eb04 0184 	add.w	r1, r4, r4, lsl #2
  if (sConfig->Rank < 7)
 8002c9c:	d824      	bhi.n	8002ce8 <HAL_ADC_ConfigChannel+0xa8>
    hadc->Instance->SQR3 &= ~ADC_SQR3_RK(ADC_SQR3_SQ1, sConfig->Rank);
 8002c9e:	3905      	subs	r1, #5
 8002ca0:	241f      	movs	r4, #31
    hadc->Instance->SQR3 |= ADC_SQR3_RK(sConfig->Channel, sConfig->Rank);
 8002ca2:	408a      	lsls	r2, r1
    hadc->Instance->SQR3 &= ~ADC_SQR3_RK(ADC_SQR3_SQ1, sConfig->Rank);
 8002ca4:	408c      	lsls	r4, r1
 8002ca6:	6b59      	ldr	r1, [r3, #52]	@ 0x34
 8002ca8:	ea21 0104 	bic.w	r1, r1, r4
 8002cac:	6359      	str	r1, [r3, #52]	@ 0x34
    hadc->Instance->SQR3 |= ADC_SQR3_RK(sConfig->Channel, sConfig->Rank);
 8002cae:	6b59      	ldr	r1, [r3, #52]	@ 0x34
 8002cb0:	430a      	orrs	r2, r1
 8002cb2:	635a      	str	r2, [r3, #52]	@ 0x34
  if ((hadc->Instance == ADC1) && (sConfig->Channel == ADC_INTERNAL_NONE))
 8002cb4:	4a3d      	ldr	r2, [pc, #244]	@ (8002dac <HAL_ADC_ConfigChannel+0x16c>)
 8002cb6:	4293      	cmp	r3, r2
 8002cb8:	d026      	beq.n	8002d08 <HAL_ADC_ConfigChannel+0xc8>
  __HAL_UNLOCK(hadc);
 8002cba:	2300      	movs	r3, #0
  return HAL_OK;
 8002cbc:	4618      	mov	r0, r3
  __HAL_UNLOCK(hadc);
 8002cbe:	f88c 303c 	strb.w	r3, [ip, #60]	@ 0x3c
}
 8002cc2:	b002      	add	sp, #8
 8002cc4:	bd70      	pop	{r4, r5, r6, pc}
    hadc->Instance->SMPR2 &= ~ADC_SMPR2(ADC_SMPR2_SMP0, sConfig->Channel);
 8002cc6:	2507      	movs	r5, #7
    hadc->Instance->SMPR2 |= ADC_SMPR2(sConfig->SamplingTime, sConfig->Channel);
 8002cc8:	fa04 f40e 	lsl.w	r4, r4, lr
    hadc->Instance->SMPR2 &= ~ADC_SMPR2(ADC_SMPR2_SMP0, sConfig->Channel);
 8002ccc:	fa05 fe0e 	lsl.w	lr, r5, lr
 8002cd0:	691d      	ldr	r5, [r3, #16]
 8002cd2:	ea25 050e 	bic.w	r5, r5, lr
 8002cd6:	611d      	str	r5, [r3, #16]
    hadc->Instance->SMPR2 |= ADC_SMPR2(sConfig->SamplingTime, sConfig->Channel);
 8002cd8:	691d      	ldr	r5, [r3, #16]
 8002cda:	432c      	orrs	r4, r5
 8002cdc:	611c      	str	r4, [r3, #16]
  if (sConfig->Rank < 7)
 8002cde:	684c      	ldr	r4, [r1, #4]
 8002ce0:	2c06      	cmp	r4, #6
    hadc->Instance->SQR3 &= ~ADC_SQR3_RK(ADC_SQR3_SQ1, sConfig->Rank);
 8002ce2:	eb04 0184 	add.w	r1, r4, r4, lsl #2
  if (sConfig->Rank < 7)
 8002ce6:	d9da      	bls.n	8002c9e <HAL_ADC_ConfigChannel+0x5e>
  else if (sConfig->Rank < 13)
 8002ce8:	2c0c      	cmp	r4, #12
 8002cea:	d837      	bhi.n	8002d5c <HAL_ADC_ConfigChannel+0x11c>
    hadc->Instance->SQR2 &= ~ADC_SQR2_RK(ADC_SQR2_SQ7, sConfig->Rank);
 8002cec:	3923      	subs	r1, #35	@ 0x23
 8002cee:	241f      	movs	r4, #31
    hadc->Instance->SQR2 |= ADC_SQR2_RK(sConfig->Channel, sConfig->Rank);
 8002cf0:	408a      	lsls	r2, r1
    hadc->Instance->SQR2 &= ~ADC_SQR2_RK(ADC_SQR2_SQ7, sConfig->Rank);
 8002cf2:	408c      	lsls	r4, r1
 8002cf4:	6b19      	ldr	r1, [r3, #48]	@ 0x30
 8002cf6:	ea21 0104 	bic.w	r1, r1, r4
 8002cfa:	6319      	str	r1, [r3, #48]	@ 0x30
    hadc->Instance->SQR2 |= ADC_SQR2_RK(sConfig->Channel, sConfig->Rank);
 8002cfc:	6b19      	ldr	r1, [r3, #48]	@ 0x30
 8002cfe:	430a      	orrs	r2, r1
 8002d00:	631a      	str	r2, [r3, #48]	@ 0x30
  if ((hadc->Instance == ADC1) && (sConfig->Channel == ADC_INTERNAL_NONE))
 8002d02:	4a2a      	ldr	r2, [pc, #168]	@ (8002dac <HAL_ADC_ConfigChannel+0x16c>)
 8002d04:	4293      	cmp	r3, r2
 8002d06:	d1d8      	bne.n	8002cba <HAL_ADC_ConfigChannel+0x7a>
 8002d08:	f1b0 4f00 	cmp.w	r0, #2147483648	@ 0x80000000
 8002d0c:	d03c      	beq.n	8002d88 <HAL_ADC_ConfigChannel+0x148>
  if ((hadc->Instance == ADC1) && (sConfig->Channel == ADC_CHANNEL_VBAT))
 8002d0e:	2812      	cmp	r0, #18
 8002d10:	d030      	beq.n	8002d74 <HAL_ADC_ConfigChannel+0x134>
  if ((hadc->Instance == ADC1) && ((sConfig->Channel == ADC_CHANNEL_TEMPSENSOR) || (sConfig->Channel == ADC_CHANNEL_VREFINT)))
 8002d12:	4b25      	ldr	r3, [pc, #148]	@ (8002da8 <HAL_ADC_ConfigChannel+0x168>)
 8002d14:	4298      	cmp	r0, r3
 8002d16:	d001      	beq.n	8002d1c <HAL_ADC_ConfigChannel+0xdc>
 8002d18:	2811      	cmp	r0, #17
 8002d1a:	d1ce      	bne.n	8002cba <HAL_ADC_ConfigChannel+0x7a>
    ADC->CCR &= ~ADC_CCR_VBATE;
 8002d1c:	4b24      	ldr	r3, [pc, #144]	@ (8002db0 <HAL_ADC_ConfigChannel+0x170>)
    if(sConfig->Channel == ADC_CHANNEL_TEMPSENSOR)
 8002d1e:	4922      	ldr	r1, [pc, #136]	@ (8002da8 <HAL_ADC_ConfigChannel+0x168>)
    ADC->CCR &= ~ADC_CCR_VBATE;
 8002d20:	685a      	ldr	r2, [r3, #4]
    if(sConfig->Channel == ADC_CHANNEL_TEMPSENSOR)
 8002d22:	4288      	cmp	r0, r1
    ADC->CCR &= ~ADC_CCR_VBATE;
 8002d24:	f422 0280 	bic.w	r2, r2, #4194304	@ 0x400000
 8002d28:	605a      	str	r2, [r3, #4]
    ADC->CCR |= ADC_CCR_TSVREFE;
 8002d2a:	685a      	ldr	r2, [r3, #4]
 8002d2c:	f442 0200 	orr.w	r2, r2, #8388608	@ 0x800000
 8002d30:	605a      	str	r2, [r3, #4]
    if(sConfig->Channel == ADC_CHANNEL_TEMPSENSOR)
 8002d32:	d1c2      	bne.n	8002cba <HAL_ADC_ConfigChannel+0x7a>
      counter = (ADC_TEMPSENSOR_DELAY_US * (SystemCoreClock / 1000000));
 8002d34:	4b1f      	ldr	r3, [pc, #124]	@ (8002db4 <HAL_ADC_ConfigChannel+0x174>)
 8002d36:	4a20      	ldr	r2, [pc, #128]	@ (8002db8 <HAL_ADC_ConfigChannel+0x178>)
 8002d38:	681b      	ldr	r3, [r3, #0]
 8002d3a:	fba2 2303 	umull	r2, r3, r2, r3
 8002d3e:	0c9b      	lsrs	r3, r3, #18
 8002d40:	eb03 0383 	add.w	r3, r3, r3, lsl #2
 8002d44:	005b      	lsls	r3, r3, #1
 8002d46:	9301      	str	r3, [sp, #4]
      while(counter != 0)
 8002d48:	9b01      	ldr	r3, [sp, #4]
 8002d4a:	2b00      	cmp	r3, #0
 8002d4c:	d0b5      	beq.n	8002cba <HAL_ADC_ConfigChannel+0x7a>
        counter--;
 8002d4e:	9b01      	ldr	r3, [sp, #4]
 8002d50:	3b01      	subs	r3, #1
 8002d52:	9301      	str	r3, [sp, #4]
      while(counter != 0)
 8002d54:	9b01      	ldr	r3, [sp, #4]
 8002d56:	2b00      	cmp	r3, #0
 8002d58:	d1f9      	bne.n	8002d4e <HAL_ADC_ConfigChannel+0x10e>
 8002d5a:	e7ae      	b.n	8002cba <HAL_ADC_ConfigChannel+0x7a>
    hadc->Instance->SQR1 &= ~ADC_SQR1_RK(ADC_SQR1_SQ13, sConfig->Rank);
 8002d5c:	3941      	subs	r1, #65	@ 0x41
 8002d5e:	241f      	movs	r4, #31
    hadc->Instance->SQR1 |= ADC_SQR1_RK(sConfig->Channel, sConfig->Rank);
 8002d60:	408a      	lsls	r2, r1
    hadc->Instance->SQR1 &= ~ADC_SQR1_RK(ADC_SQR1_SQ13, sConfig->Rank);
 8002d62:	408c      	lsls	r4, r1
 8002d64:	6ad9      	ldr	r1, [r3, #44]	@ 0x2c
 8002d66:	ea21 0104 	bic.w	r1, r1, r4
 8002d6a:	62d9      	str	r1, [r3, #44]	@ 0x2c
    hadc->Instance->SQR1 |= ADC_SQR1_RK(sConfig->Channel, sConfig->Rank);
 8002d6c:	6ad9      	ldr	r1, [r3, #44]	@ 0x2c
 8002d6e:	430a      	orrs	r2, r1
 8002d70:	62da      	str	r2, [r3, #44]	@ 0x2c
 8002d72:	e79f      	b.n	8002cb4 <HAL_ADC_ConfigChannel+0x74>
    ADC->CCR &= ~ADC_CCR_TSVREFE;
 8002d74:	4b0e      	ldr	r3, [pc, #56]	@ (8002db0 <HAL_ADC_ConfigChannel+0x170>)
 8002d76:	685a      	ldr	r2, [r3, #4]
 8002d78:	f422 0200 	bic.w	r2, r2, #8388608	@ 0x800000
 8002d7c:	605a      	str	r2, [r3, #4]
    ADC->CCR |= ADC_CCR_VBATE;
 8002d7e:	685a      	ldr	r2, [r3, #4]
 8002d80:	f442 0280 	orr.w	r2, r2, #4194304	@ 0x400000
 8002d84:	605a      	str	r2, [r3, #4]
  if ((hadc->Instance == ADC1) && ((sConfig->Channel == ADC_CHANNEL_TEMPSENSOR) || (sConfig->Channel == ADC_CHANNEL_VREFINT)))
 8002d86:	e798      	b.n	8002cba <HAL_ADC_ConfigChannel+0x7a>
    ADC->CCR &= ~(ADC_CCR_VBATE | ADC_CCR_TSVREFE);
 8002d88:	f8d2 3304 	ldr.w	r3, [r2, #772]	@ 0x304
 8002d8c:	f423 0340 	bic.w	r3, r3, #12582912	@ 0xc00000
 8002d90:	f8c2 3304 	str.w	r3, [r2, #772]	@ 0x304
  if ((hadc->Instance == ADC1) && ((sConfig->Channel == ADC_CHANNEL_TEMPSENSOR) || (sConfig->Channel == ADC_CHANNEL_VREFINT)))
 8002d94:	e791      	b.n	8002cba <HAL_ADC_ConfigChannel+0x7a>
      hadc->Instance->SMPR1 |= ADC_SMPR1(sConfig->SamplingTime, ADC_CHANNEL_18);
 8002d96:	68dd      	ldr	r5, [r3, #12]
 8002d98:	ea45 6404 	orr.w	r4, r5, r4, lsl #24
 8002d9c:	60dc      	str	r4, [r3, #12]
 8002d9e:	e779      	b.n	8002c94 <HAL_ADC_ConfigChannel+0x54>
  __HAL_LOCK(hadc);
 8002da0:	2002      	movs	r0, #2
}
 8002da2:	b002      	add	sp, #8
 8002da4:	bd70      	pop	{r4, r5, r6, pc}
 8002da6:	bf00      	nop
 8002da8:	10000012 	.word	0x10000012
 8002dac:	40012000 	.word	0x40012000
 8002db0:	40012300 	.word	0x40012300
 8002db4:	20000168 	.word	0x20000168
 8002db8:	431bde83 	.word	0x431bde83

08002dbc <HAL_CAN_Init>:
HAL_StatusTypeDef HAL_CAN_Init(CAN_HandleTypeDef *hcan)
{
  uint32_t tickstart;

  /* Check CAN handle */
  if (hcan == NULL)
 8002dbc:	2800      	cmp	r0, #0
 8002dbe:	d07b      	beq.n	8002eb8 <HAL_CAN_Init+0xfc>
{
 8002dc0:	b538      	push	{r3, r4, r5, lr}
    /* Init the low level hardware: CLOCK, NVIC */
    hcan->MspInitCallback(hcan);
  }

#else
  if (hcan->State == HAL_CAN_STATE_RESET)
 8002dc2:	f890 3020 	ldrb.w	r3, [r0, #32]
 8002dc6:	4604      	mov	r4, r0
 8002dc8:	2b00      	cmp	r3, #0
 8002dca:	d072      	beq.n	8002eb2 <HAL_CAN_Init+0xf6>
    HAL_CAN_MspInit(hcan);
  }
#endif /* (USE_HAL_CAN_REGISTER_CALLBACKS) */

  /* Request initialisation */
  SET_BIT(hcan->Instance->MCR, CAN_MCR_INRQ);
 8002dcc:	6822      	ldr	r2, [r4, #0]
 8002dce:	6813      	ldr	r3, [r2, #0]
 8002dd0:	f043 0301 	orr.w	r3, r3, #1
 8002dd4:	6013      	str	r3, [r2, #0]

  /* Get tick */
  tickstart = HAL_GetTick();
 8002dd6:	f7ff fd7b 	bl	80028d0 <HAL_GetTick>
 8002dda:	4605      	mov	r5, r0

  /* Wait initialisation acknowledge */
  while ((hcan->Instance->MSR & CAN_MSR_INAK) == 0U)
 8002ddc:	e004      	b.n	8002de8 <HAL_CAN_Init+0x2c>
  {
    if ((HAL_GetTick() - tickstart) > CAN_TIMEOUT_VALUE)
 8002dde:	f7ff fd77 	bl	80028d0 <HAL_GetTick>
 8002de2:	1b40      	subs	r0, r0, r5
 8002de4:	280a      	cmp	r0, #10
 8002de6:	d85b      	bhi.n	8002ea0 <HAL_CAN_Init+0xe4>
  while ((hcan->Instance->MSR & CAN_MSR_INAK) == 0U)
 8002de8:	6823      	ldr	r3, [r4, #0]
 8002dea:	685a      	ldr	r2, [r3, #4]
 8002dec:	07d1      	lsls	r1, r2, #31
 8002dee:	d5f6      	bpl.n	8002dde <HAL_CAN_Init+0x22>
      return HAL_ERROR;
    }
  }

  /* Exit from sleep mode */
  CLEAR_BIT(hcan->Instance->MCR, CAN_MCR_SLEEP);
 8002df0:	681a      	ldr	r2, [r3, #0]
 8002df2:	f022 0202 	bic.w	r2, r2, #2
 8002df6:	601a      	str	r2, [r3, #0]

  /* Get tick */
  tickstart = HAL_GetTick();
 8002df8:	f7ff fd6a 	bl	80028d0 <HAL_GetTick>
 8002dfc:	4605      	mov	r5, r0

  /* Check Sleep mode leave acknowledge */
  while ((hcan->Instance->MSR & CAN_MSR_SLAK) != 0U)
 8002dfe:	e004      	b.n	8002e0a <HAL_CAN_Init+0x4e>
  {
    if ((HAL_GetTick() - tickstart) > CAN_TIMEOUT_VALUE)
 8002e00:	f7ff fd66 	bl	80028d0 <HAL_GetTick>
 8002e04:	1b40      	subs	r0, r0, r5
 8002e06:	280a      	cmp	r0, #10
 8002e08:	d84a      	bhi.n	8002ea0 <HAL_CAN_Init+0xe4>
  while ((hcan->Instance->MSR & CAN_MSR_SLAK) != 0U)
 8002e0a:	6823      	ldr	r3, [r4, #0]
 8002e0c:	685a      	ldr	r2, [r3, #4]
 8002e0e:	0792      	lsls	r2, r2, #30
 8002e10:	d4f6      	bmi.n	8002e00 <HAL_CAN_Init+0x44>
      return HAL_ERROR;
    }
  }

  /* Set the time triggered communication mode */
  if (hcan->Init.TimeTriggeredMode == ENABLE)
 8002e12:	7e22      	ldrb	r2, [r4, #24]
 8002e14:	2a01      	cmp	r2, #1
  {
    SET_BIT(hcan->Instance->MCR, CAN_MCR_TTCM);
 8002e16:	681a      	ldr	r2, [r3, #0]
 8002e18:	bf0c      	ite	eq
 8002e1a:	f042 0280 	orreq.w	r2, r2, #128	@ 0x80
  }
  else
  {
    CLEAR_BIT(hcan->Instance->MCR, CAN_MCR_TTCM);
 8002e1e:	f022 0280 	bicne.w	r2, r2, #128	@ 0x80
 8002e22:	601a      	str	r2, [r3, #0]
  }

  /* Set the automatic bus-off management */
  if (hcan->Init.AutoBusOff == ENABLE)
 8002e24:	7e62      	ldrb	r2, [r4, #25]
 8002e26:	2a01      	cmp	r2, #1
  {
    SET_BIT(hcan->Instance->MCR, CAN_MCR_ABOM);
 8002e28:	681a      	ldr	r2, [r3, #0]
 8002e2a:	bf0c      	ite	eq
 8002e2c:	f042 0240 	orreq.w	r2, r2, #64	@ 0x40
  }
  else
  {
    CLEAR_BIT(hcan->Instance->MCR, CAN_MCR_ABOM);
 8002e30:	f022 0240 	bicne.w	r2, r2, #64	@ 0x40
 8002e34:	601a      	str	r2, [r3, #0]
  }

  /* Set the automatic wake-up mode */
  if (hcan->Init.AutoWakeUp == ENABLE)
 8002e36:	7ea2      	ldrb	r2, [r4, #26]
 8002e38:	2a01      	cmp	r2, #1
  {
    SET_BIT(hcan->Instance->MCR, CAN_MCR_AWUM);
 8002e3a:	681a      	ldr	r2, [r3, #0]
 8002e3c:	bf0c      	ite	eq
 8002e3e:	f042 0220 	orreq.w	r2, r2, #32
  }
  else
  {
    CLEAR_BIT(hcan->Instance->MCR, CAN_MCR_AWUM);
 8002e42:	f022 0220 	bicne.w	r2, r2, #32
 8002e46:	601a      	str	r2, [r3, #0]
  }

  /* Set the automatic retransmission */
  if (hcan->Init.AutoRetransmission == ENABLE)
 8002e48:	7ee2      	ldrb	r2, [r4, #27]
 8002e4a:	2a01      	cmp	r2, #1
  {
    CLEAR_BIT(hcan->Instance->MCR, CAN_MCR_NART);
 8002e4c:	681a      	ldr	r2, [r3, #0]
 8002e4e:	bf0c      	ite	eq
 8002e50:	f022 0210 	biceq.w	r2, r2, #16
  }
  else
  {
    SET_BIT(hcan->Instance->MCR, CAN_MCR_NART);
 8002e54:	f042 0210 	orrne.w	r2, r2, #16
 8002e58:	601a      	str	r2, [r3, #0]
  }

  /* Set the receive FIFO locked mode */
  if (hcan->Init.ReceiveFifoLocked == ENABLE)
 8002e5a:	7f22      	ldrb	r2, [r4, #28]
 8002e5c:	2a01      	cmp	r2, #1
  {
    SET_BIT(hcan->Instance->MCR, CAN_MCR_RFLM);
 8002e5e:	681a      	ldr	r2, [r3, #0]
 8002e60:	bf0c      	ite	eq
 8002e62:	f042 0208 	orreq.w	r2, r2, #8
  }
  else
  {
    CLEAR_BIT(hcan->Instance->MCR, CAN_MCR_RFLM);
 8002e66:	f022 0208 	bicne.w	r2, r2, #8
 8002e6a:	601a      	str	r2, [r3, #0]
  }

  /* Set the transmit FIFO priority */
  if (hcan->Init.TransmitFifoPriority == ENABLE)
 8002e6c:	7f62      	ldrb	r2, [r4, #29]
 8002e6e:	2a01      	cmp	r2, #1
  {
    SET_BIT(hcan->Instance->MCR, CAN_MCR_TXFP);
 8002e70:	681a      	ldr	r2, [r3, #0]
 8002e72:	bf0c      	ite	eq
 8002e74:	f042 0204 	orreq.w	r2, r2, #4
  }
  else
  {
    CLEAR_BIT(hcan->Instance->MCR, CAN_MCR_TXFP);
 8002e78:	f022 0204 	bicne.w	r2, r2, #4
 8002e7c:	601a      	str	r2, [r3, #0]
  }

  /* Set the bit timing register */
  WRITE_REG(hcan->Instance->BTR, (uint32_t)(hcan->Init.Mode           |
 8002e7e:	6921      	ldr	r1, [r4, #16]
 8002e80:	e9d4 2002 	ldrd	r2, r0, [r4, #8]
 8002e84:	4302      	orrs	r2, r0
 8002e86:	6960      	ldr	r0, [r4, #20]
 8002e88:	430a      	orrs	r2, r1
 8002e8a:	6861      	ldr	r1, [r4, #4]
 8002e8c:	4302      	orrs	r2, r0
 8002e8e:	3901      	subs	r1, #1
                                            hcan->Init.TimeSeg1       |
                                            hcan->Init.TimeSeg2       |
                                            (hcan->Init.Prescaler - 1U)));

  /* Initialize the error code */
  hcan->ErrorCode = HAL_CAN_ERROR_NONE;
 8002e90:	2000      	movs	r0, #0
  WRITE_REG(hcan->Instance->BTR, (uint32_t)(hcan->Init.Mode           |
 8002e92:	430a      	orrs	r2, r1

  /* Initialize the CAN state */
  hcan->State = HAL_CAN_STATE_READY;
 8002e94:	2101      	movs	r1, #1
  WRITE_REG(hcan->Instance->BTR, (uint32_t)(hcan->Init.Mode           |
 8002e96:	61da      	str	r2, [r3, #28]
  hcan->ErrorCode = HAL_CAN_ERROR_NONE;
 8002e98:	6260      	str	r0, [r4, #36]	@ 0x24
  hcan->State = HAL_CAN_STATE_READY;
 8002e9a:	f884 1020 	strb.w	r1, [r4, #32]

  /* Return function status */
  return HAL_OK;
}
 8002e9e:	bd38      	pop	{r3, r4, r5, pc}
      hcan->ErrorCode |= HAL_CAN_ERROR_TIMEOUT;
 8002ea0:	6a63      	ldr	r3, [r4, #36]	@ 0x24
      hcan->State = HAL_CAN_STATE_ERROR;
 8002ea2:	2205      	movs	r2, #5
    return HAL_ERROR;
 8002ea4:	2001      	movs	r0, #1
      hcan->ErrorCode |= HAL_CAN_ERROR_TIMEOUT;
 8002ea6:	f443 3300 	orr.w	r3, r3, #131072	@ 0x20000
 8002eaa:	6263      	str	r3, [r4, #36]	@ 0x24
      hcan->State = HAL_CAN_STATE_ERROR;
 8002eac:	f884 2020 	strb.w	r2, [r4, #32]
}
 8002eb0:	bd38      	pop	{r3, r4, r5, pc}
    HAL_CAN_MspInit(hcan);
 8002eb2:	f7fe fde5 	bl	8001a80 <HAL_CAN_MspInit>
 8002eb6:	e789      	b.n	8002dcc <HAL_CAN_Init+0x10>
    return HAL_ERROR;
 8002eb8:	2001      	movs	r0, #1
}
 8002eba:	4770      	bx	lr

08002ebc <HAL_CAN_Start>:
  * @param  hcan pointer to an CAN_HandleTypeDef structure that contains
  *         the configuration information for the specified CAN.
  * @retval HAL status
  */
HAL_StatusTypeDef HAL_CAN_Start(CAN_HandleTypeDef *hcan)
{
 8002ebc:	b538      	push	{r3, r4, r5, lr}
  uint32_t tickstart;

  if (hcan->State == HAL_CAN_STATE_READY)
 8002ebe:	f890 3020 	ldrb.w	r3, [r0, #32]
{
 8002ec2:	4604      	mov	r4, r0
  if (hcan->State == HAL_CAN_STATE_READY)
 8002ec4:	2b01      	cmp	r3, #1
 8002ec6:	d005      	beq.n	8002ed4 <HAL_CAN_Start+0x18>
    return HAL_OK;
  }
  else
  {
    /* Update error code */
    hcan->ErrorCode |= HAL_CAN_ERROR_NOT_READY;
 8002ec8:	6a43      	ldr	r3, [r0, #36]	@ 0x24
 8002eca:	f443 2300 	orr.w	r3, r3, #524288	@ 0x80000
 8002ece:	6243      	str	r3, [r0, #36]	@ 0x24
        return HAL_ERROR;
 8002ed0:	2001      	movs	r0, #1

    return HAL_ERROR;
  }
}
 8002ed2:	bd38      	pop	{r3, r4, r5, pc}
    CLEAR_BIT(hcan->Instance->MCR, CAN_MCR_INRQ);
 8002ed4:	6802      	ldr	r2, [r0, #0]
    hcan->State = HAL_CAN_STATE_LISTENING;
 8002ed6:	2302      	movs	r3, #2
 8002ed8:	f880 3020 	strb.w	r3, [r0, #32]
    CLEAR_BIT(hcan->Instance->MCR, CAN_MCR_INRQ);
 8002edc:	6813      	ldr	r3, [r2, #0]
 8002ede:	f023 0301 	bic.w	r3, r3, #1
 8002ee2:	6013      	str	r3, [r2, #0]
    tickstart = HAL_GetTick();
 8002ee4:	f7ff fcf4 	bl	80028d0 <HAL_GetTick>
 8002ee8:	4605      	mov	r5, r0
    while ((hcan->Instance->MSR & CAN_MSR_INAK) != 0U)
 8002eea:	e004      	b.n	8002ef6 <HAL_CAN_Start+0x3a>
      if ((HAL_GetTick() - tickstart) > CAN_TIMEOUT_VALUE)
 8002eec:	f7ff fcf0 	bl	80028d0 <HAL_GetTick>
 8002ef0:	1b43      	subs	r3, r0, r5
 8002ef2:	2b0a      	cmp	r3, #10
 8002ef4:	d807      	bhi.n	8002f06 <HAL_CAN_Start+0x4a>
    while ((hcan->Instance->MSR & CAN_MSR_INAK) != 0U)
 8002ef6:	6823      	ldr	r3, [r4, #0]
 8002ef8:	685b      	ldr	r3, [r3, #4]
 8002efa:	f013 0301 	ands.w	r3, r3, #1
 8002efe:	d1f5      	bne.n	8002eec <HAL_CAN_Start+0x30>
    return HAL_OK;
 8002f00:	4618      	mov	r0, r3
    hcan->ErrorCode = HAL_CAN_ERROR_NONE;
 8002f02:	6263      	str	r3, [r4, #36]	@ 0x24
}
 8002f04:	bd38      	pop	{r3, r4, r5, pc}
        hcan->ErrorCode |= HAL_CAN_ERROR_TIMEOUT;
 8002f06:	6a63      	ldr	r3, [r4, #36]	@ 0x24
        hcan->State = HAL_CAN_STATE_ERROR;
 8002f08:	2205      	movs	r2, #5
        hcan->ErrorCode |= HAL_CAN_ERROR_TIMEOUT;
 8002f0a:	f443 3300 	orr.w	r3, r3, #131072	@ 0x20000
 8002f0e:	6263      	str	r3, [r4, #36]	@ 0x24
        hcan->State = HAL_CAN_STATE_ERROR;
 8002f10:	f884 2020 	strb.w	r2, [r4, #32]
        return HAL_ERROR;
 8002f14:	e7dc      	b.n	8002ed0 <HAL_CAN_Start+0x14>
 8002f16:	bf00      	nop

08002f18 <HAL_CAN_AddTxMessage>:
  *         This parameter can be a value of @arg CAN_Tx_Mailboxes.
  * @retval HAL status
  */
HAL_StatusTypeDef HAL_CAN_AddTxMessage(CAN_HandleTypeDef *hcan, const CAN_TxHeaderTypeDef *pHeader,
                                       const uint8_t aData[], uint32_t *pTxMailbox)
{
 8002f18:	b430      	push	{r4, r5}
  uint32_t transmitmailbox;
  HAL_CAN_StateTypeDef state = hcan->State;
 8002f1a:	f890 c020 	ldrb.w	ip, [r0, #32]
  uint32_t tsr = READ_REG(hcan->Instance->TSR);
 8002f1e:	6805      	ldr	r5, [r0, #0]
  {
    assert_param(IS_CAN_EXTID(pHeader->ExtId));
  }
  assert_param(IS_FUNCTIONAL_STATE(pHeader->TransmitGlobalTime));

  if ((state == HAL_CAN_STATE_READY) ||
 8002f20:	f10c 3cff 	add.w	ip, ip, #4294967295
  uint32_t tsr = READ_REG(hcan->Instance->TSR);
 8002f24:	68ac      	ldr	r4, [r5, #8]
  if ((state == HAL_CAN_STATE_READY) ||
 8002f26:	f1bc 0f01 	cmp.w	ip, #1
 8002f2a:	d838      	bhi.n	8002f9e <HAL_CAN_AddTxMessage+0x86>
      (state == HAL_CAN_STATE_LISTENING))
  {
    /* Check that all the Tx mailboxes are not full */
    if (((tsr & CAN_TSR_TME0) != 0U) ||
 8002f2c:	f014 5fe0 	tst.w	r4, #469762048	@ 0x1c000000
 8002f30:	d106      	bne.n	8002f40 <HAL_CAN_AddTxMessage+0x28>
      return HAL_OK;
    }
    else
    {
      /* Update error code */
      hcan->ErrorCode |= HAL_CAN_ERROR_PARAM;
 8002f32:	6a43      	ldr	r3, [r0, #36]	@ 0x24
 8002f34:	f443 1300 	orr.w	r3, r3, #2097152	@ 0x200000
 8002f38:	6243      	str	r3, [r0, #36]	@ 0x24

      return HAL_ERROR;
 8002f3a:	2001      	movs	r0, #1
    /* Update error code */
    hcan->ErrorCode |= HAL_CAN_ERROR_NOT_INITIALIZED;

    return HAL_ERROR;
  }
}
 8002f3c:	bc30      	pop	{r4, r5}
 8002f3e:	4770      	bx	lr
      transmitmailbox = (tsr & CAN_TSR_CODE) >> CAN_TSR_CODE_Pos;
 8002f40:	f3c4 6401 	ubfx	r4, r4, #24, #2
      *pTxMailbox = (uint32_t)1 << transmitmailbox;
 8002f44:	2001      	movs	r0, #1
 8002f46:	40a0      	lsls	r0, r4
 8002f48:	6018      	str	r0, [r3, #0]
      if (pHeader->IDE == CAN_ID_STD)
 8002f4a:	688b      	ldr	r3, [r1, #8]
 8002f4c:	b363      	cbz	r3, 8002fa8 <HAL_CAN_AddTxMessage+0x90>
                                                           pHeader->IDE |
 8002f4e:	68c8      	ldr	r0, [r1, #12]
 8002f50:	4303      	orrs	r3, r0
        hcan->Instance->sTxMailBox[transmitmailbox].TIR = ((pHeader->ExtId << CAN_TI0R_EXID_Pos) |
 8002f52:	6848      	ldr	r0, [r1, #4]
                                                           pHeader->IDE |
 8002f54:	ea43 03c0 	orr.w	r3, r3, r0, lsl #3
        hcan->Instance->sTxMailBox[transmitmailbox].TIR = ((pHeader->ExtId << CAN_TI0R_EXID_Pos) |
 8002f58:	f104 0018 	add.w	r0, r4, #24
 8002f5c:	0100      	lsls	r0, r0, #4
 8002f5e:	502b      	str	r3, [r5, r0]
      hcan->Instance->sTxMailBox[transmitmailbox].TDTR = (pHeader->DLC);
 8002f60:	690b      	ldr	r3, [r1, #16]
 8002f62:	eb05 1c04 	add.w	ip, r5, r4, lsl #4
 8002f66:	f8cc 3184 	str.w	r3, [ip, #388]	@ 0x184
      if (pHeader->TransmitGlobalTime == ENABLE)
 8002f6a:	7d0b      	ldrb	r3, [r1, #20]
 8002f6c:	0121      	lsls	r1, r4, #4
 8002f6e:	2b01      	cmp	r3, #1
 8002f70:	d105      	bne.n	8002f7e <HAL_CAN_AddTxMessage+0x66>
        SET_BIT(hcan->Instance->sTxMailBox[transmitmailbox].TDTR, CAN_TDT0R_TGT);
 8002f72:	f8dc 3184 	ldr.w	r3, [ip, #388]	@ 0x184
 8002f76:	f443 7380 	orr.w	r3, r3, #256	@ 0x100
 8002f7a:	f8cc 3184 	str.w	r3, [ip, #388]	@ 0x184
      WRITE_REG(hcan->Instance->sTxMailBox[transmitmailbox].TDHR,
 8002f7e:	6854      	ldr	r4, [r2, #4]
 8002f80:	186b      	adds	r3, r5, r1
      return HAL_OK;
 8002f82:	2000      	movs	r0, #0
      WRITE_REG(hcan->Instance->sTxMailBox[transmitmailbox].TDHR,
 8002f84:	f8c3 418c 	str.w	r4, [r3, #396]	@ 0x18c
      WRITE_REG(hcan->Instance->sTxMailBox[transmitmailbox].TDLR,
 8002f88:	6812      	ldr	r2, [r2, #0]
 8002f8a:	f8c3 2188 	str.w	r2, [r3, #392]	@ 0x188
      SET_BIT(hcan->Instance->sTxMailBox[transmitmailbox].TIR, CAN_TI0R_TXRQ);
 8002f8e:	f8dc 3180 	ldr.w	r3, [ip, #384]	@ 0x180
 8002f92:	f043 0301 	orr.w	r3, r3, #1
}
 8002f96:	bc30      	pop	{r4, r5}
      SET_BIT(hcan->Instance->sTxMailBox[transmitmailbox].TIR, CAN_TI0R_TXRQ);
 8002f98:	f8cc 3180 	str.w	r3, [ip, #384]	@ 0x180
}
 8002f9c:	4770      	bx	lr
    hcan->ErrorCode |= HAL_CAN_ERROR_NOT_INITIALIZED;
 8002f9e:	6a43      	ldr	r3, [r0, #36]	@ 0x24
 8002fa0:	f443 2380 	orr.w	r3, r3, #262144	@ 0x40000
 8002fa4:	6243      	str	r3, [r0, #36]	@ 0x24
    return HAL_ERROR;
 8002fa6:	e7c8      	b.n	8002f3a <HAL_CAN_AddTxMessage+0x22>
        hcan->Instance->sTxMailBox[transmitmailbox].TIR = ((pHeader->StdId << CAN_TI0R_STID_Pos) |
 8002fa8:	68cb      	ldr	r3, [r1, #12]
 8002faa:	6808      	ldr	r0, [r1, #0]
 8002fac:	ea43 5040 	orr.w	r0, r3, r0, lsl #21
 8002fb0:	f104 0318 	add.w	r3, r4, #24
 8002fb4:	011b      	lsls	r3, r3, #4
 8002fb6:	50e8      	str	r0, [r5, r3]
 8002fb8:	e7d2      	b.n	8002f60 <HAL_CAN_AddTxMessage+0x48>
 8002fba:	bf00      	nop

08002fbc <HAL_CAN_GetRxMessage>:
  * @retval HAL status
  */
HAL_StatusTypeDef HAL_CAN_GetRxMessage(CAN_HandleTypeDef *hcan, uint32_t RxFifo,
                                       CAN_RxHeaderTypeDef *pHeader, uint8_t aData[])
{
  HAL_CAN_StateTypeDef state = hcan->State;
 8002fbc:	f890 c020 	ldrb.w	ip, [r0, #32]

  assert_param(IS_CAN_RX_FIFO(RxFifo));

  if ((state == HAL_CAN_STATE_READY) ||
 8002fc0:	f10c 3cff 	add.w	ip, ip, #4294967295
 8002fc4:	f1bc 0f01 	cmp.w	ip, #1
 8002fc8:	d865      	bhi.n	8003096 <HAL_CAN_GetRxMessage+0xda>
{
 8002fca:	b5f0      	push	{r4, r5, r6, r7, lr}
  {
    /* Check the Rx FIFO */
    if (RxFifo == CAN_RX_FIFO0) /* Rx element is assigned to Rx FIFO 0 */
    {
      /* Check that the Rx FIFO 0 is not empty */
      if ((hcan->Instance->RF0R & CAN_RF0R_FMP0) == 0U)
 8002fcc:	6804      	ldr	r4, [r0, #0]
    if (RxFifo == CAN_RX_FIFO0) /* Rx element is assigned to Rx FIFO 0 */
 8002fce:	b941      	cbnz	r1, 8002fe2 <HAL_CAN_GetRxMessage+0x26>
      if ((hcan->Instance->RF0R & CAN_RF0R_FMP0) == 0U)
 8002fd0:	68e5      	ldr	r5, [r4, #12]
 8002fd2:	07ae      	lsls	r6, r5, #30
 8002fd4:	d108      	bne.n	8002fe8 <HAL_CAN_GetRxMessage+0x2c>
    {
      /* Check that the Rx FIFO 1 is not empty */
      if ((hcan->Instance->RF1R & CAN_RF1R_FMP1) == 0U)
      {
        /* Update error code */
        hcan->ErrorCode |= HAL_CAN_ERROR_PARAM;
 8002fd6:	6a43      	ldr	r3, [r0, #36]	@ 0x24
 8002fd8:	f443 1300 	orr.w	r3, r3, #2097152	@ 0x200000
 8002fdc:	6243      	str	r3, [r0, #36]	@ 0x24
        return HAL_ERROR;
 8002fde:	2001      	movs	r0, #1
    /* Update error code */
    hcan->ErrorCode |= HAL_CAN_ERROR_NOT_INITIALIZED;

    return HAL_ERROR;
  }
}
 8002fe0:	bdf0      	pop	{r4, r5, r6, r7, pc}
      if ((hcan->Instance->RF1R & CAN_RF1R_FMP1) == 0U)
 8002fe2:	6925      	ldr	r5, [r4, #16]
 8002fe4:	07ad      	lsls	r5, r5, #30
 8002fe6:	d0f6      	beq.n	8002fd6 <HAL_CAN_GetRxMessage+0x1a>
    pHeader->IDE = CAN_RI0R_IDE & hcan->Instance->sFIFOMailBox[RxFifo].RIR;
 8002fe8:	eb04 1c01 	add.w	ip, r4, r1, lsl #4
 8002fec:	ea4f 1e01 	mov.w	lr, r1, lsl #4
 8002ff0:	f8dc 51b0 	ldr.w	r5, [ip, #432]	@ 0x1b0
 8002ff4:	f005 0504 	and.w	r5, r5, #4
 8002ff8:	6095      	str	r5, [r2, #8]
    if (pHeader->IDE == CAN_ID_STD)
 8002ffa:	2d00      	cmp	r5, #0
 8002ffc:	d051      	beq.n	80030a2 <HAL_CAN_GetRxMessage+0xe6>
                        hcan->Instance->sFIFOMailBox[RxFifo].RIR) >> CAN_RI0R_EXID_Pos;
 8002ffe:	f8dc 51b0 	ldr.w	r5, [ip, #432]	@ 0x1b0
 8003002:	08ed      	lsrs	r5, r5, #3
      pHeader->ExtId = ((CAN_RI0R_EXID | CAN_RI0R_STID) &
 8003004:	6055      	str	r5, [r2, #4]
    pHeader->RTR = (CAN_RI0R_RTR & hcan->Instance->sFIFOMailBox[RxFifo].RIR);
 8003006:	f8dc 51b0 	ldr.w	r5, [ip, #432]	@ 0x1b0
    aData[0] = (uint8_t)((CAN_RDL0R_DATA0 & hcan->Instance->sFIFOMailBox[RxFifo].RDLR) >> CAN_RDL0R_DATA0_Pos);
 800300a:	4474      	add	r4, lr
    pHeader->RTR = (CAN_RI0R_RTR & hcan->Instance->sFIFOMailBox[RxFifo].RIR);
 800300c:	f005 0502 	and.w	r5, r5, #2
 8003010:	60d5      	str	r5, [r2, #12]
    pHeader->DLC = (CAN_RDT0R_DLC & hcan->Instance->sFIFOMailBox[RxFifo].RDTR) >> CAN_RDT0R_DLC_Pos;
 8003012:	f8dc 51b4 	ldr.w	r5, [ip, #436]	@ 0x1b4
    pHeader->FilterMatchIndex = (CAN_RDT0R_FMI & hcan->Instance->sFIFOMailBox[RxFifo].RDTR) >> CAN_RDT0R_FMI_Pos;
 8003016:	f8dc 61b4 	ldr.w	r6, [ip, #436]	@ 0x1b4
    pHeader->DLC = (CAN_RDT0R_DLC & hcan->Instance->sFIFOMailBox[RxFifo].RDTR) >> CAN_RDT0R_DLC_Pos;
 800301a:	f005 050f 	and.w	r5, r5, #15
    pHeader->FilterMatchIndex = (CAN_RDT0R_FMI & hcan->Instance->sFIFOMailBox[RxFifo].RDTR) >> CAN_RDT0R_FMI_Pos;
 800301e:	f3c6 2607 	ubfx	r6, r6, #8, #8
    pHeader->DLC = (CAN_RDT0R_DLC & hcan->Instance->sFIFOMailBox[RxFifo].RDTR) >> CAN_RDT0R_DLC_Pos;
 8003022:	6115      	str	r5, [r2, #16]
    pHeader->Timestamp = (CAN_RDT0R_TIME & hcan->Instance->sFIFOMailBox[RxFifo].RDTR) >> CAN_RDT0R_TIME_Pos;
 8003024:	f8dc 51b4 	ldr.w	r5, [ip, #436]	@ 0x1b4
    aData[0] = (uint8_t)((CAN_RDL0R_DATA0 & hcan->Instance->sFIFOMailBox[RxFifo].RDLR) >> CAN_RDL0R_DATA0_Pos);
 8003028:	f8d4 71b8 	ldr.w	r7, [r4, #440]	@ 0x1b8
    pHeader->Timestamp = (CAN_RDT0R_TIME & hcan->Instance->sFIFOMailBox[RxFifo].RDTR) >> CAN_RDT0R_TIME_Pos;
 800302c:	0c2d      	lsrs	r5, r5, #16
    pHeader->FilterMatchIndex = (CAN_RDT0R_FMI & hcan->Instance->sFIFOMailBox[RxFifo].RDTR) >> CAN_RDT0R_FMI_Pos;
 800302e:	6196      	str	r6, [r2, #24]
    pHeader->Timestamp = (CAN_RDT0R_TIME & hcan->Instance->sFIFOMailBox[RxFifo].RDTR) >> CAN_RDT0R_TIME_Pos;
 8003030:	6155      	str	r5, [r2, #20]
    aData[0] = (uint8_t)((CAN_RDL0R_DATA0 & hcan->Instance->sFIFOMailBox[RxFifo].RDLR) >> CAN_RDL0R_DATA0_Pos);
 8003032:	701f      	strb	r7, [r3, #0]
    aData[1] = (uint8_t)((CAN_RDL0R_DATA1 & hcan->Instance->sFIFOMailBox[RxFifo].RDLR) >> CAN_RDL0R_DATA1_Pos);
 8003034:	6802      	ldr	r2, [r0, #0]
 8003036:	4472      	add	r2, lr
 8003038:	f8d2 21b8 	ldr.w	r2, [r2, #440]	@ 0x1b8
 800303c:	0a12      	lsrs	r2, r2, #8
 800303e:	705a      	strb	r2, [r3, #1]
    aData[2] = (uint8_t)((CAN_RDL0R_DATA2 & hcan->Instance->sFIFOMailBox[RxFifo].RDLR) >> CAN_RDL0R_DATA2_Pos);
 8003040:	6802      	ldr	r2, [r0, #0]
 8003042:	4472      	add	r2, lr
 8003044:	f8d2 21b8 	ldr.w	r2, [r2, #440]	@ 0x1b8
 8003048:	0c12      	lsrs	r2, r2, #16
 800304a:	709a      	strb	r2, [r3, #2]
    aData[3] = (uint8_t)((CAN_RDL0R_DATA3 & hcan->Instance->sFIFOMailBox[RxFifo].RDLR) >> CAN_RDL0R_DATA3_Pos);
 800304c:	6802      	ldr	r2, [r0, #0]
 800304e:	4472      	add	r2, lr
 8003050:	f8d2 21b8 	ldr.w	r2, [r2, #440]	@ 0x1b8
 8003054:	0e12      	lsrs	r2, r2, #24
 8003056:	70da      	strb	r2, [r3, #3]
    aData[4] = (uint8_t)((CAN_RDH0R_DATA4 & hcan->Instance->sFIFOMailBox[RxFifo].RDHR) >> CAN_RDH0R_DATA4_Pos);
 8003058:	6802      	ldr	r2, [r0, #0]
 800305a:	4472      	add	r2, lr
 800305c:	f8d2 21bc 	ldr.w	r2, [r2, #444]	@ 0x1bc
 8003060:	711a      	strb	r2, [r3, #4]
    aData[5] = (uint8_t)((CAN_RDH0R_DATA5 & hcan->Instance->sFIFOMailBox[RxFifo].RDHR) >> CAN_RDH0R_DATA5_Pos);
 8003062:	6802      	ldr	r2, [r0, #0]
 8003064:	4472      	add	r2, lr
 8003066:	f8d2 21bc 	ldr.w	r2, [r2, #444]	@ 0x1bc
 800306a:	0a12      	lsrs	r2, r2, #8
 800306c:	715a      	strb	r2, [r3, #5]
    aData[6] = (uint8_t)((CAN_RDH0R_DATA6 & hcan->Instance->sFIFOMailBox[RxFifo].RDHR) >> CAN_RDH0R_DATA6_Pos);
 800306e:	6802      	ldr	r2, [r0, #0]
 8003070:	4472      	add	r2, lr
 8003072:	f8d2 21bc 	ldr.w	r2, [r2, #444]	@ 0x1bc
 8003076:	0c12      	lsrs	r2, r2, #16
 8003078:	719a      	strb	r2, [r3, #6]
    aData[7] = (uint8_t)((CAN_RDH0R_DATA7 & hcan->Instance->sFIFOMailBox[RxFifo].RDHR) >> CAN_RDH0R_DATA7_Pos);
 800307a:	6802      	ldr	r2, [r0, #0]
 800307c:	4472      	add	r2, lr
 800307e:	f8d2 21bc 	ldr.w	r2, [r2, #444]	@ 0x1bc
 8003082:	0e12      	lsrs	r2, r2, #24
 8003084:	71da      	strb	r2, [r3, #7]
      SET_BIT(hcan->Instance->RF0R, CAN_RF0R_RFOM0);
 8003086:	6802      	ldr	r2, [r0, #0]
    if (RxFifo == CAN_RX_FIFO0) /* Rx element is assigned to Rx FIFO 0 */
 8003088:	b981      	cbnz	r1, 80030ac <HAL_CAN_GetRxMessage+0xf0>
      SET_BIT(hcan->Instance->RF0R, CAN_RF0R_RFOM0);
 800308a:	68d3      	ldr	r3, [r2, #12]
 800308c:	f043 0320 	orr.w	r3, r3, #32
 8003090:	60d3      	str	r3, [r2, #12]
    return HAL_OK;
 8003092:	2000      	movs	r0, #0
}
 8003094:	bdf0      	pop	{r4, r5, r6, r7, pc}
    hcan->ErrorCode |= HAL_CAN_ERROR_NOT_INITIALIZED;
 8003096:	6a43      	ldr	r3, [r0, #36]	@ 0x24
 8003098:	f443 2380 	orr.w	r3, r3, #262144	@ 0x40000
 800309c:	6243      	str	r3, [r0, #36]	@ 0x24
        return HAL_ERROR;
 800309e:	2001      	movs	r0, #1
}
 80030a0:	4770      	bx	lr
      pHeader->StdId = (CAN_RI0R_STID & hcan->Instance->sFIFOMailBox[RxFifo].RIR) >> CAN_TI0R_STID_Pos;
 80030a2:	f8dc 51b0 	ldr.w	r5, [ip, #432]	@ 0x1b0
 80030a6:	0d6d      	lsrs	r5, r5, #21
 80030a8:	6015      	str	r5, [r2, #0]
 80030aa:	e7ac      	b.n	8003006 <HAL_CAN_GetRxMessage+0x4a>
      SET_BIT(hcan->Instance->RF1R, CAN_RF1R_RFOM1);
 80030ac:	6913      	ldr	r3, [r2, #16]
 80030ae:	f043 0320 	orr.w	r3, r3, #32
 80030b2:	6113      	str	r3, [r2, #16]
 80030b4:	e7ed      	b.n	8003092 <HAL_CAN_GetRxMessage+0xd6>
 80030b6:	bf00      	nop

080030b8 <HAL_CAN_ActivateNotification>:
  *         This parameter can be any combination of @arg CAN_Interrupts.
  * @retval HAL status
  */
HAL_StatusTypeDef HAL_CAN_ActivateNotification(CAN_HandleTypeDef *hcan, uint32_t ActiveITs)
{
  HAL_CAN_StateTypeDef state = hcan->State;
 80030b8:	f890 2020 	ldrb.w	r2, [r0, #32]
{
 80030bc:	4603      	mov	r3, r0

  /* Check function parameters */
  assert_param(IS_CAN_IT(ActiveITs));

  if ((state == HAL_CAN_STATE_READY) ||
 80030be:	3a01      	subs	r2, #1
 80030c0:	2a01      	cmp	r2, #1
 80030c2:	d905      	bls.n	80030d0 <HAL_CAN_ActivateNotification+0x18>
    return HAL_OK;
  }
  else
  {
    /* Update error code */
    hcan->ErrorCode |= HAL_CAN_ERROR_NOT_INITIALIZED;
 80030c4:	6a42      	ldr	r2, [r0, #36]	@ 0x24

    return HAL_ERROR;
 80030c6:	2001      	movs	r0, #1
    hcan->ErrorCode |= HAL_CAN_ERROR_NOT_INITIALIZED;
 80030c8:	f442 2280 	orr.w	r2, r2, #262144	@ 0x40000
 80030cc:	625a      	str	r2, [r3, #36]	@ 0x24
  }
}
 80030ce:	4770      	bx	lr
    __HAL_CAN_ENABLE_IT(hcan, ActiveITs);
 80030d0:	6802      	ldr	r2, [r0, #0]
    return HAL_OK;
 80030d2:	2000      	movs	r0, #0
    __HAL_CAN_ENABLE_IT(hcan, ActiveITs);
 80030d4:	6953      	ldr	r3, [r2, #20]
 80030d6:	430b      	orrs	r3, r1
 80030d8:	6153      	str	r3, [r2, #20]
    return HAL_OK;
 80030da:	4770      	bx	lr

080030dc <HAL_CAN_TxMailbox0CompleteCallback>:
  * @brief  Transmission Mailbox 0 complete callback.
  * @param  hcan pointer to a CAN_HandleTypeDef structure that contains
  *         the configuration information for the specified CAN.
  * @retval None
  */
__weak void HAL_CAN_TxMailbox0CompleteCallback(CAN_HandleTypeDef *hcan)
 80030dc:	4770      	bx	lr
 80030de:	bf00      	nop

080030e0 <HAL_CAN_TxMailbox1CompleteCallback>:
  * @brief  Transmission Mailbox 1 complete callback.
  * @param  hcan pointer to a CAN_HandleTypeDef structure that contains
  *         the configuration information for the specified CAN.
  * @retval None
  */
__weak void HAL_CAN_TxMailbox1CompleteCallback(CAN_HandleTypeDef *hcan)
 80030e0:	4770      	bx	lr
 80030e2:	bf00      	nop

080030e4 <HAL_CAN_TxMailbox2CompleteCallback>:
  * @brief  Transmission Mailbox 2 complete callback.
  * @param  hcan pointer to a CAN_HandleTypeDef structure that contains
  *         the configuration information for the specified CAN.
  * @retval None
  */
__weak void HAL_CAN_TxMailbox2CompleteCallback(CAN_HandleTypeDef *hcan)
 80030e4:	4770      	bx	lr
 80030e6:	bf00      	nop

080030e8 <HAL_CAN_TxMailbox0AbortCallback>:
  * @brief  Transmission Mailbox 0 Cancellation callback.
  * @param  hcan pointer to an CAN_HandleTypeDef structure that contains
  *         the configuration information for the specified CAN.
  * @retval None
  */
__weak void HAL_CAN_TxMailbox0AbortCallback(CAN_HandleTypeDef *hcan)
 80030e8:	4770      	bx	lr
 80030ea:	bf00      	nop

080030ec <HAL_CAN_TxMailbox1AbortCallback>:
  * @brief  Transmission Mailbox 1 Cancellation callback.
  * @param  hcan pointer to an CAN_HandleTypeDef structure that contains
  *         the configuration information for the specified CAN.
  * @retval None
  */
__weak void HAL_CAN_TxMailbox1AbortCallback(CAN_HandleTypeDef *hcan)
 80030ec:	4770      	bx	lr
 80030ee:	bf00      	nop

080030f0 <HAL_CAN_TxMailbox2AbortCallback>:
  * @brief  Transmission Mailbox 2 Cancellation callback.
  * @param  hcan pointer to an CAN_HandleTypeDef structure that contains
  *         the configuration information for the specified CAN.
  * @retval None
  */
__weak void HAL_CAN_TxMailbox2AbortCallback(CAN_HandleTypeDef *hcan)
 80030f0:	4770      	bx	lr
 80030f2:	bf00      	nop

080030f4 <HAL_CAN_RxFifo0MsgPendingCallback>:
  * @brief  Rx FIFO 0 message pending callback.
  * @param  hcan pointer to a CAN_HandleTypeDef structure that contains
  *         the configuration information for the specified CAN.
  * @retval None
  */
__weak void HAL_CAN_RxFifo0MsgPendingCallback(CAN_HandleTypeDef *hcan)
 80030f4:	4770      	bx	lr
 80030f6:	bf00      	nop

080030f8 <HAL_CAN_RxFifo0FullCallback>:
  * @brief  Rx FIFO 0 full callback.
  * @param  hcan pointer to a CAN_HandleTypeDef structure that contains
  *         the configuration information for the specified CAN.
  * @retval None
  */
__weak void HAL_CAN_RxFifo0FullCallback(CAN_HandleTypeDef *hcan)
 80030f8:	4770      	bx	lr
 80030fa:	bf00      	nop

080030fc <HAL_CAN_RxFifo1MsgPendingCallback>:
  * @brief  Rx FIFO 1 message pending callback.
  * @param  hcan pointer to a CAN_HandleTypeDef structure that contains
  *         the configuration information for the specified CAN.
  * @retval None
  */
__weak void HAL_CAN_RxFifo1MsgPendingCallback(CAN_HandleTypeDef *hcan)
 80030fc:	4770      	bx	lr
 80030fe:	bf00      	nop

08003100 <HAL_CAN_RxFifo1FullCallback>:
  * @brief  Rx FIFO 1 full callback.
  * @param  hcan pointer to a CAN_HandleTypeDef structure that contains
  *         the configuration information for the specified CAN.
  * @retval None
  */
__weak void HAL_CAN_RxFifo1FullCallback(CAN_HandleTypeDef *hcan)
 8003100:	4770      	bx	lr
 8003102:	bf00      	nop

08003104 <HAL_CAN_SleepCallback>:
  * @brief  Sleep callback.
  * @param  hcan pointer to a CAN_HandleTypeDef structure that contains
  *         the configuration information for the specified CAN.
  * @retval None
  */
__weak void HAL_CAN_SleepCallback(CAN_HandleTypeDef *hcan)
 8003104:	4770      	bx	lr
 8003106:	bf00      	nop

08003108 <HAL_CAN_WakeUpFromRxMsgCallback>:
  * @brief  WakeUp from Rx message callback.
  * @param  hcan pointer to a CAN_HandleTypeDef structure that contains
  *         the configuration information for the specified CAN.
  * @retval None
  */
__weak void HAL_CAN_WakeUpFromRxMsgCallback(CAN_HandleTypeDef *hcan)
 8003108:	4770      	bx	lr
 800310a:	bf00      	nop

0800310c <HAL_CAN_ErrorCallback>:
  * @brief  Error CAN callback.
  * @param  hcan pointer to a CAN_HandleTypeDef structure that contains
  *         the configuration information for the specified CAN.
  * @retval None
  */
__weak void HAL_CAN_ErrorCallback(CAN_HandleTypeDef *hcan)
 800310c:	4770      	bx	lr
 800310e:	bf00      	nop

08003110 <HAL_CAN_IRQHandler>:
  uint32_t interrupts = READ_REG(hcan->Instance->IER);
 8003110:	6803      	ldr	r3, [r0, #0]
{
 8003112:	e92d 4ff0 	stmdb	sp!, {r4, r5, r6, r7, r8, r9, sl, fp, lr}
  uint32_t interrupts = READ_REG(hcan->Instance->IER);
 8003116:	695c      	ldr	r4, [r3, #20]
{
 8003118:	b083      	sub	sp, #12
  uint32_t msrflags = READ_REG(hcan->Instance->MSR);
 800311a:	f8d3 8004 	ldr.w	r8, [r3, #4]
{
 800311e:	4605      	mov	r5, r0
  if ((interrupts & CAN_IT_TX_MAILBOX_EMPTY) != 0U)
 8003120:	f014 0601 	ands.w	r6, r4, #1
  uint32_t tsrflags = READ_REG(hcan->Instance->TSR);
 8003124:	689f      	ldr	r7, [r3, #8]
  uint32_t rf0rflags = READ_REG(hcan->Instance->RF0R);
 8003126:	f8d3 b00c 	ldr.w	fp, [r3, #12]
  uint32_t rf1rflags = READ_REG(hcan->Instance->RF1R);
 800312a:	f8d3 a010 	ldr.w	sl, [r3, #16]
  uint32_t esrflags = READ_REG(hcan->Instance->ESR);
 800312e:	f8d3 9018 	ldr.w	r9, [r3, #24]
  if ((interrupts & CAN_IT_TX_MAILBOX_EMPTY) != 0U)
 8003132:	d025      	beq.n	8003180 <HAL_CAN_IRQHandler+0x70>
    if ((tsrflags & CAN_TSR_RQCP0) != 0U)
 8003134:	07fa      	lsls	r2, r7, #31
 8003136:	f100 80a2 	bmi.w	800327e <HAL_CAN_IRQHandler+0x16e>
{
 800313a:	f44f 5600 	mov.w	r6, #8192	@ 0x2000
 800313e:	f44f 4080 	mov.w	r0, #16384	@ 0x4000
  uint32_t errorcode = HAL_CAN_ERROR_NONE;
 8003142:	2100      	movs	r1, #0
    if ((tsrflags & CAN_TSR_RQCP1) != 0U)
 8003144:	05fb      	lsls	r3, r7, #23
 8003146:	f140 80af 	bpl.w	80032a8 <HAL_CAN_IRQHandler+0x198>
      __HAL_CAN_CLEAR_FLAG(hcan, CAN_FLAG_RQCP1);
 800314a:	f44f 7280 	mov.w	r2, #256	@ 0x100
 800314e:	682b      	ldr	r3, [r5, #0]
 8003150:	609a      	str	r2, [r3, #8]
      if ((tsrflags & CAN_TSR_TXOK1) != 0U)
 8003152:	05ba      	lsls	r2, r7, #22
 8003154:	f100 80a3 	bmi.w	800329e <HAL_CAN_IRQHandler+0x18e>
        if ((tsrflags & CAN_TSR_ALST1) != 0U)
 8003158:	057b      	lsls	r3, r7, #21
 800315a:	d403      	bmi.n	8003164 <HAL_CAN_IRQHandler+0x54>
        else if ((tsrflags & CAN_TSR_TERR1) != 0U)
 800315c:	053e      	lsls	r6, r7, #20
 800315e:	f140 8121 	bpl.w	80033a4 <HAL_CAN_IRQHandler+0x294>
          errorcode |= HAL_CAN_ERROR_TX_TERR1;
 8003162:	4606      	mov	r6, r0
    if ((tsrflags & CAN_TSR_RQCP2) != 0U)
 8003164:	03f9      	lsls	r1, r7, #15
 8003166:	d50b      	bpl.n	8003180 <HAL_CAN_IRQHandler+0x70>
      __HAL_CAN_CLEAR_FLAG(hcan, CAN_FLAG_RQCP2);
 8003168:	f44f 3280 	mov.w	r2, #65536	@ 0x10000
 800316c:	682b      	ldr	r3, [r5, #0]
 800316e:	609a      	str	r2, [r3, #8]
      if ((tsrflags & CAN_TSR_TXOK2) != 0U)
 8003170:	03ba      	lsls	r2, r7, #14
 8003172:	f100 80f9 	bmi.w	8003368 <HAL_CAN_IRQHandler+0x258>
        if ((tsrflags & CAN_TSR_ALST2) != 0U)
 8003176:	037b      	lsls	r3, r7, #13
 8003178:	f140 80ea 	bpl.w	8003350 <HAL_CAN_IRQHandler+0x240>
          errorcode |= HAL_CAN_ERROR_TX_ALST2;
 800317c:	f446 4600 	orr.w	r6, r6, #32768	@ 0x8000
  if ((interrupts & CAN_IT_RX_FIFO0_OVERRUN) != 0U)
 8003180:	0721      	lsls	r1, r4, #28
 8003182:	d502      	bpl.n	800318a <HAL_CAN_IRQHandler+0x7a>
    if ((rf0rflags & CAN_RF0R_FOVR0) != 0U)
 8003184:	f01b 0f10 	tst.w	fp, #16
 8003188:	d173      	bne.n	8003272 <HAL_CAN_IRQHandler+0x162>
  if ((interrupts & CAN_IT_RX_FIFO0_FULL) != 0U)
 800318a:	0762      	lsls	r2, r4, #29
 800318c:	d503      	bpl.n	8003196 <HAL_CAN_IRQHandler+0x86>
    if ((rf0rflags & CAN_RF0R_FULL0) != 0U)
 800318e:	f01b 0f08 	tst.w	fp, #8
 8003192:	f040 80a8 	bne.w	80032e6 <HAL_CAN_IRQHandler+0x1d6>
  if ((interrupts & CAN_IT_RX_FIFO0_MSG_PENDING) != 0U)
 8003196:	07a3      	lsls	r3, r4, #30
 8003198:	d504      	bpl.n	80031a4 <HAL_CAN_IRQHandler+0x94>
    if ((hcan->Instance->RF0R & CAN_RF0R_FMP0) != 0U)
 800319a:	682b      	ldr	r3, [r5, #0]
 800319c:	68db      	ldr	r3, [r3, #12]
 800319e:	079f      	lsls	r7, r3, #30
 80031a0:	f040 808b 	bne.w	80032ba <HAL_CAN_IRQHandler+0x1aa>
  if ((interrupts & CAN_IT_RX_FIFO1_OVERRUN) != 0U)
 80031a4:	0660      	lsls	r0, r4, #25
 80031a6:	d502      	bpl.n	80031ae <HAL_CAN_IRQHandler+0x9e>
    if ((rf1rflags & CAN_RF1R_FOVR1) != 0U)
 80031a8:	f01a 0f10 	tst.w	sl, #16
 80031ac:	d15b      	bne.n	8003266 <HAL_CAN_IRQHandler+0x156>
  if ((interrupts & CAN_IT_RX_FIFO1_FULL) != 0U)
 80031ae:	06a1      	lsls	r1, r4, #26
 80031b0:	d502      	bpl.n	80031b8 <HAL_CAN_IRQHandler+0xa8>
    if ((rf1rflags & CAN_RF1R_FULL1) != 0U)
 80031b2:	f01a 0f08 	tst.w	sl, #8
 80031b6:	d179      	bne.n	80032ac <HAL_CAN_IRQHandler+0x19c>
  if ((interrupts & CAN_IT_RX_FIFO1_MSG_PENDING) != 0U)
 80031b8:	06e2      	lsls	r2, r4, #27
 80031ba:	d503      	bpl.n	80031c4 <HAL_CAN_IRQHandler+0xb4>
    if ((hcan->Instance->RF1R & CAN_RF1R_FMP1) != 0U)
 80031bc:	682b      	ldr	r3, [r5, #0]
 80031be:	691b      	ldr	r3, [r3, #16]
 80031c0:	079b      	lsls	r3, r3, #30
 80031c2:	d17e      	bne.n	80032c2 <HAL_CAN_IRQHandler+0x1b2>
  if ((interrupts & CAN_IT_SLEEP_ACK) != 0U)
 80031c4:	03a7      	lsls	r7, r4, #14
 80031c6:	d502      	bpl.n	80031ce <HAL_CAN_IRQHandler+0xbe>
    if ((msrflags & CAN_MSR_SLAKI) != 0U)
 80031c8:	f018 0f10 	tst.w	r8, #16
 80031cc:	d17d      	bne.n	80032ca <HAL_CAN_IRQHandler+0x1ba>
  if ((interrupts & CAN_IT_WAKEUP) != 0U)
 80031ce:	03e0      	lsls	r0, r4, #15
 80031d0:	d502      	bpl.n	80031d8 <HAL_CAN_IRQHandler+0xc8>
    if ((msrflags & CAN_MSR_WKUI) != 0U)
 80031d2:	f018 0f08 	tst.w	r8, #8
 80031d6:	d17f      	bne.n	80032d8 <HAL_CAN_IRQHandler+0x1c8>
  if ((interrupts & CAN_IT_ERROR) != 0U)
 80031d8:	0421      	lsls	r1, r4, #16
 80031da:	d53f      	bpl.n	800325c <HAL_CAN_IRQHandler+0x14c>
    if ((msrflags & CAN_MSR_ERRI) != 0U)
 80031dc:	f018 0f04 	tst.w	r8, #4
    __HAL_CAN_CLEAR_FLAG(hcan, CAN_FLAG_ERRI);
 80031e0:	682b      	ldr	r3, [r5, #0]
    if ((msrflags & CAN_MSR_ERRI) != 0U)
 80031e2:	d039      	beq.n	8003258 <HAL_CAN_IRQHandler+0x148>
      if (((interrupts & CAN_IT_ERROR_WARNING) != 0U) &&
 80031e4:	05e2      	lsls	r2, r4, #23
 80031e6:	d504      	bpl.n	80031f2 <HAL_CAN_IRQHandler+0xe2>
 80031e8:	f019 0f01 	tst.w	r9, #1
        errorcode |= HAL_CAN_ERROR_EWG;
 80031ec:	bf18      	it	ne
 80031ee:	f046 0601 	orrne.w	r6, r6, #1
      if (((interrupts & CAN_IT_ERROR_PASSIVE) != 0U) &&
 80031f2:	05a7      	lsls	r7, r4, #22
 80031f4:	d47e      	bmi.n	80032f4 <HAL_CAN_IRQHandler+0x1e4>
      if (((interrupts & CAN_IT_BUSOFF) != 0U) &&
 80031f6:	0561      	lsls	r1, r4, #21
      if (((interrupts & CAN_IT_LAST_ERROR_CODE) != 0U) &&
 80031f8:	f404 6200 	and.w	r2, r4, #2048	@ 0x800
      if (((interrupts & CAN_IT_BUSOFF) != 0U) &&
 80031fc:	d528      	bpl.n	8003250 <HAL_CAN_IRQHandler+0x140>
 80031fe:	f019 0f04 	tst.w	r9, #4
 8003202:	d025      	beq.n	8003250 <HAL_CAN_IRQHandler+0x140>
        errorcode |= HAL_CAN_ERROR_BOF;
 8003204:	f046 0604 	orr.w	r6, r6, #4
      if (((interrupts & CAN_IT_LAST_ERROR_CODE) != 0U) &&
 8003208:	2a00      	cmp	r2, #0
 800320a:	f000 8083 	beq.w	8003314 <HAL_CAN_IRQHandler+0x204>
 800320e:	f019 0970 	ands.w	r9, r9, #112	@ 0x70
 8003212:	d07f      	beq.n	8003314 <HAL_CAN_IRQHandler+0x204>
        switch (esrflags & CAN_ESR_LEC)
 8003214:	f1b9 0f40 	cmp.w	r9, #64	@ 0x40
 8003218:	f000 80cf 	beq.w	80033ba <HAL_CAN_IRQHandler+0x2aa>
 800321c:	d87d      	bhi.n	800331a <HAL_CAN_IRQHandler+0x20a>
 800321e:	f1b9 0f20 	cmp.w	r9, #32
 8003222:	f000 80b3 	beq.w	800338c <HAL_CAN_IRQHandler+0x27c>
 8003226:	f1b9 0f30 	cmp.w	r9, #48	@ 0x30
 800322a:	f040 8085 	bne.w	8003338 <HAL_CAN_IRQHandler+0x228>
        CLEAR_BIT(hcan->Instance->ESR, CAN_ESR_LEC);
 800322e:	699a      	ldr	r2, [r3, #24]
    __HAL_CAN_CLEAR_FLAG(hcan, CAN_FLAG_ERRI);
 8003230:	2104      	movs	r1, #4
            errorcode |= HAL_CAN_ERROR_ACK;
 8003232:	f046 0620 	orr.w	r6, r6, #32
        CLEAR_BIT(hcan->Instance->ESR, CAN_ESR_LEC);
 8003236:	f022 0270 	bic.w	r2, r2, #112	@ 0x70
 800323a:	619a      	str	r2, [r3, #24]
    __HAL_CAN_CLEAR_FLAG(hcan, CAN_FLAG_ERRI);
 800323c:	6059      	str	r1, [r3, #4]
    hcan->ErrorCode |= errorcode;
 800323e:	6a6b      	ldr	r3, [r5, #36]	@ 0x24
    HAL_CAN_ErrorCallback(hcan);
 8003240:	4628      	mov	r0, r5
    hcan->ErrorCode |= errorcode;
 8003242:	4333      	orrs	r3, r6
 8003244:	626b      	str	r3, [r5, #36]	@ 0x24
    HAL_CAN_ErrorCallback(hcan);
 8003246:	f7ff ff61 	bl	800310c <HAL_CAN_ErrorCallback>
}
 800324a:	b003      	add	sp, #12
 800324c:	e8bd 8ff0 	ldmia.w	sp!, {r4, r5, r6, r7, r8, r9, sl, fp, pc}
      if (((interrupts & CAN_IT_LAST_ERROR_CODE) != 0U) &&
 8003250:	b112      	cbz	r2, 8003258 <HAL_CAN_IRQHandler+0x148>
 8003252:	f019 0970 	ands.w	r9, r9, #112	@ 0x70
 8003256:	d1dd      	bne.n	8003214 <HAL_CAN_IRQHandler+0x104>
    __HAL_CAN_CLEAR_FLAG(hcan, CAN_FLAG_ERRI);
 8003258:	2204      	movs	r2, #4
 800325a:	605a      	str	r2, [r3, #4]
  if (errorcode != HAL_CAN_ERROR_NONE)
 800325c:	2e00      	cmp	r6, #0
 800325e:	d1ee      	bne.n	800323e <HAL_CAN_IRQHandler+0x12e>
}
 8003260:	b003      	add	sp, #12
 8003262:	e8bd 8ff0 	ldmia.w	sp!, {r4, r5, r6, r7, r8, r9, sl, fp, pc}
      __HAL_CAN_CLEAR_FLAG(hcan, CAN_FLAG_FOV1);
 8003266:	682b      	ldr	r3, [r5, #0]
 8003268:	2210      	movs	r2, #16
      errorcode |= HAL_CAN_ERROR_RX_FOV1;
 800326a:	f446 6680 	orr.w	r6, r6, #1024	@ 0x400
      __HAL_CAN_CLEAR_FLAG(hcan, CAN_FLAG_FOV1);
 800326e:	611a      	str	r2, [r3, #16]
 8003270:	e79d      	b.n	80031ae <HAL_CAN_IRQHandler+0x9e>
      __HAL_CAN_CLEAR_FLAG(hcan, CAN_FLAG_FOV0);
 8003272:	682b      	ldr	r3, [r5, #0]
 8003274:	2210      	movs	r2, #16
      errorcode |= HAL_CAN_ERROR_RX_FOV0;
 8003276:	f446 7600 	orr.w	r6, r6, #512	@ 0x200
      __HAL_CAN_CLEAR_FLAG(hcan, CAN_FLAG_FOV0);
 800327a:	60da      	str	r2, [r3, #12]
 800327c:	e785      	b.n	800318a <HAL_CAN_IRQHandler+0x7a>
      __HAL_CAN_CLEAR_FLAG(hcan, CAN_FLAG_RQCP0);
 800327e:	2201      	movs	r2, #1
      if ((tsrflags & CAN_TSR_TXOK0) != 0U)
 8003280:	07be      	lsls	r6, r7, #30
      __HAL_CAN_CLEAR_FLAG(hcan, CAN_FLAG_RQCP0);
 8003282:	609a      	str	r2, [r3, #8]
      if ((tsrflags & CAN_TSR_TXOK0) != 0U)
 8003284:	d443      	bmi.n	800330e <HAL_CAN_IRQHandler+0x1fe>
        if ((tsrflags & CAN_TSR_ALST0) != 0U)
 8003286:	0779      	lsls	r1, r7, #29
 8003288:	d467      	bmi.n	800335a <HAL_CAN_IRQHandler+0x24a>
        else if ((tsrflags & CAN_TSR_TERR0) != 0U)
 800328a:	073a      	lsls	r2, r7, #28
 800328c:	f140 8087 	bpl.w	800339e <HAL_CAN_IRQHandler+0x28e>
 8003290:	f44f 5640 	mov.w	r6, #12288	@ 0x3000
 8003294:	f44f 40a0 	mov.w	r0, #20480	@ 0x5000
          errorcode |= HAL_CAN_ERROR_TX_TERR0;
 8003298:	f44f 5180 	mov.w	r1, #4096	@ 0x1000
 800329c:	e752      	b.n	8003144 <HAL_CAN_IRQHandler+0x34>
        HAL_CAN_TxMailbox1CompleteCallback(hcan);
 800329e:	4628      	mov	r0, r5
 80032a0:	9101      	str	r1, [sp, #4]
 80032a2:	f7ff ff1d 	bl	80030e0 <HAL_CAN_TxMailbox1CompleteCallback>
 80032a6:	9901      	ldr	r1, [sp, #4]
          errorcode |= HAL_CAN_ERROR_TX_ALST0;
 80032a8:	460e      	mov	r6, r1
 80032aa:	e75b      	b.n	8003164 <HAL_CAN_IRQHandler+0x54>
      __HAL_CAN_CLEAR_FLAG(hcan, CAN_FLAG_FF1);
 80032ac:	682b      	ldr	r3, [r5, #0]
 80032ae:	2208      	movs	r2, #8
      HAL_CAN_RxFifo1FullCallback(hcan);
 80032b0:	4628      	mov	r0, r5
      __HAL_CAN_CLEAR_FLAG(hcan, CAN_FLAG_FF1);
 80032b2:	611a      	str	r2, [r3, #16]
      HAL_CAN_RxFifo1FullCallback(hcan);
 80032b4:	f7ff ff24 	bl	8003100 <HAL_CAN_RxFifo1FullCallback>
 80032b8:	e77e      	b.n	80031b8 <HAL_CAN_IRQHandler+0xa8>
      HAL_CAN_RxFifo0MsgPendingCallback(hcan);
 80032ba:	4628      	mov	r0, r5
 80032bc:	f7ff ff1a 	bl	80030f4 <HAL_CAN_RxFifo0MsgPendingCallback>
 80032c0:	e770      	b.n	80031a4 <HAL_CAN_IRQHandler+0x94>
      HAL_CAN_RxFifo1MsgPendingCallback(hcan);
 80032c2:	4628      	mov	r0, r5
 80032c4:	f7ff ff1a 	bl	80030fc <HAL_CAN_RxFifo1MsgPendingCallback>
 80032c8:	e77c      	b.n	80031c4 <HAL_CAN_IRQHandler+0xb4>
      __HAL_CAN_CLEAR_FLAG(hcan, CAN_FLAG_SLAKI);
 80032ca:	682b      	ldr	r3, [r5, #0]
 80032cc:	2210      	movs	r2, #16
      HAL_CAN_SleepCallback(hcan);
 80032ce:	4628      	mov	r0, r5
      __HAL_CAN_CLEAR_FLAG(hcan, CAN_FLAG_SLAKI);
 80032d0:	605a      	str	r2, [r3, #4]
      HAL_CAN_SleepCallback(hcan);
 80032d2:	f7ff ff17 	bl	8003104 <HAL_CAN_SleepCallback>
 80032d6:	e77a      	b.n	80031ce <HAL_CAN_IRQHandler+0xbe>
      __HAL_CAN_CLEAR_FLAG(hcan, CAN_FLAG_WKU);
 80032d8:	682b      	ldr	r3, [r5, #0]
 80032da:	2208      	movs	r2, #8
      HAL_CAN_WakeUpFromRxMsgCallback(hcan);
 80032dc:	4628      	mov	r0, r5
      __HAL_CAN_CLEAR_FLAG(hcan, CAN_FLAG_WKU);
 80032de:	605a      	str	r2, [r3, #4]
      HAL_CAN_WakeUpFromRxMsgCallback(hcan);
 80032e0:	f7ff ff12 	bl	8003108 <HAL_CAN_WakeUpFromRxMsgCallback>
 80032e4:	e778      	b.n	80031d8 <HAL_CAN_IRQHandler+0xc8>
      __HAL_CAN_CLEAR_FLAG(hcan, CAN_FLAG_FF0);
 80032e6:	682b      	ldr	r3, [r5, #0]
 80032e8:	2208      	movs	r2, #8
      HAL_CAN_RxFifo0FullCallback(hcan);
 80032ea:	4628      	mov	r0, r5
      __HAL_CAN_CLEAR_FLAG(hcan, CAN_FLAG_FF0);
 80032ec:	60da      	str	r2, [r3, #12]
      HAL_CAN_RxFifo0FullCallback(hcan);
 80032ee:	f7ff ff03 	bl	80030f8 <HAL_CAN_RxFifo0FullCallback>
 80032f2:	e750      	b.n	8003196 <HAL_CAN_IRQHandler+0x86>
      if (((interrupts & CAN_IT_ERROR_PASSIVE) != 0U) &&
 80032f4:	f019 0f02 	tst.w	r9, #2
 80032f8:	f43f af7d 	beq.w	80031f6 <HAL_CAN_IRQHandler+0xe6>
      if (((interrupts & CAN_IT_BUSOFF) != 0U) &&
 80032fc:	0560      	lsls	r0, r4, #21
        errorcode |= HAL_CAN_ERROR_EPV;
 80032fe:	f046 0602 	orr.w	r6, r6, #2
      if (((interrupts & CAN_IT_LAST_ERROR_CODE) != 0U) &&
 8003302:	f404 6200 	and.w	r2, r4, #2048	@ 0x800
      if (((interrupts & CAN_IT_BUSOFF) != 0U) &&
 8003306:	f53f af7a 	bmi.w	80031fe <HAL_CAN_IRQHandler+0xee>
      if (((interrupts & CAN_IT_LAST_ERROR_CODE) != 0U) &&
 800330a:	b11a      	cbz	r2, 8003314 <HAL_CAN_IRQHandler+0x204>
 800330c:	e77f      	b.n	800320e <HAL_CAN_IRQHandler+0xfe>
        HAL_CAN_TxMailbox0CompleteCallback(hcan);
 800330e:	f7ff fee5 	bl	80030dc <HAL_CAN_TxMailbox0CompleteCallback>
 8003312:	e712      	b.n	800313a <HAL_CAN_IRQHandler+0x2a>
    __HAL_CAN_CLEAR_FLAG(hcan, CAN_FLAG_ERRI);
 8003314:	2204      	movs	r2, #4
 8003316:	605a      	str	r2, [r3, #4]
  if (errorcode != HAL_CAN_ERROR_NONE)
 8003318:	e791      	b.n	800323e <HAL_CAN_IRQHandler+0x12e>
        switch (esrflags & CAN_ESR_LEC)
 800331a:	f1b9 0f50 	cmp.w	r9, #80	@ 0x50
 800331e:	d027      	beq.n	8003370 <HAL_CAN_IRQHandler+0x260>
 8003320:	f1b9 0f60 	cmp.w	r9, #96	@ 0x60
 8003324:	d12d      	bne.n	8003382 <HAL_CAN_IRQHandler+0x272>
        CLEAR_BIT(hcan->Instance->ESR, CAN_ESR_LEC);
 8003326:	699a      	ldr	r2, [r3, #24]
    __HAL_CAN_CLEAR_FLAG(hcan, CAN_FLAG_ERRI);
 8003328:	2104      	movs	r1, #4
            errorcode |= HAL_CAN_ERROR_CRC;
 800332a:	f446 7680 	orr.w	r6, r6, #256	@ 0x100
        CLEAR_BIT(hcan->Instance->ESR, CAN_ESR_LEC);
 800332e:	f022 0270 	bic.w	r2, r2, #112	@ 0x70
 8003332:	619a      	str	r2, [r3, #24]
    __HAL_CAN_CLEAR_FLAG(hcan, CAN_FLAG_ERRI);
 8003334:	6059      	str	r1, [r3, #4]
  if (errorcode != HAL_CAN_ERROR_NONE)
 8003336:	e782      	b.n	800323e <HAL_CAN_IRQHandler+0x12e>
        switch (esrflags & CAN_ESR_LEC)
 8003338:	f1b9 0f10 	cmp.w	r9, #16
 800333c:	d121      	bne.n	8003382 <HAL_CAN_IRQHandler+0x272>
        CLEAR_BIT(hcan->Instance->ESR, CAN_ESR_LEC);
 800333e:	699a      	ldr	r2, [r3, #24]
    __HAL_CAN_CLEAR_FLAG(hcan, CAN_FLAG_ERRI);
 8003340:	2104      	movs	r1, #4
            errorcode |= HAL_CAN_ERROR_STF;
 8003342:	f046 0608 	orr.w	r6, r6, #8
        CLEAR_BIT(hcan->Instance->ESR, CAN_ESR_LEC);
 8003346:	f022 0270 	bic.w	r2, r2, #112	@ 0x70
 800334a:	619a      	str	r2, [r3, #24]
    __HAL_CAN_CLEAR_FLAG(hcan, CAN_FLAG_ERRI);
 800334c:	6059      	str	r1, [r3, #4]
  if (errorcode != HAL_CAN_ERROR_NONE)
 800334e:	e776      	b.n	800323e <HAL_CAN_IRQHandler+0x12e>
        else if ((tsrflags & CAN_TSR_TERR2) != 0U)
 8003350:	0338      	lsls	r0, r7, #12
 8003352:	d52e      	bpl.n	80033b2 <HAL_CAN_IRQHandler+0x2a2>
          errorcode |= HAL_CAN_ERROR_TX_TERR2;
 8003354:	f446 3680 	orr.w	r6, r6, #65536	@ 0x10000
 8003358:	e712      	b.n	8003180 <HAL_CAN_IRQHandler+0x70>
 800335a:	f44f 5620 	mov.w	r6, #10240	@ 0x2800
 800335e:	f44f 4090 	mov.w	r0, #18432	@ 0x4800
          errorcode |= HAL_CAN_ERROR_TX_ALST0;
 8003362:	f44f 6100 	mov.w	r1, #2048	@ 0x800
 8003366:	e6ed      	b.n	8003144 <HAL_CAN_IRQHandler+0x34>
        HAL_CAN_TxMailbox2CompleteCallback(hcan);
 8003368:	4628      	mov	r0, r5
 800336a:	f7ff febb 	bl	80030e4 <HAL_CAN_TxMailbox2CompleteCallback>
 800336e:	e707      	b.n	8003180 <HAL_CAN_IRQHandler+0x70>
        CLEAR_BIT(hcan->Instance->ESR, CAN_ESR_LEC);
 8003370:	699a      	ldr	r2, [r3, #24]
    __HAL_CAN_CLEAR_FLAG(hcan, CAN_FLAG_ERRI);
 8003372:	2104      	movs	r1, #4
            errorcode |= HAL_CAN_ERROR_BD;
 8003374:	f046 0680 	orr.w	r6, r6, #128	@ 0x80
        CLEAR_BIT(hcan->Instance->ESR, CAN_ESR_LEC);
 8003378:	f022 0270 	bic.w	r2, r2, #112	@ 0x70
 800337c:	619a      	str	r2, [r3, #24]
    __HAL_CAN_CLEAR_FLAG(hcan, CAN_FLAG_ERRI);
 800337e:	6059      	str	r1, [r3, #4]
  if (errorcode != HAL_CAN_ERROR_NONE)
 8003380:	e75d      	b.n	800323e <HAL_CAN_IRQHandler+0x12e>
        CLEAR_BIT(hcan->Instance->ESR, CAN_ESR_LEC);
 8003382:	699a      	ldr	r2, [r3, #24]
 8003384:	f022 0270 	bic.w	r2, r2, #112	@ 0x70
 8003388:	619a      	str	r2, [r3, #24]
 800338a:	e765      	b.n	8003258 <HAL_CAN_IRQHandler+0x148>
 800338c:	699a      	ldr	r2, [r3, #24]
    __HAL_CAN_CLEAR_FLAG(hcan, CAN_FLAG_ERRI);
 800338e:	2104      	movs	r1, #4
            errorcode |= HAL_CAN_ERROR_FOR;
 8003390:	f046 0610 	orr.w	r6, r6, #16
        CLEAR_BIT(hcan->Instance->ESR, CAN_ESR_LEC);
 8003394:	f022 0270 	bic.w	r2, r2, #112	@ 0x70
 8003398:	619a      	str	r2, [r3, #24]
    __HAL_CAN_CLEAR_FLAG(hcan, CAN_FLAG_ERRI);
 800339a:	6059      	str	r1, [r3, #4]
  if (errorcode != HAL_CAN_ERROR_NONE)
 800339c:	e74f      	b.n	800323e <HAL_CAN_IRQHandler+0x12e>
          HAL_CAN_TxMailbox0AbortCallback(hcan);
 800339e:	f7ff fea3 	bl	80030e8 <HAL_CAN_TxMailbox0AbortCallback>
 80033a2:	e6ca      	b.n	800313a <HAL_CAN_IRQHandler+0x2a>
          HAL_CAN_TxMailbox1AbortCallback(hcan);
 80033a4:	4628      	mov	r0, r5
 80033a6:	9101      	str	r1, [sp, #4]
 80033a8:	f7ff fea0 	bl	80030ec <HAL_CAN_TxMailbox1AbortCallback>
 80033ac:	9901      	ldr	r1, [sp, #4]
          errorcode |= HAL_CAN_ERROR_TX_ALST0;
 80033ae:	460e      	mov	r6, r1
 80033b0:	e6d8      	b.n	8003164 <HAL_CAN_IRQHandler+0x54>
          HAL_CAN_TxMailbox2AbortCallback(hcan);
 80033b2:	4628      	mov	r0, r5
 80033b4:	f7ff fe9c 	bl	80030f0 <HAL_CAN_TxMailbox2AbortCallback>
 80033b8:	e6e2      	b.n	8003180 <HAL_CAN_IRQHandler+0x70>
        CLEAR_BIT(hcan->Instance->ESR, CAN_ESR_LEC);
 80033ba:	699a      	ldr	r2, [r3, #24]
    __HAL_CAN_CLEAR_FLAG(hcan, CAN_FLAG_ERRI);
 80033bc:	2104      	movs	r1, #4
            errorcode |= HAL_CAN_ERROR_BR;
 80033be:	f046 0640 	orr.w	r6, r6, #64	@ 0x40
        CLEAR_BIT(hcan->Instance->ESR, CAN_ESR_LEC);
 80033c2:	f022 0270 	bic.w	r2, r2, #112	@ 0x70
 80033c6:	619a      	str	r2, [r3, #24]
    __HAL_CAN_CLEAR_FLAG(hcan, CAN_FLAG_ERRI);
 80033c8:	6059      	str	r1, [r3, #4]
  if (errorcode != HAL_CAN_ERROR_NONE)
 80033ca:	e738      	b.n	800323e <HAL_CAN_IRQHandler+0x12e>

080033cc <HAL_NVIC_SetPriorityGrouping>:
__STATIC_INLINE void __NVIC_SetPriorityGrouping(uint32_t PriorityGroup)
{
  uint32_t reg_value;
  uint32_t PriorityGroupTmp = (PriorityGroup & (uint32_t)0x07UL);             /* only values 0..7 are used          */

  reg_value  =  SCB->AIRCR;                                                   /* read old register configuration    */
 80033cc:	4906      	ldr	r1, [pc, #24]	@ (80033e8 <HAL_NVIC_SetPriorityGrouping+0x1c>)
  reg_value &= ~((uint32_t)(SCB_AIRCR_VECTKEY_Msk | SCB_AIRCR_PRIGROUP_Msk)); /* clear bits to change               */
 80033ce:	f64f 0cff 	movw	ip, #63743	@ 0xf8ff
  reg_value  =  (reg_value                                   |
                ((uint32_t)0x5FAUL << SCB_AIRCR_VECTKEY_Pos) |
                (PriorityGroupTmp << SCB_AIRCR_PRIGROUP_Pos)  );              /* Insert write key and priority group */
 80033d2:	0200      	lsls	r0, r0, #8
  reg_value  =  (reg_value                                   |
 80033d4:	4b05      	ldr	r3, [pc, #20]	@ (80033ec <HAL_NVIC_SetPriorityGrouping+0x20>)
  reg_value  =  SCB->AIRCR;                                                   /* read old register configuration    */
 80033d6:	68ca      	ldr	r2, [r1, #12]
                (PriorityGroupTmp << SCB_AIRCR_PRIGROUP_Pos)  );              /* Insert write key and priority group */
 80033d8:	f400 60e0 	and.w	r0, r0, #1792	@ 0x700
  reg_value &= ~((uint32_t)(SCB_AIRCR_VECTKEY_Msk | SCB_AIRCR_PRIGROUP_Msk)); /* clear bits to change               */
 80033dc:	ea02 020c 	and.w	r2, r2, ip
                ((uint32_t)0x5FAUL << SCB_AIRCR_VECTKEY_Pos) |
 80033e0:	4310      	orrs	r0, r2
  reg_value  =  (reg_value                                   |
 80033e2:	4303      	orrs	r3, r0
  SCB->AIRCR =  reg_value;
 80033e4:	60cb      	str	r3, [r1, #12]
  /* Check the parameters */
  assert_param(IS_NVIC_PRIORITY_GROUP(PriorityGroup));
  
  /* Set the PRIGROUP[10:8] bits according to the PriorityGroup parameter value */
  NVIC_SetPriorityGrouping(PriorityGroup);
}
 80033e6:	4770      	bx	lr
 80033e8:	e000ed00 	.word	0xe000ed00
 80033ec:	05fa0000 	.word	0x05fa0000

080033f0 <HAL_NVIC_SetPriority>:
  \details Reads the priority grouping field from the NVIC Interrupt Controller.
  \return                Priority grouping field (SCB->AIRCR [10:8] PRIGROUP field).
 */
__STATIC_INLINE uint32_t __NVIC_GetPriorityGrouping(void)
{
  return ((uint32_t)((SCB->AIRCR & SCB_AIRCR_PRIGROUP_Msk) >> SCB_AIRCR_PRIGROUP_Pos));
 80033f0:	4b1a      	ldr	r3, [pc, #104]	@ (800345c <HAL_NVIC_SetPriority+0x6c>)
 80033f2:	68db      	ldr	r3, [r3, #12]
 80033f4:	f3c3 2302 	ubfx	r3, r3, #8, #3
  *         This parameter can be a value between 0 and 15
  *         A lower priority value indicates a higher priority.          
  * @retval None
  */
void HAL_NVIC_SetPriority(IRQn_Type IRQn, uint32_t PreemptPriority, uint32_t SubPriority)
{ 
 80033f8:	b500      	push	{lr}
{
  uint32_t PriorityGroupTmp = (PriorityGroup & (uint32_t)0x07UL);   /* only values 0..7 are used          */
  uint32_t PreemptPriorityBits;
  uint32_t SubPriorityBits;

  PreemptPriorityBits = ((7UL - PriorityGroupTmp) > (uint32_t)(__NVIC_PRIO_BITS)) ? (uint32_t)(__NVIC_PRIO_BITS) : (uint32_t)(7UL - PriorityGroupTmp);
 80033fa:	f1c3 0e07 	rsb	lr, r3, #7
  SubPriorityBits     = ((PriorityGroupTmp + (uint32_t)(__NVIC_PRIO_BITS)) < (uint32_t)7UL) ? (uint32_t)0UL : (uint32_t)((PriorityGroupTmp - 7UL) + (uint32_t)(__NVIC_PRIO_BITS));
 80033fe:	f103 0c04 	add.w	ip, r3, #4
  PreemptPriorityBits = ((7UL - PriorityGroupTmp) > (uint32_t)(__NVIC_PRIO_BITS)) ? (uint32_t)(__NVIC_PRIO_BITS) : (uint32_t)(7UL - PriorityGroupTmp);
 8003402:	f1be 0f04 	cmp.w	lr, #4
 8003406:	bf28      	it	cs
 8003408:	f04f 0e04 	movcs.w	lr, #4
  SubPriorityBits     = ((PriorityGroupTmp + (uint32_t)(__NVIC_PRIO_BITS)) < (uint32_t)7UL) ? (uint32_t)0UL : (uint32_t)((PriorityGroupTmp - 7UL) + (uint32_t)(__NVIC_PRIO_BITS));
 800340c:	f1bc 0f06 	cmp.w	ip, #6
 8003410:	d91a      	bls.n	8003448 <HAL_NVIC_SetPriority+0x58>
 8003412:	f1a3 0c03 	sub.w	ip, r3, #3

  return (
           ((PreemptPriority & (uint32_t)((1UL << (PreemptPriorityBits)) - 1UL)) << SubPriorityBits) |
           ((SubPriority     & (uint32_t)((1UL << (SubPriorityBits    )) - 1UL)))
 8003416:	f04f 33ff 	mov.w	r3, #4294967295
 800341a:	fa03 f30c 	lsl.w	r3, r3, ip
 800341e:	ea22 0203 	bic.w	r2, r2, r3
           ((PreemptPriority & (uint32_t)((1UL << (PreemptPriorityBits)) - 1UL)) << SubPriorityBits) |
 8003422:	f04f 33ff 	mov.w	r3, #4294967295
  if ((int32_t)(IRQn) >= 0)
 8003426:	2800      	cmp	r0, #0
           ((PreemptPriority & (uint32_t)((1UL << (PreemptPriorityBits)) - 1UL)) << SubPriorityBits) |
 8003428:	fa03 f30e 	lsl.w	r3, r3, lr
 800342c:	ea21 0303 	bic.w	r3, r1, r3
 8003430:	fa03 f30c 	lsl.w	r3, r3, ip
 8003434:	ea43 0302 	orr.w	r3, r3, r2
    NVIC->IP[((uint32_t)IRQn)]                = (uint8_t)((priority << (8U - __NVIC_PRIO_BITS)) & (uint32_t)0xFFUL);
 8003438:	ea4f 1303 	mov.w	r3, r3, lsl #4
 800343c:	b2db      	uxtb	r3, r3
  if ((int32_t)(IRQn) >= 0)
 800343e:	db06      	blt.n	800344e <HAL_NVIC_SetPriority+0x5e>
    NVIC->IP[((uint32_t)IRQn)]                = (uint8_t)((priority << (8U - __NVIC_PRIO_BITS)) & (uint32_t)0xFFUL);
 8003440:	4a07      	ldr	r2, [pc, #28]	@ (8003460 <HAL_NVIC_SetPriority+0x70>)
 8003442:	5413      	strb	r3, [r2, r0]
  assert_param(IS_NVIC_PREEMPTION_PRIORITY(PreemptPriority));
  
  prioritygroup = NVIC_GetPriorityGrouping();
  
  NVIC_SetPriority(IRQn, NVIC_EncodePriority(prioritygroup, PreemptPriority, SubPriority));
}
 8003444:	f85d fb04 	ldr.w	pc, [sp], #4
 8003448:	2200      	movs	r2, #0
  SubPriorityBits     = ((PriorityGroupTmp + (uint32_t)(__NVIC_PRIO_BITS)) < (uint32_t)7UL) ? (uint32_t)0UL : (uint32_t)((PriorityGroupTmp - 7UL) + (uint32_t)(__NVIC_PRIO_BITS));
 800344a:	4694      	mov	ip, r2
 800344c:	e7e9      	b.n	8003422 <HAL_NVIC_SetPriority+0x32>
    SCB->SHPR[(((uint32_t)IRQn) & 0xFUL)-4UL] = (uint8_t)((priority << (8U - __NVIC_PRIO_BITS)) & (uint32_t)0xFFUL);
 800344e:	f000 000f 	and.w	r0, r0, #15
 8003452:	4a04      	ldr	r2, [pc, #16]	@ (8003464 <HAL_NVIC_SetPriority+0x74>)
 8003454:	5413      	strb	r3, [r2, r0]
 8003456:	f85d fb04 	ldr.w	pc, [sp], #4
 800345a:	bf00      	nop
 800345c:	e000ed00 	.word	0xe000ed00
 8003460:	e000e400 	.word	0xe000e400
 8003464:	e000ed14 	.word	0xe000ed14

08003468 <HAL_NVIC_EnableIRQ>:
  if ((int32_t)(IRQn) >= 0)
 8003468:	2800      	cmp	r0, #0
 800346a:	db07      	blt.n	800347c <HAL_NVIC_EnableIRQ+0x14>
    NVIC->ISER[(((uint32_t)IRQn) >> 5UL)] = (uint32_t)(1UL << (((uint32_t)IRQn) & 0x1FUL));
 800346c:	f000 011f 	and.w	r1, r0, #31
 8003470:	2301      	movs	r3, #1
 8003472:	0940      	lsrs	r0, r0, #5
 8003474:	4a02      	ldr	r2, [pc, #8]	@ (8003480 <HAL_NVIC_EnableIRQ+0x18>)
 8003476:	408b      	lsls	r3, r1
 8003478:	f842 3020 	str.w	r3, [r2, r0, lsl #2]
  /* Check the parameters */
  assert_param(IS_NVIC_DEVICE_IRQ(IRQn));
  
  /* Enable interrupt */
  NVIC_EnableIRQ(IRQn);
}
 800347c:	4770      	bx	lr
 800347e:	bf00      	nop
 8003480:	e000e100 	.word	0xe000e100

08003484 <HAL_SYSTICK_Config>:
           function <b>SysTick_Config</b> is not included. In this case, the file <b><i>device</i>.h</b>
           must contain a vendor-specific implementation of this function.
 */
__STATIC_INLINE uint32_t SysTick_Config(uint32_t ticks)
{
  if ((ticks - 1UL) > SysTick_LOAD_RELOAD_Msk)
 8003484:	1e43      	subs	r3, r0, #1
 8003486:	f1b3 7f80 	cmp.w	r3, #16777216	@ 0x1000000
 800348a:	d301      	bcc.n	8003490 <HAL_SYSTICK_Config+0xc>
  {
    return (1UL);                                                   /* Reload value impossible */
 800348c:	2001      	movs	r0, #1
  *                  - 1  Function failed.
  */
uint32_t HAL_SYSTICK_Config(uint32_t TicksNumb)
{
   return SysTick_Config(TicksNumb);
}
 800348e:	4770      	bx	lr
  }

  SysTick->LOAD  = (uint32_t)(ticks - 1UL);                         /* set reload register */
 8003490:	f04f 22e0 	mov.w	r2, #3758153728	@ 0xe000e000
  NVIC_SetPriority (SysTick_IRQn, (1UL << __NVIC_PRIO_BITS) - 1UL); /* set Priority for Systick Interrupt */
  SysTick->VAL   = 0UL;                                             /* Load the SysTick Counter Value */
 8003494:	2000      	movs	r0, #0
    SCB->SHPR[(((uint32_t)IRQn) & 0xFUL)-4UL] = (uint8_t)((priority << (8U - __NVIC_PRIO_BITS)) & (uint32_t)0xFFUL);
 8003496:	4905      	ldr	r1, [pc, #20]	@ (80034ac <HAL_SYSTICK_Config+0x28>)
 8003498:	f04f 0cf0 	mov.w	ip, #240	@ 0xf0
  SysTick->LOAD  = (uint32_t)(ticks - 1UL);                         /* set reload register */
 800349c:	6153      	str	r3, [r2, #20]
  SysTick->CTRL  = SysTick_CTRL_CLKSOURCE_Msk |
 800349e:	2307      	movs	r3, #7
    SCB->SHPR[(((uint32_t)IRQn) & 0xFUL)-4UL] = (uint8_t)((priority << (8U - __NVIC_PRIO_BITS)) & (uint32_t)0xFFUL);
 80034a0:	f881 c023 	strb.w	ip, [r1, #35]	@ 0x23
  SysTick->VAL   = 0UL;                                             /* Load the SysTick Counter Value */
 80034a4:	6190      	str	r0, [r2, #24]
  SysTick->CTRL  = SysTick_CTRL_CLKSOURCE_Msk |
 80034a6:	6113      	str	r3, [r2, #16]
                   SysTick_CTRL_TICKINT_Msk   |
                   SysTick_CTRL_ENABLE_Msk;                         /* Enable SysTick IRQ and SysTick Timer */
  return (0UL);                                                     /* Function successful */
 80034a8:	4770      	bx	lr
 80034aa:	bf00      	nop
 80034ac:	e000ed00 	.word	0xe000ed00

080034b0 <HAL_DAC_Init>:
  * @retval HAL status
  */
HAL_StatusTypeDef HAL_DAC_Init(DAC_HandleTypeDef *hdac)
{
  /* Check DAC handle */
  if (hdac == NULL)
 80034b0:	b188      	cbz	r0, 80034d6 <HAL_DAC_Init+0x26>
{
 80034b2:	b510      	push	{r4, lr}
    return HAL_ERROR;
  }
  /* Check the parameters */
  assert_param(IS_DAC_ALL_INSTANCE(hdac->Instance));

  if (hdac->State == HAL_DAC_STATE_RESET)
 80034b4:	7903      	ldrb	r3, [r0, #4]
 80034b6:	4604      	mov	r4, r0
 80034b8:	f003 02ff 	and.w	r2, r3, #255	@ 0xff
 80034bc:	b13b      	cbz	r3, 80034ce <HAL_DAC_Init+0x1e>

  /* Initialize the DAC state*/
  hdac->State = HAL_DAC_STATE_BUSY;

  /* Set DAC error code to none */
  hdac->ErrorCode = HAL_DAC_ERROR_NONE;
 80034be:	2300      	movs	r3, #0
  hdac->State = HAL_DAC_STATE_BUSY;
 80034c0:	2102      	movs	r1, #2

  /* Initialize the DAC state*/
  hdac->State = HAL_DAC_STATE_READY;
 80034c2:	2201      	movs	r2, #1
  hdac->State = HAL_DAC_STATE_BUSY;
 80034c4:	7121      	strb	r1, [r4, #4]

  /* Return function status */
  return HAL_OK;
 80034c6:	4618      	mov	r0, r3
  hdac->ErrorCode = HAL_DAC_ERROR_NONE;
 80034c8:	6123      	str	r3, [r4, #16]
  hdac->State = HAL_DAC_STATE_READY;
 80034ca:	7122      	strb	r2, [r4, #4]
}
 80034cc:	bd10      	pop	{r4, pc}
    hdac->Lock = HAL_UNLOCKED;
 80034ce:	7142      	strb	r2, [r0, #5]
    HAL_DAC_MspInit(hdac);
 80034d0:	f7fe fb42 	bl	8001b58 <HAL_DAC_MspInit>
 80034d4:	e7f3      	b.n	80034be <HAL_DAC_Init+0xe>
    return HAL_ERROR;
 80034d6:	2001      	movs	r0, #1
}
 80034d8:	4770      	bx	lr
 80034da:	bf00      	nop

080034dc <HAL_DAC_DMAUnderrunCallbackCh1>:
  * @brief  DMA underrun DAC callback for channel1.
  * @param  hdac pointer to a DAC_HandleTypeDef structure that contains
  *         the configuration information for the specified DAC.
  * @retval None
  */
__weak void HAL_DAC_DMAUnderrunCallbackCh1(DAC_HandleTypeDef *hdac)
 80034dc:	4770      	bx	lr
 80034de:	bf00      	nop

080034e0 <HAL_DAC_IRQHandler>:
  if (__HAL_DAC_GET_IT_SOURCE(hdac, DAC_IT_DMAUDR1))
 80034e0:	6803      	ldr	r3, [r0, #0]
 80034e2:	681a      	ldr	r2, [r3, #0]
 80034e4:	0491      	lsls	r1, r2, #18
{
 80034e6:	b510      	push	{r4, lr}
 80034e8:	4604      	mov	r4, r0
  if (__HAL_DAC_GET_IT_SOURCE(hdac, DAC_IT_DMAUDR1))
 80034ea:	d502      	bpl.n	80034f2 <HAL_DAC_IRQHandler+0x12>
    if (__HAL_DAC_GET_FLAG(hdac, DAC_FLAG_DMAUDR1))
 80034ec:	6b5a      	ldr	r2, [r3, #52]	@ 0x34
 80034ee:	0492      	lsls	r2, r2, #18
 80034f0:	d418      	bmi.n	8003524 <HAL_DAC_IRQHandler+0x44>
  if (__HAL_DAC_GET_IT_SOURCE(hdac, DAC_IT_DMAUDR2))
 80034f2:	681a      	ldr	r2, [r3, #0]
 80034f4:	0091      	lsls	r1, r2, #2
 80034f6:	d502      	bpl.n	80034fe <HAL_DAC_IRQHandler+0x1e>
    if (__HAL_DAC_GET_FLAG(hdac, DAC_FLAG_DMAUDR2))
 80034f8:	6b5a      	ldr	r2, [r3, #52]	@ 0x34
 80034fa:	0092      	lsls	r2, r2, #2
 80034fc:	d400      	bmi.n	8003500 <HAL_DAC_IRQHandler+0x20>
}
 80034fe:	bd10      	pop	{r4, pc}
      hdac->State = HAL_DAC_STATE_ERROR;
 8003500:	2204      	movs	r2, #4
      __HAL_DAC_CLEAR_FLAG(hdac, DAC_FLAG_DMAUDR2);
 8003502:	f04f 5100 	mov.w	r1, #536870912	@ 0x20000000
      HAL_DACEx_DMAUnderrunCallbackCh2(hdac);
 8003506:	4620      	mov	r0, r4
      hdac->State = HAL_DAC_STATE_ERROR;
 8003508:	7122      	strb	r2, [r4, #4]
      SET_BIT(hdac->ErrorCode, HAL_DAC_ERROR_DMAUNDERRUNCH2);
 800350a:	6922      	ldr	r2, [r4, #16]
 800350c:	f042 0202 	orr.w	r2, r2, #2
 8003510:	6122      	str	r2, [r4, #16]
      __HAL_DAC_CLEAR_FLAG(hdac, DAC_FLAG_DMAUDR2);
 8003512:	6359      	str	r1, [r3, #52]	@ 0x34
      CLEAR_BIT(hdac->Instance->CR, DAC_CR_DMAEN2);
 8003514:	681a      	ldr	r2, [r3, #0]
 8003516:	f022 5280 	bic.w	r2, r2, #268435456	@ 0x10000000
}
 800351a:	e8bd 4010 	ldmia.w	sp!, {r4, lr}
      CLEAR_BIT(hdac->Instance->CR, DAC_CR_DMAEN2);
 800351e:	601a      	str	r2, [r3, #0]
      HAL_DACEx_DMAUnderrunCallbackCh2(hdac);
 8003520:	f000 b83c 	b.w	800359c <HAL_DACEx_DMAUnderrunCallbackCh2>
      hdac->State = HAL_DAC_STATE_ERROR;
 8003524:	2204      	movs	r2, #4
      __HAL_DAC_CLEAR_FLAG(hdac, DAC_FLAG_DMAUDR1);
 8003526:	f44f 5100 	mov.w	r1, #8192	@ 0x2000
      hdac->State = HAL_DAC_STATE_ERROR;
 800352a:	7102      	strb	r2, [r0, #4]
      SET_BIT(hdac->ErrorCode, HAL_DAC_ERROR_DMAUNDERRUNCH1);
 800352c:	6902      	ldr	r2, [r0, #16]
 800352e:	f042 0201 	orr.w	r2, r2, #1
 8003532:	6102      	str	r2, [r0, #16]
      __HAL_DAC_CLEAR_FLAG(hdac, DAC_FLAG_DMAUDR1);
 8003534:	6359      	str	r1, [r3, #52]	@ 0x34
      CLEAR_BIT(hdac->Instance->CR, DAC_CR_DMAEN1);
 8003536:	681a      	ldr	r2, [r3, #0]
 8003538:	f422 5280 	bic.w	r2, r2, #4096	@ 0x1000
 800353c:	601a      	str	r2, [r3, #0]
      HAL_DAC_DMAUnderrunCallbackCh1(hdac);
 800353e:	f7ff ffcd 	bl	80034dc <HAL_DAC_DMAUnderrunCallbackCh1>
  if (__HAL_DAC_GET_IT_SOURCE(hdac, DAC_IT_DMAUDR2))
 8003542:	6823      	ldr	r3, [r4, #0]
 8003544:	e7d5      	b.n	80034f2 <HAL_DAC_IRQHandler+0x12>
 8003546:	bf00      	nop

08003548 <HAL_DAC_ConfigChannel>:
  *            @arg DAC_CHANNEL_1: DAC Channel1 selected
  *            @arg DAC_CHANNEL_2: DAC Channel2 selected
  * @retval HAL status
  */
HAL_StatusTypeDef HAL_DAC_ConfigChannel(DAC_HandleTypeDef *hdac, DAC_ChannelConfTypeDef *sConfig, uint32_t Channel)
{
 8003548:	4603      	mov	r3, r0
  assert_param(IS_DAC_TRIGGER(sConfig->DAC_Trigger));
  assert_param(IS_DAC_OUTPUT_BUFFER_STATE(sConfig->DAC_OutputBuffer));
  assert_param(IS_DAC_CHANNEL(Channel));

  /* Process locked */
  __HAL_LOCK(hdac);
 800354a:	7940      	ldrb	r0, [r0, #5]
 800354c:	2801      	cmp	r0, #1
 800354e:	d023      	beq.n	8003598 <HAL_DAC_ConfigChannel+0x50>

  /* Change DAC state */
  hdac->State = HAL_DAC_STATE_BUSY;
 8003550:	2002      	movs	r0, #2

  /* Get the DAC CR value */
  tmpreg1 = hdac->Instance->CR;
  /* Clear BOFFx, TENx, TSELx, WAVEx and MAMPx bits */
  tmpreg1 &= ~(((uint32_t)(DAC_CR_MAMP1 | DAC_CR_WAVE1 | DAC_CR_TSEL1 | DAC_CR_TEN1 | DAC_CR_BOFF1)) << (Channel & 0x10UL));
 8003552:	f002 0210 	and.w	r2, r2, #16
 8003556:	f640 7cfe 	movw	ip, #4094	@ 0xffe
{
 800355a:	b510      	push	{r4, lr}
  hdac->State = HAL_DAC_STATE_BUSY;
 800355c:	7118      	strb	r0, [r3, #4]
  tmpreg1 &= ~(((uint32_t)(DAC_CR_MAMP1 | DAC_CR_WAVE1 | DAC_CR_TSEL1 | DAC_CR_TEN1 | DAC_CR_BOFF1)) << (Channel & 0x10UL));
 800355e:	fa0c fc02 	lsl.w	ip, ip, r2
  tmpreg1 = hdac->Instance->CR;
 8003562:	681c      	ldr	r4, [r3, #0]
  hdac->Instance->CR = tmpreg1;
  /* Disable wave generation */
  CLEAR_BIT(hdac->Instance->CR, (DAC_CR_WAVE1 << (Channel & 0x10UL)));

  /* Change DAC state */
  hdac->State = HAL_DAC_STATE_READY;
 8003564:	f04f 0e01 	mov.w	lr, #1
  tmpreg2 = (sConfig->DAC_Trigger | sConfig->DAC_OutputBuffer);
 8003568:	e9d1 0100 	ldrd	r0, r1, [r1]
 800356c:	4301      	orrs	r1, r0
  tmpreg1 = hdac->Instance->CR;
 800356e:	6820      	ldr	r0, [r4, #0]
  tmpreg1 |= tmpreg2 << (Channel & 0x10UL);
 8003570:	4091      	lsls	r1, r2
  tmpreg1 &= ~(((uint32_t)(DAC_CR_MAMP1 | DAC_CR_WAVE1 | DAC_CR_TSEL1 | DAC_CR_TEN1 | DAC_CR_BOFF1)) << (Channel & 0x10UL));
 8003572:	ea20 000c 	bic.w	r0, r0, ip

  /* Process unlocked */
  __HAL_UNLOCK(hdac);
 8003576:	f04f 0c00 	mov.w	ip, #0
  tmpreg1 |= tmpreg2 << (Channel & 0x10UL);
 800357a:	4301      	orrs	r1, r0
  CLEAR_BIT(hdac->Instance->CR, (DAC_CR_WAVE1 << (Channel & 0x10UL)));
 800357c:	20c0      	movs	r0, #192	@ 0xc0
  hdac->Instance->CR = tmpreg1;
 800357e:	6021      	str	r1, [r4, #0]
  CLEAR_BIT(hdac->Instance->CR, (DAC_CR_WAVE1 << (Channel & 0x10UL)));
 8003580:	fa00 f102 	lsl.w	r1, r0, r2
 8003584:	6822      	ldr	r2, [r4, #0]

  /* Return function status */
  return HAL_OK;
 8003586:	4660      	mov	r0, ip
  CLEAR_BIT(hdac->Instance->CR, (DAC_CR_WAVE1 << (Channel & 0x10UL)));
 8003588:	ea22 0201 	bic.w	r2, r2, r1
 800358c:	6022      	str	r2, [r4, #0]
  hdac->State = HAL_DAC_STATE_READY;
 800358e:	f883 e004 	strb.w	lr, [r3, #4]
  __HAL_UNLOCK(hdac);
 8003592:	f883 c005 	strb.w	ip, [r3, #5]
}
 8003596:	bd10      	pop	{r4, pc}
  __HAL_LOCK(hdac);
 8003598:	2002      	movs	r0, #2
}
 800359a:	4770      	bx	lr

0800359c <HAL_DACEx_DMAUnderrunCallbackCh2>:
  * @brief  DMA underrun DAC callback for Channel2.
  * @param  hdac pointer to a DAC_HandleTypeDef structure that contains
  *         the configuration information for the specified DAC.
  * @retval None
  */
__weak void HAL_DACEx_DMAUnderrunCallbackCh2(DAC_HandleTypeDef *hdac)
 800359c:	4770      	bx	lr
 800359e:	bf00      	nop

080035a0 <HAL_DMA_Init>:
  * @param  hdma Pointer to a DMA_HandleTypeDef structure that contains
  *               the configuration information for the specified DMA Stream.  
  * @retval HAL status
  */
HAL_StatusTypeDef HAL_DMA_Init(DMA_HandleTypeDef *hdma)
{
 80035a0:	b538      	push	{r3, r4, r5, lr}
 80035a2:	4604      	mov	r4, r0
  uint32_t tmp = 0U;
  uint32_t tickstart = HAL_GetTick();
 80035a4:	f7ff f994 	bl	80028d0 <HAL_GetTick>
  DMA_Base_Registers *regs;

  /* Check the DMA peripheral state */
  if(hdma == NULL)
 80035a8:	2c00      	cmp	r4, #0
 80035aa:	d074      	beq.n	8003696 <HAL_DMA_Init+0xf6>
  /* Allocate lock resource */
  __HAL_UNLOCK(hdma);

  
  /* Disable the peripheral */
  __HAL_DMA_DISABLE(hdma);
 80035ac:	6823      	ldr	r3, [r4, #0]
  __HAL_UNLOCK(hdma);
 80035ae:	2200      	movs	r2, #0
  hdma->State = HAL_DMA_STATE_BUSY;
 80035b0:	2102      	movs	r1, #2
 80035b2:	4605      	mov	r5, r0
  __HAL_UNLOCK(hdma);
 80035b4:	f884 2034 	strb.w	r2, [r4, #52]	@ 0x34
  hdma->State = HAL_DMA_STATE_BUSY;
 80035b8:	f884 1035 	strb.w	r1, [r4, #53]	@ 0x35
  __HAL_DMA_DISABLE(hdma);
 80035bc:	681a      	ldr	r2, [r3, #0]
 80035be:	f022 0201 	bic.w	r2, r2, #1
 80035c2:	601a      	str	r2, [r3, #0]
  
  /* Check if the DMA Stream is effectively disabled */
  while((hdma->Instance->CR & DMA_SxCR_EN) != RESET)
 80035c4:	e005      	b.n	80035d2 <HAL_DMA_Init+0x32>
  {
    /* Check for the Timeout */
    if((HAL_GetTick() - tickstart ) > HAL_TIMEOUT_DMA_ABORT)
 80035c6:	f7ff f983 	bl	80028d0 <HAL_GetTick>
 80035ca:	1b43      	subs	r3, r0, r5
 80035cc:	2b05      	cmp	r3, #5
 80035ce:	d83e      	bhi.n	800364e <HAL_DMA_Init+0xae>
  while((hdma->Instance->CR & DMA_SxCR_EN) != RESET)
 80035d0:	6823      	ldr	r3, [r4, #0]
 80035d2:	681a      	ldr	r2, [r3, #0]
 80035d4:	07d1      	lsls	r1, r2, #31
 80035d6:	d4f6      	bmi.n	80035c6 <HAL_DMA_Init+0x26>
                      DMA_SxCR_PL    | DMA_SxCR_MSIZE  | DMA_SxCR_PSIZE  | \
                      DMA_SxCR_MINC  | DMA_SxCR_PINC   | DMA_SxCR_CIRC   | \
                      DMA_SxCR_DIR   | DMA_SxCR_CT     | DMA_SxCR_DBM));

  /* Prepare the DMA Stream configuration */
  tmp |=  hdma->Init.Channel             | hdma->Init.Direction        |
 80035d8:	e9d4 2501 	ldrd	r2, r5, [r4, #4]
 80035dc:	68e1      	ldr	r1, [r4, #12]
 80035de:	432a      	orrs	r2, r5
          hdma->Init.PeriphInc           | hdma->Init.MemInc           |
          hdma->Init.PeriphDataAlignment | hdma->Init.MemDataAlignment |
 80035e0:	69a0      	ldr	r0, [r4, #24]
  tmp = hdma->Instance->CR;
 80035e2:	681d      	ldr	r5, [r3, #0]
  tmp |=  hdma->Init.Channel             | hdma->Init.Direction        |
 80035e4:	430a      	orrs	r2, r1
          hdma->Init.PeriphInc           | hdma->Init.MemInc           |
 80035e6:	6921      	ldr	r1, [r4, #16]
 80035e8:	430a      	orrs	r2, r1
 80035ea:	6961      	ldr	r1, [r4, #20]
 80035ec:	430a      	orrs	r2, r1
          hdma->Init.PeriphDataAlignment | hdma->Init.MemDataAlignment |
 80035ee:	69e1      	ldr	r1, [r4, #28]
 80035f0:	4302      	orrs	r2, r0
 80035f2:	430a      	orrs	r2, r1
  tmp &= ((uint32_t)~(DMA_SxCR_CHSEL | DMA_SxCR_MBURST | DMA_SxCR_PBURST | \
 80035f4:	4934      	ldr	r1, [pc, #208]	@ (80036c8 <HAL_DMA_Init+0x128>)
 80035f6:	4029      	ands	r1, r5
          hdma->Init.Mode                | hdma->Init.Priority;
 80035f8:	6a25      	ldr	r5, [r4, #32]
 80035fa:	432a      	orrs	r2, r5
  tmp |=  hdma->Init.Channel             | hdma->Init.Direction        |
 80035fc:	430a      	orrs	r2, r1

  /* the Memory burst and peripheral burst are not used when the FIFO is disabled */
  if(hdma->Init.FIFOMode == DMA_FIFOMODE_ENABLE)
 80035fe:	6a61      	ldr	r1, [r4, #36]	@ 0x24
 8003600:	2904      	cmp	r1, #4
 8003602:	d02b      	beq.n	800365c <HAL_DMA_Init+0xbc>
    /* Get memory burst and peripheral burst */
    tmp |=  hdma->Init.MemBurst | hdma->Init.PeriphBurst;
  }
  
  /* Write to DMA Stream CR register */
  hdma->Instance->CR = tmp;  
 8003604:	601a      	str	r2, [r3, #0]

  /* Get the FCR register value */
  tmp = hdma->Instance->FCR;
 8003606:	695a      	ldr	r2, [r3, #20]

  /* Clear Direct mode and FIFO threshold bits */
  tmp &= (uint32_t)~(DMA_SxFCR_DMDIS | DMA_SxFCR_FTH);
 8003608:	f022 0207 	bic.w	r2, r2, #7

  /* Prepare the DMA Stream FIFO configuration */
  tmp |= hdma->Init.FIFOMode;
 800360c:	4311      	orrs	r1, r2
  *                     the configuration information for the specified DMA Stream. 
  * @retval Stream base address
  */
static uint32_t DMA_CalcBaseAndBitshift(DMA_HandleTypeDef *hdma)
{
  uint32_t stream_number = (((uint32_t)hdma->Instance & 0xFFU) - 16U) / 24U;
 800360e:	b2da      	uxtb	r2, r3
  hdma->Instance->FCR = tmp;
 8003610:	6159      	str	r1, [r3, #20]
  
  /* lookup table for necessary bitshift of flags within status registers */
  static const uint8_t flagBitshiftOffset[8U] = {0U, 6U, 16U, 22U, 0U, 6U, 16U, 22U};
  hdma->StreamIndex = flagBitshiftOffset[stream_number];
 8003612:	482e      	ldr	r0, [pc, #184]	@ (80036cc <HAL_DMA_Init+0x12c>)
  uint32_t stream_number = (((uint32_t)hdma->Instance & 0xFFU) - 16U) / 24U;
 8003614:	f1a2 0110 	sub.w	r1, r2, #16
 8003618:	4a2d      	ldr	r2, [pc, #180]	@ (80036d0 <HAL_DMA_Init+0x130>)
 800361a:	fba2 5201 	umull	r5, r2, r2, r1
  
  if (stream_number > 3U)
 800361e:	295f      	cmp	r1, #95	@ 0x5f
  hdma->State = HAL_DMA_STATE_READY;
 8003620:	f04f 0501 	mov.w	r5, #1
  hdma->ErrorCode = HAL_DMA_ERROR_NONE;
 8003624:	f04f 0100 	mov.w	r1, #0
  uint32_t stream_number = (((uint32_t)hdma->Instance & 0xFFU) - 16U) / 24U;
 8003628:	ea4f 1212 	mov.w	r2, r2, lsr #4
  hdma->StreamIndex = flagBitshiftOffset[stream_number];
 800362c:	5c80      	ldrb	r0, [r0, r2]
  {
    /* return pointer to HISR and HIFCR */
    hdma->StreamBaseAddress = (((uint32_t)hdma->Instance & (uint32_t)(~0x3FFU)) + 4U);
 800362e:	4a29      	ldr	r2, [pc, #164]	@ (80036d4 <HAL_DMA_Init+0x134>)
  hdma->StreamIndex = flagBitshiftOffset[stream_number];
 8003630:	65e0      	str	r0, [r4, #92]	@ 0x5c
    hdma->StreamBaseAddress = (((uint32_t)hdma->Instance & (uint32_t)(~0x3FFU)) + 4U);
 8003632:	ea02 0203 	and.w	r2, r2, r3
  regs->IFCR = 0x3FU << hdma->StreamIndex;
 8003636:	f04f 033f 	mov.w	r3, #63	@ 0x3f
    hdma->StreamBaseAddress = (((uint32_t)hdma->Instance & (uint32_t)(~0x3FFU)) + 4U);
 800363a:	bf88      	it	hi
 800363c:	3204      	addhi	r2, #4
  regs->IFCR = 0x3FU << hdma->StreamIndex;
 800363e:	4083      	lsls	r3, r0
  return HAL_OK;
 8003640:	4608      	mov	r0, r1
 8003642:	65a2      	str	r2, [r4, #88]	@ 0x58
  regs->IFCR = 0x3FU << hdma->StreamIndex;
 8003644:	6093      	str	r3, [r2, #8]
  hdma->ErrorCode = HAL_DMA_ERROR_NONE;
 8003646:	6561      	str	r1, [r4, #84]	@ 0x54
  hdma->State = HAL_DMA_STATE_READY;
 8003648:	f884 5035 	strb.w	r5, [r4, #53]	@ 0x35
}
 800364c:	bd38      	pop	{r3, r4, r5, pc}
      hdma->State = HAL_DMA_STATE_TIMEOUT;
 800364e:	2303      	movs	r3, #3
      hdma->ErrorCode = HAL_DMA_ERROR_TIMEOUT;
 8003650:	2220      	movs	r2, #32
      return HAL_TIMEOUT;
 8003652:	4618      	mov	r0, r3
      hdma->ErrorCode = HAL_DMA_ERROR_TIMEOUT;
 8003654:	6562      	str	r2, [r4, #84]	@ 0x54
      hdma->State = HAL_DMA_STATE_TIMEOUT;
 8003656:	f884 3035 	strb.w	r3, [r4, #53]	@ 0x35
}
 800365a:	bd38      	pop	{r3, r4, r5, pc}
    tmp |=  hdma->Init.MemBurst | hdma->Init.PeriphBurst;
 800365c:	e9d4 510b 	ldrd	r5, r1, [r4, #44]	@ 0x2c
 8003660:	4329      	orrs	r1, r5
 8003662:	4311      	orrs	r1, r2
    tmp |= hdma->Init.FIFOThreshold;
 8003664:	6aa2      	ldr	r2, [r4, #40]	@ 0x28
  hdma->Instance->CR = tmp;  
 8003666:	6019      	str	r1, [r3, #0]
  tmp = hdma->Instance->FCR;
 8003668:	6959      	ldr	r1, [r3, #20]
  tmp &= (uint32_t)~(DMA_SxFCR_DMDIS | DMA_SxFCR_FTH);
 800366a:	f021 0107 	bic.w	r1, r1, #7
 800366e:	4311      	orrs	r1, r2
    tmp |= hdma->Init.FIFOThreshold;
 8003670:	f041 0104 	orr.w	r1, r1, #4
    if (hdma->Init.MemBurst != DMA_MBURST_SINGLE)
 8003674:	2d00      	cmp	r5, #0
 8003676:	d0ca      	beq.n	800360e <HAL_DMA_Init+0x6e>
{
  HAL_StatusTypeDef status = HAL_OK;
  uint32_t tmp = hdma->Init.FIFOThreshold;
  
  /* Memory Data size equal to Byte */
  if(hdma->Init.MemDataAlignment == DMA_MDATAALIGN_BYTE)
 8003678:	b178      	cbz	r0, 800369a <HAL_DMA_Init+0xfa>
      break;
    }
  }
  
  /* Memory Data size equal to Half-Word */
  else if (hdma->Init.MemDataAlignment == DMA_MDATAALIGN_HALFWORD)
 800367a:	f5b0 5f00 	cmp.w	r0, #8192	@ 0x2000
 800367e:	d016      	beq.n	80036ae <HAL_DMA_Init+0x10e>
  }
  
  /* Memory Data size equal to Word */
  else
  {
    switch (tmp)
 8003680:	2a02      	cmp	r2, #2
 8003682:	d903      	bls.n	800368c <HAL_DMA_Init+0xec>
 8003684:	2a03      	cmp	r2, #3
 8003686:	d1c2      	bne.n	800360e <HAL_DMA_Init+0x6e>
    case DMA_FIFO_THRESHOLD_HALFFULL:
    case DMA_FIFO_THRESHOLD_3QUARTERSFULL:
      status = HAL_ERROR;
      break;
    case DMA_FIFO_THRESHOLD_FULL:
      if ((hdma->Init.MemBurst & DMA_SxCR_MBURST_1) == DMA_SxCR_MBURST_1)
 8003688:	01ea      	lsls	r2, r5, #7
 800368a:	d5c0      	bpl.n	800360e <HAL_DMA_Init+0x6e>
        hdma->ErrorCode = HAL_DMA_ERROR_PARAM;
 800368c:	2240      	movs	r2, #64	@ 0x40
        hdma->State = HAL_DMA_STATE_READY;
 800368e:	2301      	movs	r3, #1
        hdma->ErrorCode = HAL_DMA_ERROR_PARAM;
 8003690:	6562      	str	r2, [r4, #84]	@ 0x54
        hdma->State = HAL_DMA_STATE_READY;
 8003692:	f884 3035 	strb.w	r3, [r4, #53]	@ 0x35
    return HAL_ERROR;
 8003696:	2001      	movs	r0, #1
}
 8003698:	bd38      	pop	{r3, r4, r5, pc}
    switch (tmp)
 800369a:	2a01      	cmp	r2, #1
 800369c:	d003      	beq.n	80036a6 <HAL_DMA_Init+0x106>
 800369e:	f032 0202 	bics.w	r2, r2, #2
 80036a2:	d1b4      	bne.n	800360e <HAL_DMA_Init+0x6e>
 80036a4:	e7f0      	b.n	8003688 <HAL_DMA_Init+0xe8>
      if (hdma->Init.MemBurst == DMA_MBURST_INC16)
 80036a6:	f1b5 7fc0 	cmp.w	r5, #25165824	@ 0x1800000
 80036aa:	d1b0      	bne.n	800360e <HAL_DMA_Init+0x6e>
 80036ac:	e7ee      	b.n	800368c <HAL_DMA_Init+0xec>
    switch (tmp)
 80036ae:	2a03      	cmp	r2, #3
 80036b0:	d8ad      	bhi.n	800360e <HAL_DMA_Init+0x6e>
 80036b2:	a001      	add	r0, pc, #4	@ (adr r0, 80036b8 <HAL_DMA_Init+0x118>)
 80036b4:	f850 f022 	ldr.w	pc, [r0, r2, lsl #2]
 80036b8:	0800368d 	.word	0x0800368d
 80036bc:	08003689 	.word	0x08003689
 80036c0:	0800368d 	.word	0x0800368d
 80036c4:	080036a7 	.word	0x080036a7
 80036c8:	e010803f 	.word	0xe010803f
 80036cc:	0800e48c 	.word	0x0800e48c
 80036d0:	aaaaaaab 	.word	0xaaaaaaab
 80036d4:	fffffc00 	.word	0xfffffc00

080036d8 <HAL_DMA_Start_IT>:
{
 80036d8:	b470      	push	{r4, r5, r6}
  __HAL_LOCK(hdma);
 80036da:	f890 c034 	ldrb.w	ip, [r0, #52]	@ 0x34
  DMA_Base_Registers *regs = (DMA_Base_Registers *)hdma->StreamBaseAddress;
 80036de:	6d86      	ldr	r6, [r0, #88]	@ 0x58
  __HAL_LOCK(hdma);
 80036e0:	f1bc 0f01 	cmp.w	ip, #1
 80036e4:	d009      	beq.n	80036fa <HAL_DMA_Start_IT+0x22>
 80036e6:	2401      	movs	r4, #1
 80036e8:	f880 4034 	strb.w	r4, [r0, #52]	@ 0x34
  if(HAL_DMA_STATE_READY == hdma->State)
 80036ec:	f890 4035 	ldrb.w	r4, [r0, #53]	@ 0x35
 80036f0:	2c01      	cmp	r4, #1
 80036f2:	d005      	beq.n	8003700 <HAL_DMA_Start_IT+0x28>
    __HAL_UNLOCK(hdma);	  
 80036f4:	2300      	movs	r3, #0
 80036f6:	f880 3034 	strb.w	r3, [r0, #52]	@ 0x34
  __HAL_LOCK(hdma);
 80036fa:	2002      	movs	r0, #2
}
 80036fc:	bc70      	pop	{r4, r5, r6}
 80036fe:	4770      	bx	lr
    hdma->State = HAL_DMA_STATE_BUSY;
 8003700:	2502      	movs	r5, #2
  hdma->Instance->CR &= (uint32_t)(~DMA_SxCR_DBM);
 8003702:	6804      	ldr	r4, [r0, #0]
    hdma->State = HAL_DMA_STATE_BUSY;
 8003704:	f880 5035 	strb.w	r5, [r0, #53]	@ 0x35
    hdma->ErrorCode = HAL_DMA_ERROR_NONE;
 8003708:	2500      	movs	r5, #0
 800370a:	6545      	str	r5, [r0, #84]	@ 0x54
  hdma->Instance->CR &= (uint32_t)(~DMA_SxCR_DBM);
 800370c:	6825      	ldr	r5, [r4, #0]
 800370e:	f425 2580 	bic.w	r5, r5, #262144	@ 0x40000
 8003712:	6025      	str	r5, [r4, #0]
  hdma->Instance->NDTR = DataLength;
 8003714:	6063      	str	r3, [r4, #4]
  if((hdma->Init.Direction) == DMA_MEMORY_TO_PERIPH)
 8003716:	6883      	ldr	r3, [r0, #8]
 8003718:	2b40      	cmp	r3, #64	@ 0x40
 800371a:	d01a      	beq.n	8003752 <HAL_DMA_Start_IT+0x7a>
    hdma->Instance->PAR = SrcAddress;
 800371c:	60a1      	str	r1, [r4, #8]
    hdma->Instance->M0AR = DstAddress;
 800371e:	60e2      	str	r2, [r4, #12]
    regs->IFCR = 0x3FU << hdma->StreamIndex;
 8003720:	6dc1      	ldr	r1, [r0, #92]	@ 0x5c
 8003722:	233f      	movs	r3, #63	@ 0x3f
    if(hdma->XferHalfCpltCallback != NULL)
 8003724:	6c02      	ldr	r2, [r0, #64]	@ 0x40
    regs->IFCR = 0x3FU << hdma->StreamIndex;
 8003726:	408b      	lsls	r3, r1
 8003728:	60b3      	str	r3, [r6, #8]
    hdma->Instance->CR  |= DMA_IT_TC | DMA_IT_TE | DMA_IT_DME;
 800372a:	6823      	ldr	r3, [r4, #0]
 800372c:	f043 0316 	orr.w	r3, r3, #22
 8003730:	6023      	str	r3, [r4, #0]
    hdma->Instance->FCR |= DMA_IT_FE;
 8003732:	6963      	ldr	r3, [r4, #20]
 8003734:	f043 0380 	orr.w	r3, r3, #128	@ 0x80
 8003738:	6163      	str	r3, [r4, #20]
    if(hdma->XferHalfCpltCallback != NULL)
 800373a:	b11a      	cbz	r2, 8003744 <HAL_DMA_Start_IT+0x6c>
      hdma->Instance->CR  |= DMA_IT_HT;
 800373c:	6823      	ldr	r3, [r4, #0]
 800373e:	f043 0308 	orr.w	r3, r3, #8
 8003742:	6023      	str	r3, [r4, #0]
    __HAL_DMA_ENABLE(hdma);
 8003744:	6823      	ldr	r3, [r4, #0]
  HAL_StatusTypeDef status = HAL_OK;
 8003746:	2000      	movs	r0, #0
    __HAL_DMA_ENABLE(hdma);
 8003748:	f043 0301 	orr.w	r3, r3, #1
 800374c:	6023      	str	r3, [r4, #0]
}
 800374e:	bc70      	pop	{r4, r5, r6}
 8003750:	4770      	bx	lr
    hdma->Instance->PAR = DstAddress;
 8003752:	60a2      	str	r2, [r4, #8]
    hdma->Instance->M0AR = SrcAddress;
 8003754:	60e1      	str	r1, [r4, #12]
 8003756:	e7e3      	b.n	8003720 <HAL_DMA_Start_IT+0x48>

08003758 <HAL_DMA_IRQHandler>:
{
 8003758:	b5f0      	push	{r4, r5, r6, r7, lr}
  __IO uint32_t count = 0;
 800375a:	2200      	movs	r2, #0
  uint32_t timeout = SystemCoreClock / 9600;
 800375c:	4b66      	ldr	r3, [pc, #408]	@ (80038f8 <HAL_DMA_IRQHandler+0x1a0>)
{
 800375e:	b083      	sub	sp, #12
 8003760:	4604      	mov	r4, r0
  uint32_t timeout = SystemCoreClock / 9600;
 8003762:	681e      	ldr	r6, [r3, #0]
  __IO uint32_t count = 0;
 8003764:	9201      	str	r2, [sp, #4]
  if ((tmpisr & (DMA_FLAG_TEIF0_4 << hdma->StreamIndex)) != RESET)
 8003766:	2208      	movs	r2, #8
 8003768:	e9d0 7316 	ldrd	r7, r3, [r0, #88]	@ 0x58
  tmpisr = regs->ISR;
 800376c:	683d      	ldr	r5, [r7, #0]
  if ((tmpisr & (DMA_FLAG_TEIF0_4 << hdma->StreamIndex)) != RESET)
 800376e:	409a      	lsls	r2, r3
 8003770:	422a      	tst	r2, r5
 8003772:	d004      	beq.n	800377e <HAL_DMA_IRQHandler+0x26>
    if(__HAL_DMA_GET_IT_SOURCE(hdma, DMA_IT_TE) != RESET)
 8003774:	6801      	ldr	r1, [r0, #0]
 8003776:	6808      	ldr	r0, [r1, #0]
 8003778:	0740      	lsls	r0, r0, #29
 800377a:	f100 8097 	bmi.w	80038ac <HAL_DMA_IRQHandler+0x154>
  if ((tmpisr & (DMA_FLAG_FEIF0_4 << hdma->StreamIndex)) != RESET)
 800377e:	2201      	movs	r2, #1
 8003780:	409a      	lsls	r2, r3
 8003782:	422a      	tst	r2, r5
 8003784:	d004      	beq.n	8003790 <HAL_DMA_IRQHandler+0x38>
    if(__HAL_DMA_GET_IT_SOURCE(hdma, DMA_IT_FE) != RESET)
 8003786:	6821      	ldr	r1, [r4, #0]
 8003788:	6949      	ldr	r1, [r1, #20]
 800378a:	0608      	lsls	r0, r1, #24
 800378c:	f100 8088 	bmi.w	80038a0 <HAL_DMA_IRQHandler+0x148>
  if ((tmpisr & (DMA_FLAG_DMEIF0_4 << hdma->StreamIndex)) != RESET)
 8003790:	2204      	movs	r2, #4
 8003792:	409a      	lsls	r2, r3
 8003794:	422a      	tst	r2, r5
 8003796:	d003      	beq.n	80037a0 <HAL_DMA_IRQHandler+0x48>
    if(__HAL_DMA_GET_IT_SOURCE(hdma, DMA_IT_DME) != RESET)
 8003798:	6821      	ldr	r1, [r4, #0]
 800379a:	6809      	ldr	r1, [r1, #0]
 800379c:	0789      	lsls	r1, r1, #30
 800379e:	d479      	bmi.n	8003894 <HAL_DMA_IRQHandler+0x13c>
  if ((tmpisr & (DMA_FLAG_HTIF0_4 << hdma->StreamIndex)) != RESET)
 80037a0:	2210      	movs	r2, #16
 80037a2:	409a      	lsls	r2, r3
 80037a4:	422a      	tst	r2, r5
 80037a6:	d003      	beq.n	80037b0 <HAL_DMA_IRQHandler+0x58>
    if(__HAL_DMA_GET_IT_SOURCE(hdma, DMA_IT_HT) != RESET)
 80037a8:	6821      	ldr	r1, [r4, #0]
 80037aa:	6808      	ldr	r0, [r1, #0]
 80037ac:	0700      	lsls	r0, r0, #28
 80037ae:	d45e      	bmi.n	800386e <HAL_DMA_IRQHandler+0x116>
  if ((tmpisr & (DMA_FLAG_TCIF0_4 << hdma->StreamIndex)) != RESET)
 80037b0:	2220      	movs	r2, #32
 80037b2:	409a      	lsls	r2, r3
 80037b4:	422a      	tst	r2, r5
 80037b6:	d014      	beq.n	80037e2 <HAL_DMA_IRQHandler+0x8a>
    if(__HAL_DMA_GET_IT_SOURCE(hdma, DMA_IT_TC) != RESET)
 80037b8:	6821      	ldr	r1, [r4, #0]
 80037ba:	6808      	ldr	r0, [r1, #0]
 80037bc:	06c0      	lsls	r0, r0, #27
 80037be:	d510      	bpl.n	80037e2 <HAL_DMA_IRQHandler+0x8a>
      regs->IFCR = DMA_FLAG_TCIF0_4 << hdma->StreamIndex;
 80037c0:	60ba      	str	r2, [r7, #8]
      if(HAL_DMA_STATE_ABORT == hdma->State)
 80037c2:	f894 2035 	ldrb.w	r2, [r4, #53]	@ 0x35
 80037c6:	2a05      	cmp	r2, #5
 80037c8:	d033      	beq.n	8003832 <HAL_DMA_IRQHandler+0xda>
      if(((hdma->Instance->CR) & (uint32_t)(DMA_SxCR_DBM)) != RESET)
 80037ca:	680b      	ldr	r3, [r1, #0]
 80037cc:	f413 2f80 	tst.w	r3, #262144	@ 0x40000
        if((hdma->Instance->CR & DMA_SxCR_CT) == RESET)
 80037d0:	680b      	ldr	r3, [r1, #0]
      if(((hdma->Instance->CR) & (uint32_t)(DMA_SxCR_DBM)) != RESET)
 80037d2:	d07b      	beq.n	80038cc <HAL_DMA_IRQHandler+0x174>
        if((hdma->Instance->CR & DMA_SxCR_CT) == RESET)
 80037d4:	0319      	lsls	r1, r3, #12
 80037d6:	f140 8086 	bpl.w	80038e6 <HAL_DMA_IRQHandler+0x18e>
        if(hdma->XferCpltCallback != NULL)
 80037da:	6be3      	ldr	r3, [r4, #60]	@ 0x3c
 80037dc:	b10b      	cbz	r3, 80037e2 <HAL_DMA_IRQHandler+0x8a>
          hdma->XferCpltCallback(hdma);
 80037de:	4620      	mov	r0, r4
 80037e0:	4798      	blx	r3
  if(hdma->ErrorCode != HAL_DMA_ERROR_NONE)
 80037e2:	6d63      	ldr	r3, [r4, #84]	@ 0x54
 80037e4:	2b00      	cmp	r3, #0
 80037e6:	d040      	beq.n	800386a <HAL_DMA_IRQHandler+0x112>
    if((hdma->ErrorCode & HAL_DMA_ERROR_TE) != RESET)
 80037e8:	6d63      	ldr	r3, [r4, #84]	@ 0x54
 80037ea:	07da      	lsls	r2, r3, #31
 80037ec:	d51a      	bpl.n	8003824 <HAL_DMA_IRQHandler+0xcc>
      __HAL_DMA_DISABLE(hdma);
 80037ee:	6822      	ldr	r2, [r4, #0]
      hdma->State = HAL_DMA_STATE_ABORT;
 80037f0:	2105      	movs	r1, #5
  uint32_t timeout = SystemCoreClock / 9600;
 80037f2:	4b42      	ldr	r3, [pc, #264]	@ (80038fc <HAL_DMA_IRQHandler+0x1a4>)
      hdma->State = HAL_DMA_STATE_ABORT;
 80037f4:	f884 1035 	strb.w	r1, [r4, #53]	@ 0x35
  uint32_t timeout = SystemCoreClock / 9600;
 80037f8:	fba3 3606 	umull	r3, r6, r3, r6
      __HAL_DMA_DISABLE(hdma);
 80037fc:	6813      	ldr	r3, [r2, #0]
 80037fe:	f023 0301 	bic.w	r3, r3, #1
  uint32_t timeout = SystemCoreClock / 9600;
 8003802:	0ab6      	lsrs	r6, r6, #10
      __HAL_DMA_DISABLE(hdma);
 8003804:	6013      	str	r3, [r2, #0]
 8003806:	e002      	b.n	800380e <HAL_DMA_IRQHandler+0xb6>
      while((hdma->Instance->CR & DMA_SxCR_EN) != RESET);
 8003808:	6813      	ldr	r3, [r2, #0]
 800380a:	07db      	lsls	r3, r3, #31
 800380c:	d504      	bpl.n	8003818 <HAL_DMA_IRQHandler+0xc0>
        if (++count > timeout)
 800380e:	9b01      	ldr	r3, [sp, #4]
 8003810:	3301      	adds	r3, #1
 8003812:	42b3      	cmp	r3, r6
 8003814:	9301      	str	r3, [sp, #4]
 8003816:	d9f7      	bls.n	8003808 <HAL_DMA_IRQHandler+0xb0>
      hdma->State = HAL_DMA_STATE_READY;
 8003818:	2201      	movs	r2, #1
      __HAL_UNLOCK(hdma);
 800381a:	2300      	movs	r3, #0
      hdma->State = HAL_DMA_STATE_READY;
 800381c:	f884 2035 	strb.w	r2, [r4, #53]	@ 0x35
      __HAL_UNLOCK(hdma);
 8003820:	f884 3034 	strb.w	r3, [r4, #52]	@ 0x34
    if(hdma->XferErrorCallback != NULL)
 8003824:	6ce3      	ldr	r3, [r4, #76]	@ 0x4c
 8003826:	b303      	cbz	r3, 800386a <HAL_DMA_IRQHandler+0x112>
      hdma->XferErrorCallback(hdma);
 8003828:	4620      	mov	r0, r4
}
 800382a:	b003      	add	sp, #12
 800382c:	e8bd 40f0 	ldmia.w	sp!, {r4, r5, r6, r7, lr}
      hdma->XferErrorCallback(hdma);
 8003830:	4718      	bx	r3
        hdma->Instance->CR  &= ~(DMA_IT_TC | DMA_IT_TE | DMA_IT_DME);
 8003832:	680a      	ldr	r2, [r1, #0]
 8003834:	f022 0216 	bic.w	r2, r2, #22
 8003838:	600a      	str	r2, [r1, #0]
        hdma->Instance->FCR &= ~(DMA_IT_FE);
 800383a:	694a      	ldr	r2, [r1, #20]
 800383c:	f022 0280 	bic.w	r2, r2, #128	@ 0x80
 8003840:	614a      	str	r2, [r1, #20]
        if((hdma->XferHalfCpltCallback != NULL) || (hdma->XferM1HalfCpltCallback != NULL))
 8003842:	6c22      	ldr	r2, [r4, #64]	@ 0x40
 8003844:	2a00      	cmp	r2, #0
 8003846:	d053      	beq.n	80038f0 <HAL_DMA_IRQHandler+0x198>
          hdma->Instance->CR  &= ~(DMA_IT_HT);
 8003848:	680a      	ldr	r2, [r1, #0]
 800384a:	f022 0208 	bic.w	r2, r2, #8
 800384e:	600a      	str	r2, [r1, #0]
        regs->IFCR = 0x3FU << hdma->StreamIndex;
 8003850:	223f      	movs	r2, #63	@ 0x3f
        hdma->State = HAL_DMA_STATE_READY;
 8003852:	2101      	movs	r1, #1
        regs->IFCR = 0x3FU << hdma->StreamIndex;
 8003854:	fa02 f303 	lsl.w	r3, r2, r3
        __HAL_UNLOCK(hdma);
 8003858:	2200      	movs	r2, #0
        regs->IFCR = 0x3FU << hdma->StreamIndex;
 800385a:	60bb      	str	r3, [r7, #8]
        if(hdma->XferAbortCallback != NULL)
 800385c:	6d23      	ldr	r3, [r4, #80]	@ 0x50
        hdma->State = HAL_DMA_STATE_READY;
 800385e:	f884 1035 	strb.w	r1, [r4, #53]	@ 0x35
        __HAL_UNLOCK(hdma);
 8003862:	f884 2034 	strb.w	r2, [r4, #52]	@ 0x34
        if(hdma->XferAbortCallback != NULL)
 8003866:	2b00      	cmp	r3, #0
 8003868:	d1de      	bne.n	8003828 <HAL_DMA_IRQHandler+0xd0>
}
 800386a:	b003      	add	sp, #12
 800386c:	bdf0      	pop	{r4, r5, r6, r7, pc}
      regs->IFCR = DMA_FLAG_HTIF0_4 << hdma->StreamIndex;
 800386e:	60ba      	str	r2, [r7, #8]
      if(((hdma->Instance->CR) & (uint32_t)(DMA_SxCR_DBM)) != RESET)
 8003870:	680a      	ldr	r2, [r1, #0]
 8003872:	f412 2f80 	tst.w	r2, #262144	@ 0x40000
        if((hdma->Instance->CR & DMA_SxCR_CT) == RESET)
 8003876:	680a      	ldr	r2, [r1, #0]
      if(((hdma->Instance->CR) & (uint32_t)(DMA_SxCR_DBM)) != RESET)
 8003878:	d122      	bne.n	80038c0 <HAL_DMA_IRQHandler+0x168>
        if((hdma->Instance->CR & DMA_SxCR_CIRC) == RESET)
 800387a:	05d2      	lsls	r2, r2, #23
 800387c:	d403      	bmi.n	8003886 <HAL_DMA_IRQHandler+0x12e>
          hdma->Instance->CR  &= ~(DMA_IT_HT);
 800387e:	680a      	ldr	r2, [r1, #0]
 8003880:	f022 0208 	bic.w	r2, r2, #8
 8003884:	600a      	str	r2, [r1, #0]
        if(hdma->XferHalfCpltCallback != NULL)
 8003886:	6c22      	ldr	r2, [r4, #64]	@ 0x40
 8003888:	2a00      	cmp	r2, #0
 800388a:	d091      	beq.n	80037b0 <HAL_DMA_IRQHandler+0x58>
          hdma->XferHalfCpltCallback(hdma);
 800388c:	4620      	mov	r0, r4
 800388e:	4790      	blx	r2
  if ((tmpisr & (DMA_FLAG_TCIF0_4 << hdma->StreamIndex)) != RESET)
 8003890:	6de3      	ldr	r3, [r4, #92]	@ 0x5c
 8003892:	e78d      	b.n	80037b0 <HAL_DMA_IRQHandler+0x58>
      regs->IFCR = DMA_FLAG_DMEIF0_4 << hdma->StreamIndex;
 8003894:	60ba      	str	r2, [r7, #8]
      hdma->ErrorCode |= HAL_DMA_ERROR_DME;
 8003896:	6d62      	ldr	r2, [r4, #84]	@ 0x54
 8003898:	f042 0204 	orr.w	r2, r2, #4
 800389c:	6562      	str	r2, [r4, #84]	@ 0x54
 800389e:	e77f      	b.n	80037a0 <HAL_DMA_IRQHandler+0x48>
      regs->IFCR = DMA_FLAG_FEIF0_4 << hdma->StreamIndex;
 80038a0:	60ba      	str	r2, [r7, #8]
      hdma->ErrorCode |= HAL_DMA_ERROR_FE;
 80038a2:	6d62      	ldr	r2, [r4, #84]	@ 0x54
 80038a4:	f042 0202 	orr.w	r2, r2, #2
 80038a8:	6562      	str	r2, [r4, #84]	@ 0x54
 80038aa:	e771      	b.n	8003790 <HAL_DMA_IRQHandler+0x38>
      hdma->Instance->CR  &= ~(DMA_IT_TE);
 80038ac:	6808      	ldr	r0, [r1, #0]
 80038ae:	f020 0004 	bic.w	r0, r0, #4
 80038b2:	6008      	str	r0, [r1, #0]
      regs->IFCR = DMA_FLAG_TEIF0_4 << hdma->StreamIndex;
 80038b4:	60ba      	str	r2, [r7, #8]
      hdma->ErrorCode |= HAL_DMA_ERROR_TE;
 80038b6:	6d62      	ldr	r2, [r4, #84]	@ 0x54
 80038b8:	f042 0201 	orr.w	r2, r2, #1
 80038bc:	6562      	str	r2, [r4, #84]	@ 0x54
 80038be:	e75e      	b.n	800377e <HAL_DMA_IRQHandler+0x26>
        if((hdma->Instance->CR & DMA_SxCR_CT) == RESET)
 80038c0:	0311      	lsls	r1, r2, #12
 80038c2:	d5e0      	bpl.n	8003886 <HAL_DMA_IRQHandler+0x12e>
          if(hdma->XferM1HalfCpltCallback != NULL)
 80038c4:	6ca2      	ldr	r2, [r4, #72]	@ 0x48
 80038c6:	2a00      	cmp	r2, #0
 80038c8:	d1e0      	bne.n	800388c <HAL_DMA_IRQHandler+0x134>
 80038ca:	e771      	b.n	80037b0 <HAL_DMA_IRQHandler+0x58>
        if((hdma->Instance->CR & DMA_SxCR_CIRC) == RESET)
 80038cc:	f413 7380 	ands.w	r3, r3, #256	@ 0x100
 80038d0:	d183      	bne.n	80037da <HAL_DMA_IRQHandler+0x82>
          hdma->Instance->CR  &= ~(DMA_IT_TC);
 80038d2:	680a      	ldr	r2, [r1, #0]
 80038d4:	f022 0210 	bic.w	r2, r2, #16
 80038d8:	600a      	str	r2, [r1, #0]
          hdma->State = HAL_DMA_STATE_READY;
 80038da:	2201      	movs	r2, #1
          __HAL_UNLOCK(hdma);
 80038dc:	f884 3034 	strb.w	r3, [r4, #52]	@ 0x34
          hdma->State = HAL_DMA_STATE_READY;
 80038e0:	f884 2035 	strb.w	r2, [r4, #53]	@ 0x35
          __HAL_UNLOCK(hdma);
 80038e4:	e779      	b.n	80037da <HAL_DMA_IRQHandler+0x82>
          if(hdma->XferM1CpltCallback != NULL)
 80038e6:	6c63      	ldr	r3, [r4, #68]	@ 0x44
 80038e8:	2b00      	cmp	r3, #0
 80038ea:	f47f af78 	bne.w	80037de <HAL_DMA_IRQHandler+0x86>
 80038ee:	e778      	b.n	80037e2 <HAL_DMA_IRQHandler+0x8a>
        if((hdma->XferHalfCpltCallback != NULL) || (hdma->XferM1HalfCpltCallback != NULL))
 80038f0:	6ca2      	ldr	r2, [r4, #72]	@ 0x48
 80038f2:	2a00      	cmp	r2, #0
 80038f4:	d1a8      	bne.n	8003848 <HAL_DMA_IRQHandler+0xf0>
 80038f6:	e7ab      	b.n	8003850 <HAL_DMA_IRQHandler+0xf8>
 80038f8:	20000168 	.word	0x20000168
 80038fc:	1b4e81b5 	.word	0x1b4e81b5

08003900 <HAL_GPIO_Init>:
  * @param  GPIO_Init pointer to a GPIO_InitTypeDef structure that contains
  *         the configuration information for the specified GPIO peripheral.
  * @retval None
  */
void HAL_GPIO_Init(GPIO_TypeDef  *GPIOx, GPIO_InitTypeDef *GPIO_Init)
{
 8003900:	e92d 4ff0 	stmdb	sp!, {r4, r5, r6, r7, r8, r9, sl, fp, lr}
  assert_param(IS_GPIO_ALL_INSTANCE(GPIOx));
  assert_param(IS_GPIO_PIN(GPIO_Init->Pin));
  assert_param(IS_GPIO_MODE(GPIO_Init->Mode));

  /* Configure the port pins */
  for(position = 0; position < GPIO_NUMBER; position++)
 8003904:	2300      	movs	r3, #0
{
 8003906:	b085      	sub	sp, #20
  {
    /* Get the IO position */
    ioposition = ((uint32_t)0x01) << position;
 8003908:	f04f 0b01 	mov.w	fp, #1
    /* Get the current IO position */
    iocurrent = (uint32_t)(GPIO_Init->Pin) & ioposition;
 800390c:	680c      	ldr	r4, [r1, #0]
      /*--------------------- EXTI Mode Configuration ------------------------*/
      /* Configure the External Interrupt or event for the current IO */
      if((GPIO_Init->Mode & EXTI_MODE) != 0x00u)
      {
        /* Enable SYSCFG Clock */
        __HAL_RCC_SYSCFG_CLK_ENABLE();
 800390e:	f8df a244 	ldr.w	sl, [pc, #580]	@ 8003b54 <HAL_GPIO_Init+0x254>

        temp = SYSCFG->EXTICR[position >> 2];
        temp &= ~(((uint32_t)0x0F) << (4 * (position & 0x03)));
        temp |= ((uint32_t)(GPIO_GET_INDEX(GPIOx)) << (4 * (position & 0x03)));
 8003912:	4689      	mov	r9, r1
 8003914:	e003      	b.n	800391e <HAL_GPIO_Init+0x1e>
  for(position = 0; position < GPIO_NUMBER; position++)
 8003916:	3301      	adds	r3, #1
 8003918:	2b10      	cmp	r3, #16
 800391a:	f000 809b 	beq.w	8003a54 <HAL_GPIO_Init+0x154>
    ioposition = ((uint32_t)0x01) << position;
 800391e:	fa0b f203 	lsl.w	r2, fp, r3
    iocurrent = (uint32_t)(GPIO_Init->Pin) & ioposition;
 8003922:	ea02 0804 	and.w	r8, r2, r4
    if(iocurrent == ioposition)
 8003926:	43a2      	bics	r2, r4
 8003928:	d1f5      	bne.n	8003916 <HAL_GPIO_Init+0x16>
      if(((GPIO_Init->Mode & GPIO_MODE) == MODE_OUTPUT) || ((GPIO_Init->Mode & GPIO_MODE) == MODE_AF))
 800392a:	f8d9 1004 	ldr.w	r1, [r9, #4]
 800392e:	ea4f 0c43 	mov.w	ip, r3, lsl #1
        temp &= ~(GPIO_OSPEEDER_OSPEEDR0 << (position * 2));
 8003932:	2503      	movs	r5, #3
      if(((GPIO_Init->Mode & GPIO_MODE) == MODE_OUTPUT) || ((GPIO_Init->Mode & GPIO_MODE) == MODE_AF))
 8003934:	f001 0203 	and.w	r2, r1, #3
        temp &= ~(GPIO_OSPEEDER_OSPEEDR0 << (position * 2));
 8003938:	fa05 f50c 	lsl.w	r5, r5, ip
      if(((GPIO_Init->Mode & GPIO_MODE) == MODE_OUTPUT) || ((GPIO_Init->Mode & GPIO_MODE) == MODE_AF))
 800393c:	1e57      	subs	r7, r2, #1
        temp &= ~(GPIO_OSPEEDER_OSPEEDR0 << (position * 2));
 800393e:	43ed      	mvns	r5, r5
      if(((GPIO_Init->Mode & GPIO_MODE) == MODE_OUTPUT) || ((GPIO_Init->Mode & GPIO_MODE) == MODE_AF))
 8003940:	2f01      	cmp	r7, #1
 8003942:	f240 808a 	bls.w	8003a5a <HAL_GPIO_Init+0x15a>
      if((GPIO_Init->Mode & GPIO_MODE) != MODE_ANALOG)
 8003946:	2a03      	cmp	r2, #3
 8003948:	f040 80c3 	bne.w	8003ad2 <HAL_GPIO_Init+0x1d2>
      temp = GPIOx->MODER;
 800394c:	6807      	ldr	r7, [r0, #0]
      temp |= ((GPIO_Init->Mode & GPIO_MODE) << (position * 2));
 800394e:	fa02 f20c 	lsl.w	r2, r2, ip
      if((GPIO_Init->Mode & EXTI_MODE) != 0x00u)
 8003952:	f411 3f40 	tst.w	r1, #196608	@ 0x30000
      temp &= ~(GPIO_MODER_MODER0 << (position * 2));
 8003956:	ea05 0507 	and.w	r5, r5, r7
      temp |= ((GPIO_Init->Mode & GPIO_MODE) << (position * 2));
 800395a:	ea42 0205 	orr.w	r2, r2, r5
      GPIOx->MODER = temp;
 800395e:	6002      	str	r2, [r0, #0]
      if((GPIO_Init->Mode & EXTI_MODE) != 0x00u)
 8003960:	d0d9      	beq.n	8003916 <HAL_GPIO_Init+0x16>
        __HAL_RCC_SYSCFG_CLK_ENABLE();
 8003962:	f8da 2044 	ldr.w	r2, [sl, #68]	@ 0x44
 8003966:	f023 0503 	bic.w	r5, r3, #3
        temp &= ~(((uint32_t)0x0F) << (4 * (position & 0x03)));
 800396a:	f003 0703 	and.w	r7, r3, #3
 800396e:	260f      	movs	r6, #15
        __HAL_RCC_SYSCFG_CLK_ENABLE();
 8003970:	f442 4280 	orr.w	r2, r2, #16384	@ 0x4000
 8003974:	f105 4580 	add.w	r5, r5, #1073741824	@ 0x40000000
        temp &= ~(((uint32_t)0x0F) << (4 * (position & 0x03)));
 8003978:	00bf      	lsls	r7, r7, #2
        __HAL_RCC_SYSCFG_CLK_ENABLE();
 800397a:	f8ca 2044 	str.w	r2, [sl, #68]	@ 0x44
 800397e:	f505 359c 	add.w	r5, r5, #79872	@ 0x13800
 8003982:	f8da 2044 	ldr.w	r2, [sl, #68]	@ 0x44
        temp &= ~(((uint32_t)0x0F) << (4 * (position & 0x03)));
 8003986:	fa06 fc07 	lsl.w	ip, r6, r7
        temp |= ((uint32_t)(GPIO_GET_INDEX(GPIOx)) << (4 * (position & 0x03)));
 800398a:	4e6f      	ldr	r6, [pc, #444]	@ (8003b48 <HAL_GPIO_Init+0x248>)
        __HAL_RCC_SYSCFG_CLK_ENABLE();
 800398c:	f402 4280 	and.w	r2, r2, #16384	@ 0x4000
        temp |= ((uint32_t)(GPIO_GET_INDEX(GPIOx)) << (4 * (position & 0x03)));
 8003990:	42b0      	cmp	r0, r6
        __HAL_RCC_SYSCFG_CLK_ENABLE();
 8003992:	9203      	str	r2, [sp, #12]
 8003994:	9a03      	ldr	r2, [sp, #12]
        temp = SYSCFG->EXTICR[position >> 2];
 8003996:	68aa      	ldr	r2, [r5, #8]
        temp &= ~(((uint32_t)0x0F) << (4 * (position & 0x03)));
 8003998:	ea22 020c 	bic.w	r2, r2, ip
        temp |= ((uint32_t)(GPIO_GET_INDEX(GPIOx)) << (4 * (position & 0x03)));
 800399c:	d031      	beq.n	8003a02 <HAL_GPIO_Init+0x102>
 800399e:	f506 6680 	add.w	r6, r6, #1024	@ 0x400
 80039a2:	42b0      	cmp	r0, r6
 80039a4:	f000 80a0 	beq.w	8003ae8 <HAL_GPIO_Init+0x1e8>
 80039a8:	4e68      	ldr	r6, [pc, #416]	@ (8003b4c <HAL_GPIO_Init+0x24c>)
 80039aa:	42b0      	cmp	r0, r6
 80039ac:	f000 80a2 	beq.w	8003af4 <HAL_GPIO_Init+0x1f4>
 80039b0:	f8df c1a4 	ldr.w	ip, [pc, #420]	@ 8003b58 <HAL_GPIO_Init+0x258>
 80039b4:	4560      	cmp	r0, ip
 80039b6:	f000 80a3 	beq.w	8003b00 <HAL_GPIO_Init+0x200>
 80039ba:	f8df c1a0 	ldr.w	ip, [pc, #416]	@ 8003b5c <HAL_GPIO_Init+0x25c>
 80039be:	4560      	cmp	r0, ip
 80039c0:	f000 80a4 	beq.w	8003b0c <HAL_GPIO_Init+0x20c>
 80039c4:	f8df c198 	ldr.w	ip, [pc, #408]	@ 8003b60 <HAL_GPIO_Init+0x260>
 80039c8:	4560      	cmp	r0, ip
 80039ca:	f000 80ab 	beq.w	8003b24 <HAL_GPIO_Init+0x224>
 80039ce:	f8df c194 	ldr.w	ip, [pc, #404]	@ 8003b64 <HAL_GPIO_Init+0x264>
 80039d2:	4560      	cmp	r0, ip
 80039d4:	f000 80ac 	beq.w	8003b30 <HAL_GPIO_Init+0x230>
 80039d8:	f8df c18c 	ldr.w	ip, [pc, #396]	@ 8003b68 <HAL_GPIO_Init+0x268>
 80039dc:	4560      	cmp	r0, ip
 80039de:	f000 809b 	beq.w	8003b18 <HAL_GPIO_Init+0x218>
 80039e2:	f8df c188 	ldr.w	ip, [pc, #392]	@ 8003b6c <HAL_GPIO_Init+0x26c>
 80039e6:	4560      	cmp	r0, ip
 80039e8:	f000 80a8 	beq.w	8003b3c <HAL_GPIO_Init+0x23c>
 80039ec:	f8df c180 	ldr.w	ip, [pc, #384]	@ 8003b70 <HAL_GPIO_Init+0x270>
 80039f0:	4560      	cmp	r0, ip
 80039f2:	bf0c      	ite	eq
 80039f4:	f04f 0c09 	moveq.w	ip, #9
 80039f8:	f04f 0c0a 	movne.w	ip, #10
 80039fc:	fa0c f707 	lsl.w	r7, ip, r7
 8003a00:	433a      	orrs	r2, r7
        SYSCFG->EXTICR[position >> 2] = temp;
 8003a02:	60aa      	str	r2, [r5, #8]

        /* Clear Rising Falling edge configuration */
        temp = EXTI->RTSR;
        temp &= ~((uint32_t)iocurrent);
        if((GPIO_Init->Mode & TRIGGER_RISING) != 0x00u)
 8003a04:	02ce      	lsls	r6, r1, #11
        temp = EXTI->RTSR;
 8003a06:	4a52      	ldr	r2, [pc, #328]	@ (8003b50 <HAL_GPIO_Init+0x250>)
        temp &= ~((uint32_t)iocurrent);
 8003a08:	ea6f 0508 	mvn.w	r5, r8
        {
          temp |= iocurrent;
        }
        EXTI->RTSR = temp;
 8003a0c:	4e50      	ldr	r6, [pc, #320]	@ (8003b50 <HAL_GPIO_Init+0x250>)
  for(position = 0; position < GPIO_NUMBER; position++)
 8003a0e:	f103 0301 	add.w	r3, r3, #1
        temp = EXTI->RTSR;
 8003a12:	6892      	ldr	r2, [r2, #8]
        temp &= ~((uint32_t)iocurrent);
 8003a14:	bf54      	ite	pl
 8003a16:	402a      	andpl	r2, r5
          temp |= iocurrent;
 8003a18:	ea48 0202 	orrmi.w	r2, r8, r2

        temp = EXTI->FTSR;
        temp &= ~((uint32_t)iocurrent);
        if((GPIO_Init->Mode & TRIGGER_FALLING) != 0x00u)
 8003a1c:	028f      	lsls	r7, r1, #10
        EXTI->RTSR = temp;
 8003a1e:	60b2      	str	r2, [r6, #8]
        temp = EXTI->FTSR;
 8003a20:	68f2      	ldr	r2, [r6, #12]
        {
          temp |= iocurrent;
        }
        EXTI->FTSR = temp;
 8003a22:	4e4b      	ldr	r6, [pc, #300]	@ (8003b50 <HAL_GPIO_Init+0x250>)
        temp &= ~((uint32_t)iocurrent);
 8003a24:	bf54      	ite	pl
 8003a26:	402a      	andpl	r2, r5
          temp |= iocurrent;
 8003a28:	ea48 0202 	orrmi.w	r2, r8, r2
        EXTI->FTSR = temp;
 8003a2c:	60f2      	str	r2, [r6, #12]

        temp = EXTI->EMR;
 8003a2e:	6872      	ldr	r2, [r6, #4]
        temp &= ~((uint32_t)iocurrent);
        if((GPIO_Init->Mode & EXTI_EVT) != 0x00u)
 8003a30:	038e      	lsls	r6, r1, #14
        {
          temp |= iocurrent;
        }
        EXTI->EMR = temp;
 8003a32:	4e47      	ldr	r6, [pc, #284]	@ (8003b50 <HAL_GPIO_Init+0x250>)
        temp &= ~((uint32_t)iocurrent);
 8003a34:	bf54      	ite	pl
 8003a36:	402a      	andpl	r2, r5
          temp |= iocurrent;
 8003a38:	ea48 0202 	orrmi.w	r2, r8, r2

        /* Clear EXTI line configuration */
        temp = EXTI->IMR;
        temp &= ~((uint32_t)iocurrent);
        if((GPIO_Init->Mode & EXTI_IT) != 0x00u)
 8003a3c:	03c9      	lsls	r1, r1, #15
        {
          temp |= iocurrent;
        }
        EXTI->IMR = temp;
 8003a3e:	4944      	ldr	r1, [pc, #272]	@ (8003b50 <HAL_GPIO_Init+0x250>)
        EXTI->EMR = temp;
 8003a40:	6072      	str	r2, [r6, #4]
        temp = EXTI->IMR;
 8003a42:	6832      	ldr	r2, [r6, #0]
        temp &= ~((uint32_t)iocurrent);
 8003a44:	bf54      	ite	pl
 8003a46:	402a      	andpl	r2, r5
          temp |= iocurrent;
 8003a48:	ea48 0202 	orrmi.w	r2, r8, r2
  for(position = 0; position < GPIO_NUMBER; position++)
 8003a4c:	2b10      	cmp	r3, #16
        EXTI->IMR = temp;
 8003a4e:	600a      	str	r2, [r1, #0]
  for(position = 0; position < GPIO_NUMBER; position++)
 8003a50:	f47f af65 	bne.w	800391e <HAL_GPIO_Init+0x1e>
      }
    }
  }
}
 8003a54:	b005      	add	sp, #20
 8003a56:	e8bd 8ff0 	ldmia.w	sp!, {r4, r5, r6, r7, r8, r9, sl, fp, pc}
        temp = GPIOx->OSPEEDR; 
 8003a5a:	6887      	ldr	r7, [r0, #8]
      if((GPIO_Init->Mode & GPIO_MODE) == MODE_AF)
 8003a5c:	2a02      	cmp	r2, #2
        temp &= ~(GPIO_OSPEEDER_OSPEEDR0 << (position * 2));
 8003a5e:	ea07 0e05 	and.w	lr, r7, r5
        temp |= (GPIO_Init->Speed << (position * 2));
 8003a62:	f8d9 700c 	ldr.w	r7, [r9, #12]
 8003a66:	fa07 f70c 	lsl.w	r7, r7, ip
 8003a6a:	ea47 070e 	orr.w	r7, r7, lr
        GPIOx->OSPEEDR = temp;
 8003a6e:	6087      	str	r7, [r0, #8]
        temp |= (((GPIO_Init->Mode & OUTPUT_TYPE) >> OUTPUT_TYPE_Pos) << position);
 8003a70:	f3c1 1700 	ubfx	r7, r1, #4, #1
        temp = GPIOx->OTYPER;
 8003a74:	f8d0 e004 	ldr.w	lr, [r0, #4]
        temp |= (((GPIO_Init->Mode & OUTPUT_TYPE) >> OUTPUT_TYPE_Pos) << position);
 8003a78:	fa07 f703 	lsl.w	r7, r7, r3
        temp &= ~(GPIO_OTYPER_OT_0 << position) ;
 8003a7c:	ea2e 0e08 	bic.w	lr, lr, r8
        temp |= (((GPIO_Init->Mode & OUTPUT_TYPE) >> OUTPUT_TYPE_Pos) << position);
 8003a80:	ea47 070e 	orr.w	r7, r7, lr
        GPIOx->OTYPER = temp;
 8003a84:	6047      	str	r7, [r0, #4]
        temp |= ((GPIO_Init->Pull) << (position * 2));
 8003a86:	f8d9 7008 	ldr.w	r7, [r9, #8]
        temp = GPIOx->PUPDR;
 8003a8a:	f8d0 e00c 	ldr.w	lr, [r0, #12]
        temp |= ((GPIO_Init->Pull) << (position * 2));
 8003a8e:	fa07 f70c 	lsl.w	r7, r7, ip
        temp &= ~(GPIO_PUPDR_PUPDR0 << (position * 2));
 8003a92:	ea0e 0e05 	and.w	lr, lr, r5
        temp |= ((GPIO_Init->Pull) << (position * 2));
 8003a96:	ea47 070e 	orr.w	r7, r7, lr
        GPIOx->PUPDR = temp;
 8003a9a:	60c7      	str	r7, [r0, #12]
      if((GPIO_Init->Mode & GPIO_MODE) == MODE_AF)
 8003a9c:	f47f af56 	bne.w	800394c <HAL_GPIO_Init+0x4c>
        temp = GPIOx->AFR[position >> 3];
 8003aa0:	08df      	lsrs	r7, r3, #3
        temp &= ~((uint32_t)0xF << ((uint32_t)(position & (uint32_t)0x07) * 4)) ;
 8003aa2:	f003 0e07 	and.w	lr, r3, #7
 8003aa6:	eb00 0787 	add.w	r7, r0, r7, lsl #2
 8003aaa:	ea4f 0e8e 	mov.w	lr, lr, lsl #2
        temp = GPIOx->AFR[position >> 3];
 8003aae:	6a3e      	ldr	r6, [r7, #32]
 8003ab0:	9701      	str	r7, [sp, #4]
 8003ab2:	9600      	str	r6, [sp, #0]
        temp &= ~((uint32_t)0xF << ((uint32_t)(position & (uint32_t)0x07) * 4)) ;
 8003ab4:	260f      	movs	r6, #15
        temp |= ((uint32_t)(GPIO_Init->Alternate) << (((uint32_t)position & (uint32_t)0x07) * 4));
 8003ab6:	f8d9 7010 	ldr.w	r7, [r9, #16]
 8003aba:	fa07 f70e 	lsl.w	r7, r7, lr
        temp &= ~((uint32_t)0xF << ((uint32_t)(position & (uint32_t)0x07) * 4)) ;
 8003abe:	fa06 fe0e 	lsl.w	lr, r6, lr
 8003ac2:	9e00      	ldr	r6, [sp, #0]
 8003ac4:	ea26 0e0e 	bic.w	lr, r6, lr
        GPIOx->AFR[position >> 3] = temp;
 8003ac8:	9e01      	ldr	r6, [sp, #4]
        temp |= ((uint32_t)(GPIO_Init->Alternate) << (((uint32_t)position & (uint32_t)0x07) * 4));
 8003aca:	ea47 070e 	orr.w	r7, r7, lr
        GPIOx->AFR[position >> 3] = temp;
 8003ace:	6237      	str	r7, [r6, #32]
 8003ad0:	e73c      	b.n	800394c <HAL_GPIO_Init+0x4c>
        temp = GPIOx->PUPDR;
 8003ad2:	68c7      	ldr	r7, [r0, #12]
        temp &= ~(GPIO_PUPDR_PUPDR0 << (position * 2));
 8003ad4:	ea07 0e05 	and.w	lr, r7, r5
        temp |= ((GPIO_Init->Pull) << (position * 2));
 8003ad8:	f8d9 7008 	ldr.w	r7, [r9, #8]
 8003adc:	fa07 f70c 	lsl.w	r7, r7, ip
 8003ae0:	ea47 070e 	orr.w	r7, r7, lr
        GPIOx->PUPDR = temp;
 8003ae4:	60c7      	str	r7, [r0, #12]
      if((GPIO_Init->Mode & GPIO_MODE) == MODE_AF)
 8003ae6:	e731      	b.n	800394c <HAL_GPIO_Init+0x4c>
        temp |= ((uint32_t)(GPIO_GET_INDEX(GPIOx)) << (4 * (position & 0x03)));
 8003ae8:	f04f 0c01 	mov.w	ip, #1
 8003aec:	fa0c f707 	lsl.w	r7, ip, r7
 8003af0:	433a      	orrs	r2, r7
 8003af2:	e786      	b.n	8003a02 <HAL_GPIO_Init+0x102>
 8003af4:	f04f 0c02 	mov.w	ip, #2
 8003af8:	fa0c f707 	lsl.w	r7, ip, r7
 8003afc:	433a      	orrs	r2, r7
 8003afe:	e780      	b.n	8003a02 <HAL_GPIO_Init+0x102>
 8003b00:	f04f 0c03 	mov.w	ip, #3
 8003b04:	fa0c f707 	lsl.w	r7, ip, r7
 8003b08:	433a      	orrs	r2, r7
 8003b0a:	e77a      	b.n	8003a02 <HAL_GPIO_Init+0x102>
 8003b0c:	f04f 0c04 	mov.w	ip, #4
 8003b10:	fa0c f707 	lsl.w	r7, ip, r7
 8003b14:	433a      	orrs	r2, r7
 8003b16:	e774      	b.n	8003a02 <HAL_GPIO_Init+0x102>
 8003b18:	f04f 0c07 	mov.w	ip, #7
 8003b1c:	fa0c f707 	lsl.w	r7, ip, r7
 8003b20:	433a      	orrs	r2, r7
 8003b22:	e76e      	b.n	8003a02 <HAL_GPIO_Init+0x102>
 8003b24:	f04f 0c05 	mov.w	ip, #5
 8003b28:	fa0c f707 	lsl.w	r7, ip, r7
 8003b2c:	433a      	orrs	r2, r7
 8003b2e:	e768      	b.n	8003a02 <HAL_GPIO_Init+0x102>
 8003b30:	f04f 0c06 	mov.w	ip, #6
 8003b34:	fa0c f707 	lsl.w	r7, ip, r7
 8003b38:	433a      	orrs	r2, r7
 8003b3a:	e762      	b.n	8003a02 <HAL_GPIO_Init+0x102>
 8003b3c:	f04f 0c08 	mov.w	ip, #8
 8003b40:	fa0c f707 	lsl.w	r7, ip, r7
 8003b44:	433a      	orrs	r2, r7
 8003b46:	e75c      	b.n	8003a02 <HAL_GPIO_Init+0x102>
 8003b48:	40020000 	.word	0x40020000
 8003b4c:	40020800 	.word	0x40020800
 8003b50:	40013c00 	.word	0x40013c00
 8003b54:	40023800 	.word	0x40023800
 8003b58:	40020c00 	.word	0x40020c00
 8003b5c:	40021000 	.word	0x40021000
 8003b60:	40021400 	.word	0x40021400
 8003b64:	40021800 	.word	0x40021800
 8003b68:	40021c00 	.word	0x40021c00
 8003b6c:	40022000 	.word	0x40022000
 8003b70:	40022400 	.word	0x40022400

08003b74 <HAL_GPIO_ReadPin>:
  GPIO_PinState bitstatus;

  /* Check the parameters */
  assert_param(IS_GPIO_PIN(GPIO_Pin));

  if((GPIOx->IDR & GPIO_Pin) != (uint32_t)GPIO_PIN_RESET)
 8003b74:	6903      	ldr	r3, [r0, #16]
 8003b76:	4219      	tst	r1, r3
  else
  {
    bitstatus = GPIO_PIN_RESET;
  }
  return bitstatus;
}
 8003b78:	bf14      	ite	ne
 8003b7a:	2001      	movne	r0, #1
 8003b7c:	2000      	moveq	r0, #0
 8003b7e:	4770      	bx	lr

08003b80 <HAL_GPIO_WritePin>:
{
  /* Check the parameters */
  assert_param(IS_GPIO_PIN(GPIO_Pin));
  assert_param(IS_GPIO_PIN_ACTION(PinState));

  if(PinState != GPIO_PIN_RESET)
 8003b80:	b902      	cbnz	r2, 8003b84 <HAL_GPIO_WritePin+0x4>
  {
    GPIOx->BSRR = GPIO_Pin;
  }
  else
  {
    GPIOx->BSRR = (uint32_t)GPIO_Pin << 16;
 8003b82:	0409      	lsls	r1, r1, #16
 8003b84:	6181      	str	r1, [r0, #24]
  }
}
 8003b86:	4770      	bx	lr

08003b88 <HAL_I2C_Init>:
  * @retval HAL status
  */
HAL_StatusTypeDef HAL_I2C_Init(I2C_HandleTypeDef *hi2c)
{
  /* Check the I2C handle allocation */
  if (hi2c == NULL)
 8003b88:	2800      	cmp	r0, #0
 8003b8a:	d04e      	beq.n	8003c2a <HAL_I2C_Init+0xa2>
{
 8003b8c:	b510      	push	{r4, lr}
  assert_param(IS_I2C_OWN_ADDRESS2(hi2c->Init.OwnAddress2));
  assert_param(IS_I2C_OWN_ADDRESS2_MASK(hi2c->Init.OwnAddress2Masks));
  assert_param(IS_I2C_GENERAL_CALL(hi2c->Init.GeneralCallMode));
  assert_param(IS_I2C_NO_STRETCH(hi2c->Init.NoStretchMode));

  if (hi2c->State == HAL_I2C_STATE_RESET)
 8003b8e:	f890 3041 	ldrb.w	r3, [r0, #65]	@ 0x41
 8003b92:	4604      	mov	r4, r0
 8003b94:	f003 02ff 	and.w	r2, r3, #255	@ 0xff
 8003b98:	2b00      	cmp	r3, #0
 8003b9a:	d041      	beq.n	8003c20 <HAL_I2C_Init+0x98>
  }

  hi2c->State = HAL_I2C_STATE_BUSY;

  /* Disable the selected I2C peripheral */
  __HAL_I2C_DISABLE(hi2c);
 8003b9c:	6823      	ldr	r3, [r4, #0]
  hi2c->State = HAL_I2C_STATE_BUSY;
 8003b9e:	2124      	movs	r1, #36	@ 0x24

  /*---------------------------- I2Cx TIMINGR Configuration ------------------*/
  /* Configure I2Cx: Frequency range */
  hi2c->Instance->TIMINGR = hi2c->Init.Timing & TIMING_CLEAR_MASK;
 8003ba0:	6862      	ldr	r2, [r4, #4]
  hi2c->State = HAL_I2C_STATE_BUSY;
 8003ba2:	f884 1041 	strb.w	r1, [r4, #65]	@ 0x41
  __HAL_I2C_DISABLE(hi2c);
 8003ba6:	6819      	ldr	r1, [r3, #0]
  hi2c->Instance->TIMINGR = hi2c->Init.Timing & TIMING_CLEAR_MASK;
 8003ba8:	f022 6270 	bic.w	r2, r2, #251658240	@ 0xf000000
  /*---------------------------- I2Cx OAR1 Configuration ---------------------*/
  /* Disable Own Address1 before set the Own Address1 configuration */
  hi2c->Instance->OAR1 &= ~I2C_OAR1_OA1EN;

  /* Configure I2Cx: Own Address1 and ack own address1 mode */
  if (hi2c->Init.AddressingMode == I2C_ADDRESSINGMODE_7BIT)
 8003bac:	68e0      	ldr	r0, [r4, #12]
  __HAL_I2C_DISABLE(hi2c);
 8003bae:	f021 0101 	bic.w	r1, r1, #1
  if (hi2c->Init.AddressingMode == I2C_ADDRESSINGMODE_7BIT)
 8003bb2:	2801      	cmp	r0, #1
  __HAL_I2C_DISABLE(hi2c);
 8003bb4:	6019      	str	r1, [r3, #0]
  hi2c->Instance->TIMINGR = hi2c->Init.Timing & TIMING_CLEAR_MASK;
 8003bb6:	611a      	str	r2, [r3, #16]
  hi2c->Instance->OAR1 &= ~I2C_OAR1_OA1EN;
 8003bb8:	689a      	ldr	r2, [r3, #8]
  {
    hi2c->Instance->OAR1 = (I2C_OAR1_OA1EN | hi2c->Init.OwnAddress1);
 8003bba:	68a1      	ldr	r1, [r4, #8]
  hi2c->Instance->OAR1 &= ~I2C_OAR1_OA1EN;
 8003bbc:	f422 4200 	bic.w	r2, r2, #32768	@ 0x8000
 8003bc0:	609a      	str	r2, [r3, #8]
  if (hi2c->Init.AddressingMode == I2C_ADDRESSINGMODE_7BIT)
 8003bc2:	d029      	beq.n	8003c18 <HAL_I2C_Init+0x90>
  }
  else /* I2C_ADDRESSINGMODE_10BIT */
  {
    hi2c->Instance->OAR1 = (I2C_OAR1_OA1EN | I2C_OAR1_OA1MODE | hi2c->Init.OwnAddress1);
 8003bc4:	f441 4104 	orr.w	r1, r1, #33792	@ 0x8400
  }

  /*---------------------------- I2Cx CR2 Configuration ----------------------*/
  /* Configure I2Cx: Addressing Master mode */
  if (hi2c->Init.AddressingMode == I2C_ADDRESSINGMODE_10BIT)
 8003bc8:	2802      	cmp	r0, #2
    hi2c->Instance->OAR1 = (I2C_OAR1_OA1EN | I2C_OAR1_OA1MODE | hi2c->Init.OwnAddress1);
 8003bca:	6099      	str	r1, [r3, #8]
  if (hi2c->Init.AddressingMode == I2C_ADDRESSINGMODE_10BIT)
 8003bcc:	d102      	bne.n	8003bd4 <HAL_I2C_Init+0x4c>
  {
    hi2c->Instance->CR2 = (I2C_CR2_ADD10);
 8003bce:	f44f 6200 	mov.w	r2, #2048	@ 0x800
 8003bd2:	605a      	str	r2, [r3, #4]
  }
  /* Enable the AUTOEND by default, and enable NACK (should be disable only during Slave process */
  hi2c->Instance->CR2 |= (I2C_CR2_AUTOEND | I2C_CR2_NACK);
 8003bd4:	6858      	ldr	r0, [r3, #4]

  /* Enable the selected I2C peripheral */
  __HAL_I2C_ENABLE(hi2c);

  hi2c->ErrorCode = HAL_I2C_ERROR_NONE;
  hi2c->State = HAL_I2C_STATE_READY;
 8003bd6:	f04f 0c20 	mov.w	ip, #32
  hi2c->Instance->CR2 |= (I2C_CR2_AUTOEND | I2C_CR2_NACK);
 8003bda:	4915      	ldr	r1, [pc, #84]	@ (8003c30 <HAL_I2C_Init+0xa8>)
  hi2c->Instance->OAR2 = (hi2c->Init.DualAddressMode | hi2c->Init.OwnAddress2 | \
 8003bdc:	6922      	ldr	r2, [r4, #16]
  hi2c->Instance->CR2 |= (I2C_CR2_AUTOEND | I2C_CR2_NACK);
 8003bde:	4301      	orrs	r1, r0
 8003be0:	6059      	str	r1, [r3, #4]
  hi2c->Instance->OAR2 &= ~I2C_DUALADDRESS_ENABLE;
 8003be2:	68d9      	ldr	r1, [r3, #12]
 8003be4:	f421 4100 	bic.w	r1, r1, #32768	@ 0x8000
 8003be8:	60d9      	str	r1, [r3, #12]
                          (hi2c->Init.OwnAddress2Masks << 8));
 8003bea:	e9d4 0105 	ldrd	r0, r1, [r4, #20]
  hi2c->Instance->OAR2 = (hi2c->Init.DualAddressMode | hi2c->Init.OwnAddress2 | \
 8003bee:	4302      	orrs	r2, r0
 8003bf0:	ea42 2201 	orr.w	r2, r2, r1, lsl #8
  hi2c->Instance->CR1 = (hi2c->Init.GeneralCallMode | hi2c->Init.NoStretchMode);
 8003bf4:	e9d4 1007 	ldrd	r1, r0, [r4, #28]
  hi2c->Instance->OAR2 = (hi2c->Init.DualAddressMode | hi2c->Init.OwnAddress2 | \
 8003bf8:	60da      	str	r2, [r3, #12]
  hi2c->ErrorCode = HAL_I2C_ERROR_NONE;
 8003bfa:	2200      	movs	r2, #0
  hi2c->Instance->CR1 = (hi2c->Init.GeneralCallMode | hi2c->Init.NoStretchMode);
 8003bfc:	4301      	orrs	r1, r0
  hi2c->PreviousState = I2C_STATE_NONE;
  hi2c->Mode = HAL_I2C_MODE_NONE;

  return HAL_OK;
 8003bfe:	4610      	mov	r0, r2
  hi2c->Instance->CR1 = (hi2c->Init.GeneralCallMode | hi2c->Init.NoStretchMode);
 8003c00:	6019      	str	r1, [r3, #0]
  __HAL_I2C_ENABLE(hi2c);
 8003c02:	6819      	ldr	r1, [r3, #0]
 8003c04:	f041 0101 	orr.w	r1, r1, #1
 8003c08:	6019      	str	r1, [r3, #0]
  hi2c->ErrorCode = HAL_I2C_ERROR_NONE;
 8003c0a:	6462      	str	r2, [r4, #68]	@ 0x44
  hi2c->State = HAL_I2C_STATE_READY;
 8003c0c:	f884 c041 	strb.w	ip, [r4, #65]	@ 0x41
  hi2c->PreviousState = I2C_STATE_NONE;
 8003c10:	6322      	str	r2, [r4, #48]	@ 0x30
  hi2c->Mode = HAL_I2C_MODE_NONE;
 8003c12:	f884 2042 	strb.w	r2, [r4, #66]	@ 0x42
}
 8003c16:	bd10      	pop	{r4, pc}
    hi2c->Instance->OAR1 = (I2C_OAR1_OA1EN | hi2c->Init.OwnAddress1);
 8003c18:	f441 4100 	orr.w	r1, r1, #32768	@ 0x8000
 8003c1c:	6099      	str	r1, [r3, #8]
  if (hi2c->Init.AddressingMode == I2C_ADDRESSINGMODE_10BIT)
 8003c1e:	e7d9      	b.n	8003bd4 <HAL_I2C_Init+0x4c>
    hi2c->Lock = HAL_UNLOCKED;
 8003c20:	f880 2040 	strb.w	r2, [r0, #64]	@ 0x40
    HAL_I2C_MspInit(hi2c);
 8003c24:	f7fe f91c 	bl	8001e60 <HAL_I2C_MspInit>
 8003c28:	e7b8      	b.n	8003b9c <HAL_I2C_Init+0x14>
    return HAL_ERROR;
 8003c2a:	2001      	movs	r0, #1
}
 8003c2c:	4770      	bx	lr
 8003c2e:	bf00      	nop
 8003c30:	02008000 	.word	0x02008000

08003c34 <HAL_I2CEx_ConfigAnalogFilter>:
{
  /* Check the parameters */
  assert_param(IS_I2C_ALL_INSTANCE(hi2c->Instance));
  assert_param(IS_I2C_ANALOG_FILTER(AnalogFilter));

  if (hi2c->State == HAL_I2C_STATE_READY)
 8003c34:	f890 2041 	ldrb.w	r2, [r0, #65]	@ 0x41
 8003c38:	2a20      	cmp	r2, #32
 8003c3a:	d123      	bne.n	8003c84 <HAL_I2CEx_ConfigAnalogFilter+0x50>
 8003c3c:	fa5f fc82 	uxtb.w	ip, r2
  {
    /* Process Locked */
    __HAL_LOCK(hi2c);
 8003c40:	f890 2040 	ldrb.w	r2, [r0, #64]	@ 0x40
 8003c44:	4603      	mov	r3, r0
 8003c46:	2a01      	cmp	r2, #1
 8003c48:	d01c      	beq.n	8003c84 <HAL_I2CEx_ConfigAnalogFilter+0x50>

    hi2c->State = HAL_I2C_STATE_BUSY;

    /* Disable the selected I2C peripheral */
    __HAL_I2C_DISABLE(hi2c);
 8003c4a:	6802      	ldr	r2, [r0, #0]
    hi2c->State = HAL_I2C_STATE_BUSY;
 8003c4c:	2024      	movs	r0, #36	@ 0x24
{
 8003c4e:	b500      	push	{lr}
    hi2c->State = HAL_I2C_STATE_BUSY;
 8003c50:	f883 0041 	strb.w	r0, [r3, #65]	@ 0x41
    __HAL_I2C_ENABLE(hi2c);

    hi2c->State = HAL_I2C_STATE_READY;

    /* Process Unlocked */
    __HAL_UNLOCK(hi2c);
 8003c54:	f04f 0e00 	mov.w	lr, #0
    __HAL_I2C_DISABLE(hi2c);
 8003c58:	6810      	ldr	r0, [r2, #0]
 8003c5a:	f020 0001 	bic.w	r0, r0, #1
 8003c5e:	6010      	str	r0, [r2, #0]
    hi2c->Instance->CR1 &= ~(I2C_CR1_ANFOFF);
 8003c60:	6810      	ldr	r0, [r2, #0]
 8003c62:	f420 5080 	bic.w	r0, r0, #4096	@ 0x1000
 8003c66:	6010      	str	r0, [r2, #0]
    hi2c->Instance->CR1 |= AnalogFilter;
 8003c68:	6810      	ldr	r0, [r2, #0]
 8003c6a:	4301      	orrs	r1, r0

    return HAL_OK;
 8003c6c:	4670      	mov	r0, lr
    hi2c->Instance->CR1 |= AnalogFilter;
 8003c6e:	6011      	str	r1, [r2, #0]
    __HAL_I2C_ENABLE(hi2c);
 8003c70:	6811      	ldr	r1, [r2, #0]
 8003c72:	f041 0101 	orr.w	r1, r1, #1
 8003c76:	6011      	str	r1, [r2, #0]
    hi2c->State = HAL_I2C_STATE_READY;
 8003c78:	f883 c041 	strb.w	ip, [r3, #65]	@ 0x41
    __HAL_UNLOCK(hi2c);
 8003c7c:	f883 e040 	strb.w	lr, [r3, #64]	@ 0x40
  }
  else
  {
    return HAL_BUSY;
  }
}
 8003c80:	f85d fb04 	ldr.w	pc, [sp], #4
    __HAL_LOCK(hi2c);
 8003c84:	2002      	movs	r0, #2
}
 8003c86:	4770      	bx	lr

08003c88 <HAL_I2CEx_ConfigDigitalFilter>:

  /* Check the parameters */
  assert_param(IS_I2C_ALL_INSTANCE(hi2c->Instance));
  assert_param(IS_I2C_DIGITAL_FILTER(DigitalFilter));

  if (hi2c->State == HAL_I2C_STATE_READY)
 8003c88:	f890 2041 	ldrb.w	r2, [r0, #65]	@ 0x41
 8003c8c:	2a20      	cmp	r2, #32
 8003c8e:	d122      	bne.n	8003cd6 <HAL_I2CEx_ConfigDigitalFilter+0x4e>
 8003c90:	4603      	mov	r3, r0
{
 8003c92:	b500      	push	{lr}
 8003c94:	fa5f fe82 	uxtb.w	lr, r2
  {
    /* Process Locked */
    __HAL_LOCK(hi2c);
 8003c98:	f890 2040 	ldrb.w	r2, [r0, #64]	@ 0x40
 8003c9c:	2a01      	cmp	r2, #1
 8003c9e:	d01c      	beq.n	8003cda <HAL_I2CEx_ConfigDigitalFilter+0x52>

    hi2c->State = HAL_I2C_STATE_BUSY;

    /* Disable the selected I2C peripheral */
    __HAL_I2C_DISABLE(hi2c);
 8003ca0:	6802      	ldr	r2, [r0, #0]
    hi2c->State = HAL_I2C_STATE_BUSY;
 8003ca2:	2024      	movs	r0, #36	@ 0x24
    __HAL_I2C_ENABLE(hi2c);

    hi2c->State = HAL_I2C_STATE_READY;

    /* Process Unlocked */
    __HAL_UNLOCK(hi2c);
 8003ca4:	f04f 0c00 	mov.w	ip, #0
    hi2c->State = HAL_I2C_STATE_BUSY;
 8003ca8:	f883 0041 	strb.w	r0, [r3, #65]	@ 0x41
    __HAL_I2C_DISABLE(hi2c);
 8003cac:	6810      	ldr	r0, [r2, #0]
 8003cae:	f020 0001 	bic.w	r0, r0, #1
 8003cb2:	6010      	str	r0, [r2, #0]
    tmpreg = hi2c->Instance->CR1;
 8003cb4:	6810      	ldr	r0, [r2, #0]
    tmpreg &= ~(I2C_CR1_DNF);
 8003cb6:	f420 6070 	bic.w	r0, r0, #3840	@ 0xf00
    tmpreg |= DigitalFilter << 8U;
 8003cba:	ea40 2101 	orr.w	r1, r0, r1, lsl #8

    return HAL_OK;
 8003cbe:	4660      	mov	r0, ip
    hi2c->Instance->CR1 = tmpreg;
 8003cc0:	6011      	str	r1, [r2, #0]
    __HAL_I2C_ENABLE(hi2c);
 8003cc2:	6811      	ldr	r1, [r2, #0]
 8003cc4:	f041 0101 	orr.w	r1, r1, #1
 8003cc8:	6011      	str	r1, [r2, #0]
    hi2c->State = HAL_I2C_STATE_READY;
 8003cca:	f883 e041 	strb.w	lr, [r3, #65]	@ 0x41
    __HAL_UNLOCK(hi2c);
 8003cce:	f883 c040 	strb.w	ip, [r3, #64]	@ 0x40
  }
  else
  {
    return HAL_BUSY;
  }
}
 8003cd2:	f85d fb04 	ldr.w	pc, [sp], #4
    __HAL_LOCK(hi2c);
 8003cd6:	2002      	movs	r0, #2
}
 8003cd8:	4770      	bx	lr
    __HAL_LOCK(hi2c);
 8003cda:	2002      	movs	r0, #2
}
 8003cdc:	f85d fb04 	ldr.w	pc, [sp], #4

08003ce0 <HAL_PWREx_EnableOverDrive>:
  */
HAL_StatusTypeDef HAL_PWREx_EnableOverDrive(void)
{
  uint32_t tickstart = 0;

  __HAL_RCC_PWR_CLK_ENABLE();
 8003ce0:	4b1a      	ldr	r3, [pc, #104]	@ (8003d4c <HAL_PWREx_EnableOverDrive+0x6c>)
 8003ce2:	6c1a      	ldr	r2, [r3, #64]	@ 0x40
 8003ce4:	f042 5280 	orr.w	r2, r2, #268435456	@ 0x10000000
{
 8003ce8:	b530      	push	{r4, r5, lr}
  __HAL_RCC_PWR_CLK_ENABLE();
 8003cea:	641a      	str	r2, [r3, #64]	@ 0x40
{
 8003cec:	b083      	sub	sp, #12
  __HAL_RCC_PWR_CLK_ENABLE();
 8003cee:	6c1b      	ldr	r3, [r3, #64]	@ 0x40
  
  /* Enable the Over-drive to extend the clock frequency to 216 MHz */
  __HAL_PWR_OVERDRIVE_ENABLE();
 8003cf0:	4c17      	ldr	r4, [pc, #92]	@ (8003d50 <HAL_PWREx_EnableOverDrive+0x70>)
  __HAL_RCC_PWR_CLK_ENABLE();
 8003cf2:	f003 5380 	and.w	r3, r3, #268435456	@ 0x10000000
 8003cf6:	9301      	str	r3, [sp, #4]
 8003cf8:	9b01      	ldr	r3, [sp, #4]
  __HAL_PWR_OVERDRIVE_ENABLE();
 8003cfa:	6823      	ldr	r3, [r4, #0]
 8003cfc:	f443 3380 	orr.w	r3, r3, #65536	@ 0x10000
 8003d00:	6023      	str	r3, [r4, #0]

  /* Get tick */
  tickstart = HAL_GetTick();
 8003d02:	f7fe fde5 	bl	80028d0 <HAL_GetTick>
 8003d06:	4605      	mov	r5, r0

  while(!__HAL_PWR_GET_FLAG(PWR_FLAG_ODRDY))
 8003d08:	e005      	b.n	8003d16 <HAL_PWREx_EnableOverDrive+0x36>
  {
    if((HAL_GetTick() - tickstart ) > PWR_OVERDRIVE_TIMEOUT_VALUE)
 8003d0a:	f7fe fde1 	bl	80028d0 <HAL_GetTick>
 8003d0e:	1b40      	subs	r0, r0, r5
 8003d10:	f5b0 7f7a 	cmp.w	r0, #1000	@ 0x3e8
 8003d14:	d817      	bhi.n	8003d46 <HAL_PWREx_EnableOverDrive+0x66>
  while(!__HAL_PWR_GET_FLAG(PWR_FLAG_ODRDY))
 8003d16:	6863      	ldr	r3, [r4, #4]
 8003d18:	03da      	lsls	r2, r3, #15
 8003d1a:	d5f6      	bpl.n	8003d0a <HAL_PWREx_EnableOverDrive+0x2a>
      return HAL_TIMEOUT;
    }
  }
  
  /* Enable the Over-drive switch */
  __HAL_PWR_OVERDRIVESWITCHING_ENABLE();
 8003d1c:	6823      	ldr	r3, [r4, #0]

  /* Get tick */
  tickstart = HAL_GetTick();

  while(!__HAL_PWR_GET_FLAG(PWR_FLAG_ODSWRDY))
 8003d1e:	4d0c      	ldr	r5, [pc, #48]	@ (8003d50 <HAL_PWREx_EnableOverDrive+0x70>)
  __HAL_PWR_OVERDRIVESWITCHING_ENABLE();
 8003d20:	f443 3300 	orr.w	r3, r3, #131072	@ 0x20000
 8003d24:	6023      	str	r3, [r4, #0]
  tickstart = HAL_GetTick();
 8003d26:	f7fe fdd3 	bl	80028d0 <HAL_GetTick>
 8003d2a:	4604      	mov	r4, r0
  while(!__HAL_PWR_GET_FLAG(PWR_FLAG_ODSWRDY))
 8003d2c:	e005      	b.n	8003d3a <HAL_PWREx_EnableOverDrive+0x5a>
  {
    if((HAL_GetTick() - tickstart ) > PWR_OVERDRIVE_TIMEOUT_VALUE)
 8003d2e:	f7fe fdcf 	bl	80028d0 <HAL_GetTick>
 8003d32:	1b00      	subs	r0, r0, r4
 8003d34:	f5b0 7f7a 	cmp.w	r0, #1000	@ 0x3e8
 8003d38:	d805      	bhi.n	8003d46 <HAL_PWREx_EnableOverDrive+0x66>
  while(!__HAL_PWR_GET_FLAG(PWR_FLAG_ODSWRDY))
 8003d3a:	686b      	ldr	r3, [r5, #4]
 8003d3c:	039b      	lsls	r3, r3, #14
 8003d3e:	d5f6      	bpl.n	8003d2e <HAL_PWREx_EnableOverDrive+0x4e>
    {
      return HAL_TIMEOUT;
    }
  } 
  return HAL_OK;
 8003d40:	2000      	movs	r0, #0
}
 8003d42:	b003      	add	sp, #12
 8003d44:	bd30      	pop	{r4, r5, pc}
      return HAL_TIMEOUT;
 8003d46:	2003      	movs	r0, #3
}
 8003d48:	b003      	add	sp, #12
 8003d4a:	bd30      	pop	{r4, r5, pc}
 8003d4c:	40023800 	.word	0x40023800
 8003d50:	40007000 	.word	0x40007000

08003d54 <HAL_RCC_OscConfig>:
  uint32_t tickstart;
  uint32_t pll_config;
  FlagStatus pwrclkchanged = RESET;

  /* Check Null pointer */
  if (RCC_OscInitStruct == NULL)
 8003d54:	2800      	cmp	r0, #0
 8003d56:	f000 81bd 	beq.w	80040d4 <HAL_RCC_OscConfig+0x380>

  /* Check the parameters */
  assert_param(IS_RCC_OSCILLATORTYPE(RCC_OscInitStruct->OscillatorType));

  /*------------------------------- HSE Configuration ------------------------*/
  if (((RCC_OscInitStruct->OscillatorType) & RCC_OSCILLATORTYPE_HSE) == RCC_OSCILLATORTYPE_HSE)
 8003d5a:	6803      	ldr	r3, [r0, #0]
{
 8003d5c:	e92d 41f0 	stmdb	sp!, {r4, r5, r6, r7, r8, lr}
  if (((RCC_OscInitStruct->OscillatorType) & RCC_OSCILLATORTYPE_HSE) == RCC_OSCILLATORTYPE_HSE)
 8003d60:	07dd      	lsls	r5, r3, #31
{
 8003d62:	b082      	sub	sp, #8
 8003d64:	4604      	mov	r4, r0
  if (((RCC_OscInitStruct->OscillatorType) & RCC_OSCILLATORTYPE_HSE) == RCC_OSCILLATORTYPE_HSE)
 8003d66:	d535      	bpl.n	8003dd4 <HAL_RCC_OscConfig+0x80>
  {
    /* Check the parameters */
    assert_param(IS_RCC_HSE(RCC_OscInitStruct->HSEState));
    /* When the HSE is used as system clock or clock source for PLL, It can not be disabled */
    if ((__HAL_RCC_GET_SYSCLK_SOURCE() == RCC_SYSCLKSOURCE_STATUS_HSE)
 8003d68:	499a      	ldr	r1, [pc, #616]	@ (8003fd4 <HAL_RCC_OscConfig+0x280>)
 8003d6a:	688a      	ldr	r2, [r1, #8]
 8003d6c:	f002 020c 	and.w	r2, r2, #12
 8003d70:	2a04      	cmp	r2, #4
 8003d72:	f000 80e0 	beq.w	8003f36 <HAL_RCC_OscConfig+0x1e2>
        || ((__HAL_RCC_GET_SYSCLK_SOURCE() == RCC_SYSCLKSOURCE_STATUS_PLLCLK) && ((RCC->PLLCFGR & RCC_PLLCFGR_PLLSRC) == RCC_PLLCFGR_PLLSRC_HSE)))
 8003d76:	688a      	ldr	r2, [r1, #8]
 8003d78:	f002 020c 	and.w	r2, r2, #12
 8003d7c:	2a08      	cmp	r2, #8
 8003d7e:	f000 80d6 	beq.w	8003f2e <HAL_RCC_OscConfig+0x1da>
      }
    }
    else
    {
      /* Set the new HSE configuration ---------------------------------------*/
      __HAL_RCC_HSE_CONFIG(RCC_OscInitStruct->HSEState);
 8003d82:	6863      	ldr	r3, [r4, #4]
 8003d84:	f5b3 3f80 	cmp.w	r3, #65536	@ 0x10000
 8003d88:	d010      	beq.n	8003dac <HAL_RCC_OscConfig+0x58>
 8003d8a:	2b00      	cmp	r3, #0
 8003d8c:	f000 80fd 	beq.w	8003f8a <HAL_RCC_OscConfig+0x236>
 8003d90:	f5b3 2fa0 	cmp.w	r3, #327680	@ 0x50000
 8003d94:	4b8f      	ldr	r3, [pc, #572]	@ (8003fd4 <HAL_RCC_OscConfig+0x280>)
 8003d96:	681a      	ldr	r2, [r3, #0]
 8003d98:	f000 818c 	beq.w	80040b4 <HAL_RCC_OscConfig+0x360>
 8003d9c:	f422 3280 	bic.w	r2, r2, #65536	@ 0x10000
 8003da0:	601a      	str	r2, [r3, #0]
 8003da2:	681a      	ldr	r2, [r3, #0]
 8003da4:	f422 2280 	bic.w	r2, r2, #262144	@ 0x40000
 8003da8:	601a      	str	r2, [r3, #0]

      /* Check the HSE State */
      if (RCC_OscInitStruct->HSEState != RCC_HSE_OFF)
 8003daa:	e004      	b.n	8003db6 <HAL_RCC_OscConfig+0x62>
      __HAL_RCC_HSE_CONFIG(RCC_OscInitStruct->HSEState);
 8003dac:	4a89      	ldr	r2, [pc, #548]	@ (8003fd4 <HAL_RCC_OscConfig+0x280>)
 8003dae:	6813      	ldr	r3, [r2, #0]
 8003db0:	f443 3380 	orr.w	r3, r3, #65536	@ 0x10000
 8003db4:	6013      	str	r3, [r2, #0]
      {
        /* Get Start Tick*/
        tickstart = HAL_GetTick();
 8003db6:	f7fe fd8b 	bl	80028d0 <HAL_GetTick>

        /* Wait till HSE is ready */
        while (__HAL_RCC_GET_FLAG(RCC_FLAG_HSERDY) == RESET)
 8003dba:	4e86      	ldr	r6, [pc, #536]	@ (8003fd4 <HAL_RCC_OscConfig+0x280>)
        tickstart = HAL_GetTick();
 8003dbc:	4605      	mov	r5, r0
        while (__HAL_RCC_GET_FLAG(RCC_FLAG_HSERDY) == RESET)
 8003dbe:	e005      	b.n	8003dcc <HAL_RCC_OscConfig+0x78>
        {
          if ((HAL_GetTick() - tickstart) > HSE_TIMEOUT_VALUE)
 8003dc0:	f7fe fd86 	bl	80028d0 <HAL_GetTick>
 8003dc4:	1b40      	subs	r0, r0, r5
 8003dc6:	2864      	cmp	r0, #100	@ 0x64
 8003dc8:	f200 80db 	bhi.w	8003f82 <HAL_RCC_OscConfig+0x22e>
        while (__HAL_RCC_GET_FLAG(RCC_FLAG_HSERDY) == RESET)
 8003dcc:	6833      	ldr	r3, [r6, #0]
 8003dce:	039b      	lsls	r3, r3, #14
 8003dd0:	d5f6      	bpl.n	8003dc0 <HAL_RCC_OscConfig+0x6c>
        }
      }
    }
  }
  /*----------------------------- HSI Configuration --------------------------*/
  if (((RCC_OscInitStruct->OscillatorType) & RCC_OSCILLATORTYPE_HSI) == RCC_OSCILLATORTYPE_HSI)
 8003dd2:	6823      	ldr	r3, [r4, #0]
 8003dd4:	079d      	lsls	r5, r3, #30
 8003dd6:	d527      	bpl.n	8003e28 <HAL_RCC_OscConfig+0xd4>
    /* Check the parameters */
    assert_param(IS_RCC_HSI(RCC_OscInitStruct->HSIState));
    assert_param(IS_RCC_CALIBRATION_VALUE(RCC_OscInitStruct->HSICalibrationValue));

    /* Check if HSI is used as system clock or as PLL source when PLL is selected as system clock */
    if ((__HAL_RCC_GET_SYSCLK_SOURCE() == RCC_SYSCLKSOURCE_STATUS_HSI)
 8003dd8:	4a7e      	ldr	r2, [pc, #504]	@ (8003fd4 <HAL_RCC_OscConfig+0x280>)
 8003dda:	6891      	ldr	r1, [r2, #8]
 8003ddc:	f011 0f0c 	tst.w	r1, #12
 8003de0:	d07e      	beq.n	8003ee0 <HAL_RCC_OscConfig+0x18c>
        || ((__HAL_RCC_GET_SYSCLK_SOURCE() == RCC_SYSCLKSOURCE_STATUS_PLLCLK) && ((RCC->PLLCFGR & RCC_PLLCFGR_PLLSRC) == RCC_PLLCFGR_PLLSRC_HSI)))
 8003de2:	6891      	ldr	r1, [r2, #8]
 8003de4:	f001 010c 	and.w	r1, r1, #12
 8003de8:	2908      	cmp	r1, #8
 8003dea:	d076      	beq.n	8003eda <HAL_RCC_OscConfig+0x186>
      }
    }
    else
    {
      /* Check the HSI State */
      if ((RCC_OscInitStruct->HSIState) != RCC_HSI_OFF)
 8003dec:	68e3      	ldr	r3, [r4, #12]
      {
        /* Enable the Internal High Speed oscillator (HSI). */
        __HAL_RCC_HSI_ENABLE();
 8003dee:	4d79      	ldr	r5, [pc, #484]	@ (8003fd4 <HAL_RCC_OscConfig+0x280>)
      if ((RCC_OscInitStruct->HSIState) != RCC_HSI_OFF)
 8003df0:	2b00      	cmp	r3, #0
 8003df2:	f000 8104 	beq.w	8003ffe <HAL_RCC_OscConfig+0x2aa>
        __HAL_RCC_HSI_ENABLE();
 8003df6:	682b      	ldr	r3, [r5, #0]
 8003df8:	f043 0301 	orr.w	r3, r3, #1
 8003dfc:	602b      	str	r3, [r5, #0]

        /* Get Start Tick*/
        tickstart = HAL_GetTick();
 8003dfe:	f7fe fd67 	bl	80028d0 <HAL_GetTick>
 8003e02:	4606      	mov	r6, r0

        /* Wait till HSI is ready */
        while (__HAL_RCC_GET_FLAG(RCC_FLAG_HSIRDY) == RESET)
 8003e04:	e005      	b.n	8003e12 <HAL_RCC_OscConfig+0xbe>
        {
          if ((HAL_GetTick() - tickstart) > HSI_TIMEOUT_VALUE)
 8003e06:	f7fe fd63 	bl	80028d0 <HAL_GetTick>
 8003e0a:	1b80      	subs	r0, r0, r6
 8003e0c:	2802      	cmp	r0, #2
 8003e0e:	f200 80b8 	bhi.w	8003f82 <HAL_RCC_OscConfig+0x22e>
        while (__HAL_RCC_GET_FLAG(RCC_FLAG_HSIRDY) == RESET)
 8003e12:	682b      	ldr	r3, [r5, #0]
 8003e14:	079f      	lsls	r7, r3, #30
 8003e16:	d5f6      	bpl.n	8003e06 <HAL_RCC_OscConfig+0xb2>
            return HAL_TIMEOUT;
          }
        }

        /* Adjusts the Internal High Speed oscillator (HSI) calibration value.*/
        __HAL_RCC_HSI_CALIBRATIONVALUE_ADJUST(RCC_OscInitStruct->HSICalibrationValue);
 8003e18:	682b      	ldr	r3, [r5, #0]
 8003e1a:	6922      	ldr	r2, [r4, #16]
 8003e1c:	f023 03f8 	bic.w	r3, r3, #248	@ 0xf8
 8003e20:	ea43 03c2 	orr.w	r3, r3, r2, lsl #3
 8003e24:	602b      	str	r3, [r5, #0]
        }
      }
    }
  }
  /*------------------------------ LSI Configuration -------------------------*/
  if (((RCC_OscInitStruct->OscillatorType) & RCC_OSCILLATORTYPE_LSI) == RCC_OSCILLATORTYPE_LSI)
 8003e26:	6823      	ldr	r3, [r4, #0]
 8003e28:	071a      	lsls	r2, r3, #28
 8003e2a:	d41f      	bmi.n	8003e6c <HAL_RCC_OscConfig+0x118>
        }
      }
    }
  }
  /*------------------------------ LSE Configuration -------------------------*/
  if (((RCC_OscInitStruct->OscillatorType) & RCC_OSCILLATORTYPE_LSE) == RCC_OSCILLATORTYPE_LSE)
 8003e2c:	075e      	lsls	r6, r3, #29
 8003e2e:	d534      	bpl.n	8003e9a <HAL_RCC_OscConfig+0x146>
    /* Check the parameters */
    assert_param(IS_RCC_LSE(RCC_OscInitStruct->LSEState));

    /* Update LSE configuration in Backup Domain control register    */
    /* Requires to enable write access to Backup Domain of necessary */
    if (__HAL_RCC_PWR_IS_CLK_DISABLED())
 8003e30:	4b68      	ldr	r3, [pc, #416]	@ (8003fd4 <HAL_RCC_OscConfig+0x280>)
 8003e32:	6c1a      	ldr	r2, [r3, #64]	@ 0x40
 8003e34:	00d5      	lsls	r5, r2, #3
 8003e36:	d56f      	bpl.n	8003f18 <HAL_RCC_OscConfig+0x1c4>
  FlagStatus pwrclkchanged = RESET;
 8003e38:	2500      	movs	r5, #0
      /* Enable Power Clock*/
      __HAL_RCC_PWR_CLK_ENABLE();
      pwrclkchanged = SET;
    }

    if (HAL_IS_BIT_CLR(PWR->CR1, PWR_CR1_DBP))
 8003e3a:	4e67      	ldr	r6, [pc, #412]	@ (8003fd8 <HAL_RCC_OscConfig+0x284>)
 8003e3c:	6833      	ldr	r3, [r6, #0]
 8003e3e:	05d8      	lsls	r0, r3, #23
 8003e40:	f140 808f 	bpl.w	8003f62 <HAL_RCC_OscConfig+0x20e>
        }
      }
    }

    /* Set the new LSE configuration -----------------------------------------*/
    __HAL_RCC_LSE_CONFIG(RCC_OscInitStruct->LSEState);
 8003e44:	68a3      	ldr	r3, [r4, #8]
 8003e46:	2b01      	cmp	r3, #1
 8003e48:	f000 80eb 	beq.w	8004022 <HAL_RCC_OscConfig+0x2ce>
 8003e4c:	2b00      	cmp	r3, #0
 8003e4e:	f000 80b2 	beq.w	8003fb6 <HAL_RCC_OscConfig+0x262>
 8003e52:	2b05      	cmp	r3, #5
 8003e54:	4b5f      	ldr	r3, [pc, #380]	@ (8003fd4 <HAL_RCC_OscConfig+0x280>)
 8003e56:	6f1a      	ldr	r2, [r3, #112]	@ 0x70
 8003e58:	f000 8134 	beq.w	80040c4 <HAL_RCC_OscConfig+0x370>
 8003e5c:	f022 0201 	bic.w	r2, r2, #1
 8003e60:	671a      	str	r2, [r3, #112]	@ 0x70
 8003e62:	6f1a      	ldr	r2, [r3, #112]	@ 0x70
 8003e64:	f022 0204 	bic.w	r2, r2, #4
 8003e68:	671a      	str	r2, [r3, #112]	@ 0x70
    /* Check the LSE State */
    if ((RCC_OscInitStruct->LSEState) != RCC_LSE_OFF)
 8003e6a:	e0df      	b.n	800402c <HAL_RCC_OscConfig+0x2d8>
    if ((RCC_OscInitStruct->LSIState) != RCC_LSI_OFF)
 8003e6c:	6963      	ldr	r3, [r4, #20]
      __HAL_RCC_LSI_ENABLE();
 8003e6e:	4d59      	ldr	r5, [pc, #356]	@ (8003fd4 <HAL_RCC_OscConfig+0x280>)
    if ((RCC_OscInitStruct->LSIState) != RCC_LSI_OFF)
 8003e70:	2b00      	cmp	r3, #0
 8003e72:	d040      	beq.n	8003ef6 <HAL_RCC_OscConfig+0x1a2>
      __HAL_RCC_LSI_ENABLE();
 8003e74:	6f6b      	ldr	r3, [r5, #116]	@ 0x74
 8003e76:	f043 0301 	orr.w	r3, r3, #1
 8003e7a:	676b      	str	r3, [r5, #116]	@ 0x74
      tickstart = HAL_GetTick();
 8003e7c:	f7fe fd28 	bl	80028d0 <HAL_GetTick>
 8003e80:	4606      	mov	r6, r0
      while (__HAL_RCC_GET_FLAG(RCC_FLAG_LSIRDY) == RESET)
 8003e82:	e004      	b.n	8003e8e <HAL_RCC_OscConfig+0x13a>
        if ((HAL_GetTick() - tickstart) > LSI_TIMEOUT_VALUE)
 8003e84:	f7fe fd24 	bl	80028d0 <HAL_GetTick>
 8003e88:	1b80      	subs	r0, r0, r6
 8003e8a:	2802      	cmp	r0, #2
 8003e8c:	d879      	bhi.n	8003f82 <HAL_RCC_OscConfig+0x22e>
      while (__HAL_RCC_GET_FLAG(RCC_FLAG_LSIRDY) == RESET)
 8003e8e:	6f6b      	ldr	r3, [r5, #116]	@ 0x74
 8003e90:	079b      	lsls	r3, r3, #30
 8003e92:	d5f7      	bpl.n	8003e84 <HAL_RCC_OscConfig+0x130>
  if (((RCC_OscInitStruct->OscillatorType) & RCC_OSCILLATORTYPE_LSE) == RCC_OSCILLATORTYPE_LSE)
 8003e94:	6823      	ldr	r3, [r4, #0]
 8003e96:	075e      	lsls	r6, r3, #29
 8003e98:	d4ca      	bmi.n	8003e30 <HAL_RCC_OscConfig+0xdc>
    }
  }
  /*-------------------------------- PLL Configuration -----------------------*/
  /* Check the parameters */
  assert_param(IS_RCC_PLL(RCC_OscInitStruct->PLL.PLLState));
  if ((RCC_OscInitStruct->PLL.PLLState) != RCC_PLL_NONE)
 8003e9a:	69a3      	ldr	r3, [r4, #24]
 8003e9c:	b1cb      	cbz	r3, 8003ed2 <HAL_RCC_OscConfig+0x17e>
  {
    /* Check if the PLL is used as system clock or not */
    if (__HAL_RCC_GET_SYSCLK_SOURCE() != RCC_SYSCLKSOURCE_STATUS_PLLCLK)
 8003e9e:	4d4d      	ldr	r5, [pc, #308]	@ (8003fd4 <HAL_RCC_OscConfig+0x280>)
 8003ea0:	68aa      	ldr	r2, [r5, #8]
 8003ea2:	f002 020c 	and.w	r2, r2, #12
 8003ea6:	2a08      	cmp	r2, #8
 8003ea8:	f000 80d3 	beq.w	8004052 <HAL_RCC_OscConfig+0x2fe>
    {
      if ((RCC_OscInitStruct->PLL.PLLState) == RCC_PLL_ON)
 8003eac:	2b02      	cmp	r3, #2
#if defined (RCC_PLLCFGR_PLLR)
        assert_param(IS_RCC_PLLR_VALUE(RCC_OscInitStruct->PLL.PLLR));
#endif

        /* Disable the main PLL. */
        __HAL_RCC_PLL_DISABLE();
 8003eae:	682b      	ldr	r3, [r5, #0]
 8003eb0:	f023 7380 	bic.w	r3, r3, #16777216	@ 0x1000000
 8003eb4:	602b      	str	r3, [r5, #0]
      if ((RCC_OscInitStruct->PLL.PLLState) == RCC_PLL_ON)
 8003eb6:	f000 810f 	beq.w	80040d8 <HAL_RCC_OscConfig+0x384>
      {
        /* Disable the main PLL. */
        __HAL_RCC_PLL_DISABLE();

        /* Get Start Tick*/
        tickstart = HAL_GetTick();
 8003eba:	f7fe fd09 	bl	80028d0 <HAL_GetTick>
 8003ebe:	4604      	mov	r4, r0

        /* Wait till PLL is ready */
        while (__HAL_RCC_GET_FLAG(RCC_FLAG_PLLRDY) != RESET)
 8003ec0:	e004      	b.n	8003ecc <HAL_RCC_OscConfig+0x178>
        {
          if ((HAL_GetTick() - tickstart) > PLL_TIMEOUT_VALUE)
 8003ec2:	f7fe fd05 	bl	80028d0 <HAL_GetTick>
 8003ec6:	1b00      	subs	r0, r0, r4
 8003ec8:	2802      	cmp	r0, #2
 8003eca:	d85a      	bhi.n	8003f82 <HAL_RCC_OscConfig+0x22e>
        while (__HAL_RCC_GET_FLAG(RCC_FLAG_PLLRDY) != RESET)
 8003ecc:	682b      	ldr	r3, [r5, #0]
 8003ece:	019b      	lsls	r3, r3, #6
 8003ed0:	d4f7      	bmi.n	8003ec2 <HAL_RCC_OscConfig+0x16e>
      {
        return HAL_ERROR;
      }
    }
  }
  return HAL_OK;
 8003ed2:	2000      	movs	r0, #0
}
 8003ed4:	b002      	add	sp, #8
 8003ed6:	e8bd 81f0 	ldmia.w	sp!, {r4, r5, r6, r7, r8, pc}
        || ((__HAL_RCC_GET_SYSCLK_SOURCE() == RCC_SYSCLKSOURCE_STATUS_PLLCLK) && ((RCC->PLLCFGR & RCC_PLLCFGR_PLLSRC) == RCC_PLLCFGR_PLLSRC_HSI)))
 8003eda:	6852      	ldr	r2, [r2, #4]
 8003edc:	0251      	lsls	r1, r2, #9
 8003ede:	d485      	bmi.n	8003dec <HAL_RCC_OscConfig+0x98>
      if ((__HAL_RCC_GET_FLAG(RCC_FLAG_HSIRDY) != RESET) && (RCC_OscInitStruct->HSIState != RCC_HSI_ON))
 8003ee0:	4a3c      	ldr	r2, [pc, #240]	@ (8003fd4 <HAL_RCC_OscConfig+0x280>)
 8003ee2:	6812      	ldr	r2, [r2, #0]
 8003ee4:	0792      	lsls	r2, r2, #30
 8003ee6:	d530      	bpl.n	8003f4a <HAL_RCC_OscConfig+0x1f6>
 8003ee8:	68e2      	ldr	r2, [r4, #12]
 8003eea:	2a01      	cmp	r2, #1
 8003eec:	d02d      	beq.n	8003f4a <HAL_RCC_OscConfig+0x1f6>
    return HAL_ERROR;
 8003eee:	2001      	movs	r0, #1
}
 8003ef0:	b002      	add	sp, #8
 8003ef2:	e8bd 81f0 	ldmia.w	sp!, {r4, r5, r6, r7, r8, pc}
      __HAL_RCC_LSI_DISABLE();
 8003ef6:	6f6b      	ldr	r3, [r5, #116]	@ 0x74
 8003ef8:	f023 0301 	bic.w	r3, r3, #1
 8003efc:	676b      	str	r3, [r5, #116]	@ 0x74
      tickstart = HAL_GetTick();
 8003efe:	f7fe fce7 	bl	80028d0 <HAL_GetTick>
 8003f02:	4606      	mov	r6, r0
      while (__HAL_RCC_GET_FLAG(RCC_FLAG_LSIRDY) != RESET)
 8003f04:	e004      	b.n	8003f10 <HAL_RCC_OscConfig+0x1bc>
        if ((HAL_GetTick() - tickstart) > LSI_TIMEOUT_VALUE)
 8003f06:	f7fe fce3 	bl	80028d0 <HAL_GetTick>
 8003f0a:	1b80      	subs	r0, r0, r6
 8003f0c:	2802      	cmp	r0, #2
 8003f0e:	d838      	bhi.n	8003f82 <HAL_RCC_OscConfig+0x22e>
      while (__HAL_RCC_GET_FLAG(RCC_FLAG_LSIRDY) != RESET)
 8003f10:	6f6b      	ldr	r3, [r5, #116]	@ 0x74
 8003f12:	079f      	lsls	r7, r3, #30
 8003f14:	d4f7      	bmi.n	8003f06 <HAL_RCC_OscConfig+0x1b2>
 8003f16:	e7bd      	b.n	8003e94 <HAL_RCC_OscConfig+0x140>
      __HAL_RCC_PWR_CLK_ENABLE();
 8003f18:	6c1a      	ldr	r2, [r3, #64]	@ 0x40
      pwrclkchanged = SET;
 8003f1a:	2501      	movs	r5, #1
      __HAL_RCC_PWR_CLK_ENABLE();
 8003f1c:	f042 5280 	orr.w	r2, r2, #268435456	@ 0x10000000
 8003f20:	641a      	str	r2, [r3, #64]	@ 0x40
 8003f22:	6c1b      	ldr	r3, [r3, #64]	@ 0x40
 8003f24:	f003 5380 	and.w	r3, r3, #268435456	@ 0x10000000
 8003f28:	9301      	str	r3, [sp, #4]
 8003f2a:	9b01      	ldr	r3, [sp, #4]
      pwrclkchanged = SET;
 8003f2c:	e785      	b.n	8003e3a <HAL_RCC_OscConfig+0xe6>
        || ((__HAL_RCC_GET_SYSCLK_SOURCE() == RCC_SYSCLKSOURCE_STATUS_PLLCLK) && ((RCC->PLLCFGR & RCC_PLLCFGR_PLLSRC) == RCC_PLLCFGR_PLLSRC_HSE)))
 8003f2e:	684a      	ldr	r2, [r1, #4]
 8003f30:	0251      	lsls	r1, r2, #9
 8003f32:	f57f af26 	bpl.w	8003d82 <HAL_RCC_OscConfig+0x2e>
      if ((__HAL_RCC_GET_FLAG(RCC_FLAG_HSERDY) != RESET) && (RCC_OscInitStruct->HSEState == RCC_HSE_OFF))
 8003f36:	4a27      	ldr	r2, [pc, #156]	@ (8003fd4 <HAL_RCC_OscConfig+0x280>)
 8003f38:	6812      	ldr	r2, [r2, #0]
 8003f3a:	0392      	lsls	r2, r2, #14
 8003f3c:	f57f af4a 	bpl.w	8003dd4 <HAL_RCC_OscConfig+0x80>
 8003f40:	6862      	ldr	r2, [r4, #4]
 8003f42:	2a00      	cmp	r2, #0
 8003f44:	f47f af46 	bne.w	8003dd4 <HAL_RCC_OscConfig+0x80>
 8003f48:	e7d1      	b.n	8003eee <HAL_RCC_OscConfig+0x19a>
        __HAL_RCC_HSI_CALIBRATIONVALUE_ADJUST(RCC_OscInitStruct->HSICalibrationValue);
 8003f4a:	4922      	ldr	r1, [pc, #136]	@ (8003fd4 <HAL_RCC_OscConfig+0x280>)
 8003f4c:	6920      	ldr	r0, [r4, #16]
 8003f4e:	680a      	ldr	r2, [r1, #0]
 8003f50:	f022 02f8 	bic.w	r2, r2, #248	@ 0xf8
 8003f54:	ea42 02c0 	orr.w	r2, r2, r0, lsl #3
 8003f58:	600a      	str	r2, [r1, #0]
  if (((RCC_OscInitStruct->OscillatorType) & RCC_OSCILLATORTYPE_LSI) == RCC_OSCILLATORTYPE_LSI)
 8003f5a:	071a      	lsls	r2, r3, #28
 8003f5c:	f57f af66 	bpl.w	8003e2c <HAL_RCC_OscConfig+0xd8>
 8003f60:	e784      	b.n	8003e6c <HAL_RCC_OscConfig+0x118>
      PWR->CR1 |= PWR_CR1_DBP;
 8003f62:	6833      	ldr	r3, [r6, #0]
 8003f64:	f443 7380 	orr.w	r3, r3, #256	@ 0x100
 8003f68:	6033      	str	r3, [r6, #0]
      tickstart = HAL_GetTick();
 8003f6a:	f7fe fcb1 	bl	80028d0 <HAL_GetTick>
 8003f6e:	4607      	mov	r7, r0
      while (HAL_IS_BIT_CLR(PWR->CR1, PWR_CR1_DBP))
 8003f70:	6833      	ldr	r3, [r6, #0]
 8003f72:	05d9      	lsls	r1, r3, #23
 8003f74:	f53f af66 	bmi.w	8003e44 <HAL_RCC_OscConfig+0xf0>
        if ((HAL_GetTick() - tickstart) > RCC_DBP_TIMEOUT_VALUE)
 8003f78:	f7fe fcaa 	bl	80028d0 <HAL_GetTick>
 8003f7c:	1bc0      	subs	r0, r0, r7
 8003f7e:	2864      	cmp	r0, #100	@ 0x64
 8003f80:	d9f6      	bls.n	8003f70 <HAL_RCC_OscConfig+0x21c>
            return HAL_TIMEOUT;
 8003f82:	2003      	movs	r0, #3
}
 8003f84:	b002      	add	sp, #8
 8003f86:	e8bd 81f0 	ldmia.w	sp!, {r4, r5, r6, r7, r8, pc}
      __HAL_RCC_HSE_CONFIG(RCC_OscInitStruct->HSEState);
 8003f8a:	4d12      	ldr	r5, [pc, #72]	@ (8003fd4 <HAL_RCC_OscConfig+0x280>)
 8003f8c:	682b      	ldr	r3, [r5, #0]
 8003f8e:	f423 3380 	bic.w	r3, r3, #65536	@ 0x10000
 8003f92:	602b      	str	r3, [r5, #0]
 8003f94:	682b      	ldr	r3, [r5, #0]
 8003f96:	f423 2380 	bic.w	r3, r3, #262144	@ 0x40000
 8003f9a:	602b      	str	r3, [r5, #0]
        tickstart = HAL_GetTick();
 8003f9c:	f7fe fc98 	bl	80028d0 <HAL_GetTick>
 8003fa0:	4606      	mov	r6, r0
        while (__HAL_RCC_GET_FLAG(RCC_FLAG_HSERDY) != RESET)
 8003fa2:	e004      	b.n	8003fae <HAL_RCC_OscConfig+0x25a>
          if ((HAL_GetTick() - tickstart) > HSE_TIMEOUT_VALUE)
 8003fa4:	f7fe fc94 	bl	80028d0 <HAL_GetTick>
 8003fa8:	1b80      	subs	r0, r0, r6
 8003faa:	2864      	cmp	r0, #100	@ 0x64
 8003fac:	d8e9      	bhi.n	8003f82 <HAL_RCC_OscConfig+0x22e>
        while (__HAL_RCC_GET_FLAG(RCC_FLAG_HSERDY) != RESET)
 8003fae:	682b      	ldr	r3, [r5, #0]
 8003fb0:	039f      	lsls	r7, r3, #14
 8003fb2:	d4f7      	bmi.n	8003fa4 <HAL_RCC_OscConfig+0x250>
 8003fb4:	e70d      	b.n	8003dd2 <HAL_RCC_OscConfig+0x7e>
    __HAL_RCC_LSE_CONFIG(RCC_OscInitStruct->LSEState);
 8003fb6:	4e07      	ldr	r6, [pc, #28]	@ (8003fd4 <HAL_RCC_OscConfig+0x280>)
        if ((HAL_GetTick() - tickstart) > RCC_LSE_TIMEOUT_VALUE)
 8003fb8:	f241 3888 	movw	r8, #5000	@ 0x1388
    __HAL_RCC_LSE_CONFIG(RCC_OscInitStruct->LSEState);
 8003fbc:	6f33      	ldr	r3, [r6, #112]	@ 0x70
 8003fbe:	f023 0301 	bic.w	r3, r3, #1
 8003fc2:	6733      	str	r3, [r6, #112]	@ 0x70
 8003fc4:	6f33      	ldr	r3, [r6, #112]	@ 0x70
 8003fc6:	f023 0304 	bic.w	r3, r3, #4
 8003fca:	6733      	str	r3, [r6, #112]	@ 0x70
      tickstart = HAL_GetTick();
 8003fcc:	f7fe fc80 	bl	80028d0 <HAL_GetTick>
 8003fd0:	4607      	mov	r7, r0
      while (__HAL_RCC_GET_FLAG(RCC_FLAG_LSERDY) != RESET)
 8003fd2:	e008      	b.n	8003fe6 <HAL_RCC_OscConfig+0x292>
 8003fd4:	40023800 	.word	0x40023800
 8003fd8:	40007000 	.word	0x40007000
        if ((HAL_GetTick() - tickstart) > RCC_LSE_TIMEOUT_VALUE)
 8003fdc:	f7fe fc78 	bl	80028d0 <HAL_GetTick>
 8003fe0:	1bc0      	subs	r0, r0, r7
 8003fe2:	4540      	cmp	r0, r8
 8003fe4:	d8cd      	bhi.n	8003f82 <HAL_RCC_OscConfig+0x22e>
      while (__HAL_RCC_GET_FLAG(RCC_FLAG_LSERDY) != RESET)
 8003fe6:	6f33      	ldr	r3, [r6, #112]	@ 0x70
 8003fe8:	079b      	lsls	r3, r3, #30
 8003fea:	d4f7      	bmi.n	8003fdc <HAL_RCC_OscConfig+0x288>
    if (pwrclkchanged == SET)
 8003fec:	2d00      	cmp	r5, #0
 8003fee:	f43f af54 	beq.w	8003e9a <HAL_RCC_OscConfig+0x146>
      __HAL_RCC_PWR_CLK_DISABLE();
 8003ff2:	4a52      	ldr	r2, [pc, #328]	@ (800413c <HAL_RCC_OscConfig+0x3e8>)
 8003ff4:	6c13      	ldr	r3, [r2, #64]	@ 0x40
 8003ff6:	f023 5380 	bic.w	r3, r3, #268435456	@ 0x10000000
 8003ffa:	6413      	str	r3, [r2, #64]	@ 0x40
 8003ffc:	e74d      	b.n	8003e9a <HAL_RCC_OscConfig+0x146>
        __HAL_RCC_HSI_DISABLE();
 8003ffe:	682b      	ldr	r3, [r5, #0]
 8004000:	f023 0301 	bic.w	r3, r3, #1
 8004004:	602b      	str	r3, [r5, #0]
        tickstart = HAL_GetTick();
 8004006:	f7fe fc63 	bl	80028d0 <HAL_GetTick>
 800400a:	4606      	mov	r6, r0
        while (__HAL_RCC_GET_FLAG(RCC_FLAG_HSIRDY) != RESET)
 800400c:	e004      	b.n	8004018 <HAL_RCC_OscConfig+0x2c4>
          if ((HAL_GetTick() - tickstart) > HSI_TIMEOUT_VALUE)
 800400e:	f7fe fc5f 	bl	80028d0 <HAL_GetTick>
 8004012:	1b80      	subs	r0, r0, r6
 8004014:	2802      	cmp	r0, #2
 8004016:	d8b4      	bhi.n	8003f82 <HAL_RCC_OscConfig+0x22e>
        while (__HAL_RCC_GET_FLAG(RCC_FLAG_HSIRDY) != RESET)
 8004018:	682b      	ldr	r3, [r5, #0]
 800401a:	0799      	lsls	r1, r3, #30
 800401c:	d4f7      	bmi.n	800400e <HAL_RCC_OscConfig+0x2ba>
  if (((RCC_OscInitStruct->OscillatorType) & RCC_OSCILLATORTYPE_LSI) == RCC_OSCILLATORTYPE_LSI)
 800401e:	6823      	ldr	r3, [r4, #0]
 8004020:	e702      	b.n	8003e28 <HAL_RCC_OscConfig+0xd4>
    __HAL_RCC_LSE_CONFIG(RCC_OscInitStruct->LSEState);
 8004022:	4a46      	ldr	r2, [pc, #280]	@ (800413c <HAL_RCC_OscConfig+0x3e8>)
 8004024:	6f13      	ldr	r3, [r2, #112]	@ 0x70
 8004026:	f043 0301 	orr.w	r3, r3, #1
 800402a:	6713      	str	r3, [r2, #112]	@ 0x70
      tickstart = HAL_GetTick();
 800402c:	f7fe fc50 	bl	80028d0 <HAL_GetTick>
      while (__HAL_RCC_GET_FLAG(RCC_FLAG_LSERDY) == RESET)
 8004030:	4f42      	ldr	r7, [pc, #264]	@ (800413c <HAL_RCC_OscConfig+0x3e8>)
        if ((HAL_GetTick() - tickstart) > RCC_LSE_TIMEOUT_VALUE)
 8004032:	f241 3888 	movw	r8, #5000	@ 0x1388
      tickstart = HAL_GetTick();
 8004036:	4606      	mov	r6, r0
      while (__HAL_RCC_GET_FLAG(RCC_FLAG_LSERDY) == RESET)
 8004038:	e004      	b.n	8004044 <HAL_RCC_OscConfig+0x2f0>
        if ((HAL_GetTick() - tickstart) > RCC_LSE_TIMEOUT_VALUE)
 800403a:	f7fe fc49 	bl	80028d0 <HAL_GetTick>
 800403e:	1b80      	subs	r0, r0, r6
 8004040:	4540      	cmp	r0, r8
 8004042:	d89e      	bhi.n	8003f82 <HAL_RCC_OscConfig+0x22e>
      while (__HAL_RCC_GET_FLAG(RCC_FLAG_LSERDY) == RESET)
 8004044:	6f3b      	ldr	r3, [r7, #112]	@ 0x70
 8004046:	079a      	lsls	r2, r3, #30
 8004048:	d5f7      	bpl.n	800403a <HAL_RCC_OscConfig+0x2e6>
    if (pwrclkchanged == SET)
 800404a:	2d00      	cmp	r5, #0
 800404c:	f43f af25 	beq.w	8003e9a <HAL_RCC_OscConfig+0x146>
 8004050:	e7cf      	b.n	8003ff2 <HAL_RCC_OscConfig+0x29e>
      if (((RCC_OscInitStruct->PLL.PLLState) == RCC_PLL_OFF) ||
 8004052:	2b01      	cmp	r3, #1
      pll_config = RCC->PLLCFGR;
 8004054:	686a      	ldr	r2, [r5, #4]
      if (((RCC_OscInitStruct->PLL.PLLState) == RCC_PLL_OFF) ||
 8004056:	f43f af4a 	beq.w	8003eee <HAL_RCC_OscConfig+0x19a>
          (READ_BIT(pll_config, RCC_PLLCFGR_PLLSRC) != RCC_OscInitStruct->PLL.PLLSource) ||
 800405a:	f402 0380 	and.w	r3, r2, #4194304	@ 0x400000
      if (((RCC_OscInitStruct->PLL.PLLState) == RCC_PLL_OFF) ||
 800405e:	69e1      	ldr	r1, [r4, #28]
 8004060:	428b      	cmp	r3, r1
 8004062:	f47f af44 	bne.w	8003eee <HAL_RCC_OscConfig+0x19a>
          (READ_BIT(pll_config, RCC_PLLCFGR_PLLM) != RCC_OscInitStruct->PLL.PLLM) ||
 8004066:	f002 033f 	and.w	r3, r2, #63	@ 0x3f
          (READ_BIT(pll_config, RCC_PLLCFGR_PLLSRC) != RCC_OscInitStruct->PLL.PLLSource) ||
 800406a:	6a21      	ldr	r1, [r4, #32]
 800406c:	428b      	cmp	r3, r1
 800406e:	f47f af3e 	bne.w	8003eee <HAL_RCC_OscConfig+0x19a>
          (READ_BIT(pll_config, RCC_PLLCFGR_PLLN) != (RCC_OscInitStruct->PLL.PLLN << RCC_PLLCFGR_PLLN_Pos)) ||
 8004072:	f647 73c0 	movw	r3, #32704	@ 0x7fc0
 8004076:	6a61      	ldr	r1, [r4, #36]	@ 0x24
 8004078:	4013      	ands	r3, r2
          (READ_BIT(pll_config, RCC_PLLCFGR_PLLM) != RCC_OscInitStruct->PLL.PLLM) ||
 800407a:	ebb3 1f81 	cmp.w	r3, r1, lsl #6
 800407e:	f47f af36 	bne.w	8003eee <HAL_RCC_OscConfig+0x19a>
          (READ_BIT(pll_config, RCC_PLLCFGR_PLLP) != ((((RCC_OscInitStruct->PLL.PLLP) >> 1U) - 1U) << RCC_PLLCFGR_PLLP_Pos)) ||
 8004082:	6aa3      	ldr	r3, [r4, #40]	@ 0x28
 8004084:	f402 3140 	and.w	r1, r2, #196608	@ 0x30000
 8004088:	085b      	lsrs	r3, r3, #1
 800408a:	3b01      	subs	r3, #1
          (READ_BIT(pll_config, RCC_PLLCFGR_PLLN) != (RCC_OscInitStruct->PLL.PLLN << RCC_PLLCFGR_PLLN_Pos)) ||
 800408c:	ebb1 4f03 	cmp.w	r1, r3, lsl #16
 8004090:	f47f af2d 	bne.w	8003eee <HAL_RCC_OscConfig+0x19a>
          (READ_BIT(pll_config, RCC_PLLCFGR_PLLQ) != (RCC_OscInitStruct->PLL.PLLQ << RCC_PLLCFGR_PLLQ_Pos)) ||
 8004094:	f002 6370 	and.w	r3, r2, #251658240	@ 0xf000000
 8004098:	6ae1      	ldr	r1, [r4, #44]	@ 0x2c
          (READ_BIT(pll_config, RCC_PLLCFGR_PLLP) != ((((RCC_OscInitStruct->PLL.PLLP) >> 1U) - 1U) << RCC_PLLCFGR_PLLP_Pos)) ||
 800409a:	ebb3 6f01 	cmp.w	r3, r1, lsl #24
 800409e:	f47f af26 	bne.w	8003eee <HAL_RCC_OscConfig+0x19a>
          (READ_BIT(pll_config, RCC_PLLCFGR_PLLR) != (RCC_OscInitStruct->PLL.PLLR << RCC_PLLCFGR_PLLR_Pos)))
 80040a2:	6b23      	ldr	r3, [r4, #48]	@ 0x30
 80040a4:	f002 42e0 	and.w	r2, r2, #1879048192	@ 0x70000000
          (READ_BIT(pll_config, RCC_PLLCFGR_PLLQ) != (RCC_OscInitStruct->PLL.PLLQ << RCC_PLLCFGR_PLLQ_Pos)) ||
 80040a8:	ebb2 7f03 	cmp.w	r2, r3, lsl #28
 80040ac:	bf14      	ite	ne
 80040ae:	2001      	movne	r0, #1
 80040b0:	2000      	moveq	r0, #0
 80040b2:	e70f      	b.n	8003ed4 <HAL_RCC_OscConfig+0x180>
      __HAL_RCC_HSE_CONFIG(RCC_OscInitStruct->HSEState);
 80040b4:	f442 2280 	orr.w	r2, r2, #262144	@ 0x40000
 80040b8:	601a      	str	r2, [r3, #0]
 80040ba:	681a      	ldr	r2, [r3, #0]
 80040bc:	f442 3280 	orr.w	r2, r2, #65536	@ 0x10000
 80040c0:	601a      	str	r2, [r3, #0]
      if (RCC_OscInitStruct->HSEState != RCC_HSE_OFF)
 80040c2:	e678      	b.n	8003db6 <HAL_RCC_OscConfig+0x62>
    __HAL_RCC_LSE_CONFIG(RCC_OscInitStruct->LSEState);
 80040c4:	f042 0204 	orr.w	r2, r2, #4
 80040c8:	671a      	str	r2, [r3, #112]	@ 0x70
 80040ca:	6f1a      	ldr	r2, [r3, #112]	@ 0x70
 80040cc:	f042 0201 	orr.w	r2, r2, #1
 80040d0:	671a      	str	r2, [r3, #112]	@ 0x70
    if ((RCC_OscInitStruct->LSEState) != RCC_LSE_OFF)
 80040d2:	e7ab      	b.n	800402c <HAL_RCC_OscConfig+0x2d8>
    return HAL_ERROR;
 80040d4:	2001      	movs	r0, #1
}
 80040d6:	4770      	bx	lr
        tickstart = HAL_GetTick();
 80040d8:	f7fe fbfa 	bl	80028d0 <HAL_GetTick>
 80040dc:	4606      	mov	r6, r0
        while (__HAL_RCC_GET_FLAG(RCC_FLAG_PLLRDY) != RESET)
 80040de:	e005      	b.n	80040ec <HAL_RCC_OscConfig+0x398>
          if ((HAL_GetTick() - tickstart) > PLL_TIMEOUT_VALUE)
 80040e0:	f7fe fbf6 	bl	80028d0 <HAL_GetTick>
 80040e4:	1b80      	subs	r0, r0, r6
 80040e6:	2802      	cmp	r0, #2
 80040e8:	f63f af4b 	bhi.w	8003f82 <HAL_RCC_OscConfig+0x22e>
        while (__HAL_RCC_GET_FLAG(RCC_FLAG_PLLRDY) != RESET)
 80040ec:	682b      	ldr	r3, [r5, #0]
 80040ee:	0199      	lsls	r1, r3, #6
 80040f0:	d4f6      	bmi.n	80040e0 <HAL_RCC_OscConfig+0x38c>
        __HAL_RCC_PLL_CONFIG(RCC_OscInitStruct->PLL.PLLSource,
 80040f2:	e9d4 3107 	ldrd	r3, r1, [r4, #28]
 80040f6:	6a62      	ldr	r2, [r4, #36]	@ 0x24
 80040f8:	430b      	orrs	r3, r1
 80040fa:	6b21      	ldr	r1, [r4, #48]	@ 0x30
        while (__HAL_RCC_GET_FLAG(RCC_FLAG_PLLRDY) == RESET)
 80040fc:	4e0f      	ldr	r6, [pc, #60]	@ (800413c <HAL_RCC_OscConfig+0x3e8>)
        __HAL_RCC_PLL_CONFIG(RCC_OscInitStruct->PLL.PLLSource,
 80040fe:	ea43 1382 	orr.w	r3, r3, r2, lsl #6
 8004102:	e9d4 200a 	ldrd	r2, r0, [r4, #40]	@ 0x28
 8004106:	ea43 6300 	orr.w	r3, r3, r0, lsl #24
 800410a:	0852      	lsrs	r2, r2, #1
 800410c:	ea43 7301 	orr.w	r3, r3, r1, lsl #28
 8004110:	3a01      	subs	r2, #1
 8004112:	ea43 4302 	orr.w	r3, r3, r2, lsl #16
 8004116:	606b      	str	r3, [r5, #4]
        __HAL_RCC_PLL_ENABLE();
 8004118:	682b      	ldr	r3, [r5, #0]
 800411a:	f043 7380 	orr.w	r3, r3, #16777216	@ 0x1000000
 800411e:	602b      	str	r3, [r5, #0]
        tickstart = HAL_GetTick();
 8004120:	f7fe fbd6 	bl	80028d0 <HAL_GetTick>
 8004124:	4604      	mov	r4, r0
        while (__HAL_RCC_GET_FLAG(RCC_FLAG_PLLRDY) == RESET)
 8004126:	e005      	b.n	8004134 <HAL_RCC_OscConfig+0x3e0>
          if ((HAL_GetTick() - tickstart) > PLL_TIMEOUT_VALUE)
 8004128:	f7fe fbd2 	bl	80028d0 <HAL_GetTick>
 800412c:	1b00      	subs	r0, r0, r4
 800412e:	2802      	cmp	r0, #2
 8004130:	f63f af27 	bhi.w	8003f82 <HAL_RCC_OscConfig+0x22e>
        while (__HAL_RCC_GET_FLAG(RCC_FLAG_PLLRDY) == RESET)
 8004134:	6833      	ldr	r3, [r6, #0]
 8004136:	019a      	lsls	r2, r3, #6
 8004138:	d5f6      	bpl.n	8004128 <HAL_RCC_OscConfig+0x3d4>
 800413a:	e6ca      	b.n	8003ed2 <HAL_RCC_OscConfig+0x17e>
 800413c:	40023800 	.word	0x40023800

08004140 <HAL_RCC_ClockConfig>:
HAL_StatusTypeDef HAL_RCC_ClockConfig(RCC_ClkInitTypeDef  *RCC_ClkInitStruct, uint32_t FLatency)
{
  uint32_t tickstart = 0;

  /* Check Null pointer */
  if (RCC_ClkInitStruct == NULL)
 8004140:	2800      	cmp	r0, #0
 8004142:	f000 80b3 	beq.w	80042ac <HAL_RCC_ClockConfig+0x16c>
  /* To correctly read data from FLASH memory, the number of wait states (LATENCY)
     must be correctly programmed according to the frequency of the CPU clock
     (HCLK) and the supply voltage of the device. */

  /* Increasing the CPU frequency */
  if (FLatency > __HAL_FLASH_GET_LATENCY())
 8004146:	4a61      	ldr	r2, [pc, #388]	@ (80042cc <HAL_RCC_ClockConfig+0x18c>)
 8004148:	6813      	ldr	r3, [r2, #0]
 800414a:	f003 030f 	and.w	r3, r3, #15
 800414e:	428b      	cmp	r3, r1
{
 8004150:	e92d 41f0 	stmdb	sp!, {r4, r5, r6, r7, r8, lr}
 8004154:	4604      	mov	r4, r0
 8004156:	460d      	mov	r5, r1
  if (FLatency > __HAL_FLASH_GET_LATENCY())
 8004158:	d20c      	bcs.n	8004174 <HAL_RCC_ClockConfig+0x34>
  {
    /* Program the new number of wait states to the LATENCY bits in the FLASH_ACR register */
    __HAL_FLASH_SET_LATENCY(FLatency);
 800415a:	6813      	ldr	r3, [r2, #0]
 800415c:	f023 030f 	bic.w	r3, r3, #15
 8004160:	430b      	orrs	r3, r1
 8004162:	6013      	str	r3, [r2, #0]

    /* Check that the new number of wait states is taken into account to access the Flash
    memory by reading the FLASH_ACR register */
    if (__HAL_FLASH_GET_LATENCY() != FLatency)
 8004164:	6813      	ldr	r3, [r2, #0]
 8004166:	f003 030f 	and.w	r3, r3, #15
 800416a:	428b      	cmp	r3, r1
 800416c:	d002      	beq.n	8004174 <HAL_RCC_ClockConfig+0x34>
    return HAL_ERROR;
 800416e:	2001      	movs	r0, #1

  /* Configure the source of time base considering new system clocks settings*/
  HAL_InitTick(uwTickPrio);

  return HAL_OK;
}
 8004170:	e8bd 81f0 	ldmia.w	sp!, {r4, r5, r6, r7, r8, pc}
  if (((RCC_ClkInitStruct->ClockType) & RCC_CLOCKTYPE_HCLK) == RCC_CLOCKTYPE_HCLK)
 8004174:	6823      	ldr	r3, [r4, #0]
 8004176:	0798      	lsls	r0, r3, #30
 8004178:	d514      	bpl.n	80041a4 <HAL_RCC_ClockConfig+0x64>
    if (((RCC_ClkInitStruct->ClockType) & RCC_CLOCKTYPE_PCLK1) == RCC_CLOCKTYPE_PCLK1)
 800417a:	0759      	lsls	r1, r3, #29
 800417c:	d504      	bpl.n	8004188 <HAL_RCC_ClockConfig+0x48>
      MODIFY_REG(RCC->CFGR, RCC_CFGR_PPRE1, RCC_HCLK_DIV16);
 800417e:	4954      	ldr	r1, [pc, #336]	@ (80042d0 <HAL_RCC_ClockConfig+0x190>)
 8004180:	688a      	ldr	r2, [r1, #8]
 8004182:	f442 52e0 	orr.w	r2, r2, #7168	@ 0x1c00
 8004186:	608a      	str	r2, [r1, #8]
    if (((RCC_ClkInitStruct->ClockType) & RCC_CLOCKTYPE_PCLK2) == RCC_CLOCKTYPE_PCLK2)
 8004188:	071a      	lsls	r2, r3, #28
 800418a:	d504      	bpl.n	8004196 <HAL_RCC_ClockConfig+0x56>
      MODIFY_REG(RCC->CFGR, RCC_CFGR_PPRE2, (RCC_HCLK_DIV16 << 3));
 800418c:	4950      	ldr	r1, [pc, #320]	@ (80042d0 <HAL_RCC_ClockConfig+0x190>)
 800418e:	688a      	ldr	r2, [r1, #8]
 8004190:	f442 4260 	orr.w	r2, r2, #57344	@ 0xe000
 8004194:	608a      	str	r2, [r1, #8]
    MODIFY_REG(RCC->CFGR, RCC_CFGR_HPRE, RCC_ClkInitStruct->AHBCLKDivider);
 8004196:	494e      	ldr	r1, [pc, #312]	@ (80042d0 <HAL_RCC_ClockConfig+0x190>)
 8004198:	68a0      	ldr	r0, [r4, #8]
 800419a:	688a      	ldr	r2, [r1, #8]
 800419c:	f022 02f0 	bic.w	r2, r2, #240	@ 0xf0
 80041a0:	4302      	orrs	r2, r0
 80041a2:	608a      	str	r2, [r1, #8]
  if (((RCC_ClkInitStruct->ClockType) & RCC_CLOCKTYPE_SYSCLK) == RCC_CLOCKTYPE_SYSCLK)
 80041a4:	07df      	lsls	r7, r3, #31
 80041a6:	d520      	bpl.n	80041ea <HAL_RCC_ClockConfig+0xaa>
    if (RCC_ClkInitStruct->SYSCLKSource == RCC_SYSCLKSOURCE_HSE)
 80041a8:	6862      	ldr	r2, [r4, #4]
      if (__HAL_RCC_GET_FLAG(RCC_FLAG_HSERDY) == RESET)
 80041aa:	4b49      	ldr	r3, [pc, #292]	@ (80042d0 <HAL_RCC_ClockConfig+0x190>)
    if (RCC_ClkInitStruct->SYSCLKSource == RCC_SYSCLKSOURCE_HSE)
 80041ac:	2a01      	cmp	r2, #1
      if (__HAL_RCC_GET_FLAG(RCC_FLAG_HSERDY) == RESET)
 80041ae:	681b      	ldr	r3, [r3, #0]
    if (RCC_ClkInitStruct->SYSCLKSource == RCC_SYSCLKSOURCE_HSE)
 80041b0:	d07e      	beq.n	80042b0 <HAL_RCC_ClockConfig+0x170>
    else if (RCC_ClkInitStruct->SYSCLKSource == RCC_SYSCLKSOURCE_PLLCLK)
 80041b2:	2a02      	cmp	r2, #2
 80041b4:	d077      	beq.n	80042a6 <HAL_RCC_ClockConfig+0x166>
      if (__HAL_RCC_GET_FLAG(RCC_FLAG_HSIRDY) == RESET)
 80041b6:	0799      	lsls	r1, r3, #30
 80041b8:	d5d9      	bpl.n	800416e <HAL_RCC_ClockConfig+0x2e>
    __HAL_RCC_SYSCLK_CONFIG(RCC_ClkInitStruct->SYSCLKSource);
 80041ba:	4e45      	ldr	r6, [pc, #276]	@ (80042d0 <HAL_RCC_ClockConfig+0x190>)
      if ((HAL_GetTick() - tickstart) > CLOCKSWITCH_TIMEOUT_VALUE)
 80041bc:	f241 3888 	movw	r8, #5000	@ 0x1388
    __HAL_RCC_SYSCLK_CONFIG(RCC_ClkInitStruct->SYSCLKSource);
 80041c0:	68b3      	ldr	r3, [r6, #8]
 80041c2:	f023 0303 	bic.w	r3, r3, #3
 80041c6:	4313      	orrs	r3, r2
 80041c8:	60b3      	str	r3, [r6, #8]
    tickstart = HAL_GetTick();
 80041ca:	f7fe fb81 	bl	80028d0 <HAL_GetTick>
 80041ce:	4607      	mov	r7, r0
    while (__HAL_RCC_GET_SYSCLK_SOURCE() != (RCC_ClkInitStruct->SYSCLKSource << RCC_CFGR_SWS_Pos))
 80041d0:	e004      	b.n	80041dc <HAL_RCC_ClockConfig+0x9c>
      if ((HAL_GetTick() - tickstart) > CLOCKSWITCH_TIMEOUT_VALUE)
 80041d2:	f7fe fb7d 	bl	80028d0 <HAL_GetTick>
 80041d6:	1bc0      	subs	r0, r0, r7
 80041d8:	4540      	cmp	r0, r8
 80041da:	d86c      	bhi.n	80042b6 <HAL_RCC_ClockConfig+0x176>
    while (__HAL_RCC_GET_SYSCLK_SOURCE() != (RCC_ClkInitStruct->SYSCLKSource << RCC_CFGR_SWS_Pos))
 80041dc:	68b3      	ldr	r3, [r6, #8]
 80041de:	6862      	ldr	r2, [r4, #4]
 80041e0:	f003 030c 	and.w	r3, r3, #12
 80041e4:	ebb3 0f82 	cmp.w	r3, r2, lsl #2
 80041e8:	d1f3      	bne.n	80041d2 <HAL_RCC_ClockConfig+0x92>
  if (FLatency < __HAL_FLASH_GET_LATENCY())
 80041ea:	4a38      	ldr	r2, [pc, #224]	@ (80042cc <HAL_RCC_ClockConfig+0x18c>)
 80041ec:	6813      	ldr	r3, [r2, #0]
 80041ee:	f003 030f 	and.w	r3, r3, #15
 80041f2:	42ab      	cmp	r3, r5
 80041f4:	d909      	bls.n	800420a <HAL_RCC_ClockConfig+0xca>
    __HAL_FLASH_SET_LATENCY(FLatency);
 80041f6:	6813      	ldr	r3, [r2, #0]
 80041f8:	f023 030f 	bic.w	r3, r3, #15
 80041fc:	432b      	orrs	r3, r5
 80041fe:	6013      	str	r3, [r2, #0]
    if (__HAL_FLASH_GET_LATENCY() != FLatency)
 8004200:	6813      	ldr	r3, [r2, #0]
 8004202:	f003 030f 	and.w	r3, r3, #15
 8004206:	42ab      	cmp	r3, r5
 8004208:	d1b1      	bne.n	800416e <HAL_RCC_ClockConfig+0x2e>
  if (((RCC_ClkInitStruct->ClockType) & RCC_CLOCKTYPE_PCLK1) == RCC_CLOCKTYPE_PCLK1)
 800420a:	6823      	ldr	r3, [r4, #0]
 800420c:	075a      	lsls	r2, r3, #29
 800420e:	d506      	bpl.n	800421e <HAL_RCC_ClockConfig+0xde>
    MODIFY_REG(RCC->CFGR, RCC_CFGR_PPRE1, RCC_ClkInitStruct->APB1CLKDivider);
 8004210:	492f      	ldr	r1, [pc, #188]	@ (80042d0 <HAL_RCC_ClockConfig+0x190>)
 8004212:	68e0      	ldr	r0, [r4, #12]
 8004214:	688a      	ldr	r2, [r1, #8]
 8004216:	f422 52e0 	bic.w	r2, r2, #7168	@ 0x1c00
 800421a:	4302      	orrs	r2, r0
 800421c:	608a      	str	r2, [r1, #8]
  if (((RCC_ClkInitStruct->ClockType) & RCC_CLOCKTYPE_PCLK2) == RCC_CLOCKTYPE_PCLK2)
 800421e:	071b      	lsls	r3, r3, #28
 8004220:	d431      	bmi.n	8004286 <HAL_RCC_ClockConfig+0x146>
{
  uint32_t pllm = 0, pllvco = 0, pllp = 0;
  uint32_t sysclockfreq = 0;

  /* Get SYSCLK source -------------------------------------------------------*/
  switch (RCC->CFGR & RCC_CFGR_SWS)
 8004222:	492b      	ldr	r1, [pc, #172]	@ (80042d0 <HAL_RCC_ClockConfig+0x190>)
 8004224:	688b      	ldr	r3, [r1, #8]
 8004226:	f003 030c 	and.w	r3, r3, #12
 800422a:	2b04      	cmp	r3, #4
 800422c:	d039      	beq.n	80042a2 <HAL_RCC_ClockConfig+0x162>
 800422e:	2b08      	cmp	r3, #8
 8004230:	d118      	bne.n	8004264 <HAL_RCC_ClockConfig+0x124>
    }
    case RCC_SYSCLKSOURCE_STATUS_PLLCLK:  /* PLL used as system clock  source */
    {
      /* PLL_VCO = (HSE_VALUE or HSI_VALUE / PLLM) * PLLN
      SYSCLK = PLL_VCO / PLLP */
      pllm = RCC->PLLCFGR & RCC_PLLCFGR_PLLM;
 8004232:	684a      	ldr	r2, [r1, #4]
      if (__HAL_RCC_GET_PLL_OSCSOURCE() != RCC_PLLCFGR_PLLSRC_HSI)
 8004234:	684b      	ldr	r3, [r1, #4]
      pllm = RCC->PLLCFGR & RCC_PLLCFGR_PLLM;
 8004236:	f002 023f 	and.w	r2, r2, #63	@ 0x3f
      {
        /* HSE used as PLL clock source */
        pllvco = (uint32_t)((((uint64_t) HSE_VALUE * ((uint64_t)((RCC->PLLCFGR & RCC_PLLCFGR_PLLN) >> RCC_PLLCFGR_PLLN_Pos)))) / (uint64_t)pllm);
 800423a:	6849      	ldr	r1, [r1, #4]
      if (__HAL_RCC_GET_PLL_OSCSOURCE() != RCC_PLLCFGR_PLLSRC_HSI)
 800423c:	f413 0380 	ands.w	r3, r3, #4194304	@ 0x400000
 8004240:	d03b      	beq.n	80042ba <HAL_RCC_ClockConfig+0x17a>
        pllvco = (uint32_t)((((uint64_t) HSE_VALUE * ((uint64_t)((RCC->PLLCFGR & RCC_PLLCFGR_PLLN) >> RCC_PLLCFGR_PLLN_Pos)))) / (uint64_t)pllm);
 8004242:	4824      	ldr	r0, [pc, #144]	@ (80042d4 <HAL_RCC_ClockConfig+0x194>)
 8004244:	f3c1 1188 	ubfx	r1, r1, #6, #9
 8004248:	2300      	movs	r3, #0
 800424a:	fba1 0100 	umull	r0, r1, r1, r0
 800424e:	f7fc f9af 	bl	80005b0 <__aeabi_uldivmod>
      else
      {
        /* HSI used as PLL clock source */
        pllvco = (uint32_t)((((uint64_t) HSI_VALUE * ((uint64_t)((RCC->PLLCFGR & RCC_PLLCFGR_PLLN) >> RCC_PLLCFGR_PLLN_Pos)))) / (uint64_t)pllm);
      }
      pllp = ((((RCC->PLLCFGR & RCC_PLLCFGR_PLLP) >> RCC_PLLCFGR_PLLP_Pos) + 1) * 2);
 8004252:	4b1f      	ldr	r3, [pc, #124]	@ (80042d0 <HAL_RCC_ClockConfig+0x190>)
 8004254:	685b      	ldr	r3, [r3, #4]
 8004256:	f3c3 4301 	ubfx	r3, r3, #16, #2
 800425a:	3301      	adds	r3, #1
 800425c:	005b      	lsls	r3, r3, #1

      sysclockfreq = pllvco / pllp;
 800425e:	fbb0 f3f3 	udiv	r3, r0, r3
    {
      sysclockfreq = HSI_VALUE;
      break;
    }
  }
  return sysclockfreq;
 8004262:	e000      	b.n	8004266 <HAL_RCC_ClockConfig+0x126>
      sysclockfreq = HSI_VALUE;
 8004264:	4b1c      	ldr	r3, [pc, #112]	@ (80042d8 <HAL_RCC_ClockConfig+0x198>)
  SystemCoreClock = HAL_RCC_GetSysClockFreq() >> AHBPrescTable[(RCC->CFGR & RCC_CFGR_HPRE) >> RCC_CFGR_HPRE_Pos];
 8004266:	4a1a      	ldr	r2, [pc, #104]	@ (80042d0 <HAL_RCC_ClockConfig+0x190>)
 8004268:	4c1c      	ldr	r4, [pc, #112]	@ (80042dc <HAL_RCC_ClockConfig+0x19c>)
 800426a:	6892      	ldr	r2, [r2, #8]
  HAL_InitTick(uwTickPrio);
 800426c:	481c      	ldr	r0, [pc, #112]	@ (80042e0 <HAL_RCC_ClockConfig+0x1a0>)
  SystemCoreClock = HAL_RCC_GetSysClockFreq() >> AHBPrescTable[(RCC->CFGR & RCC_CFGR_HPRE) >> RCC_CFGR_HPRE_Pos];
 800426e:	f3c2 1203 	ubfx	r2, r2, #4, #4
 8004272:	491c      	ldr	r1, [pc, #112]	@ (80042e4 <HAL_RCC_ClockConfig+0x1a4>)
  HAL_InitTick(uwTickPrio);
 8004274:	6800      	ldr	r0, [r0, #0]
  SystemCoreClock = HAL_RCC_GetSysClockFreq() >> AHBPrescTable[(RCC->CFGR & RCC_CFGR_HPRE) >> RCC_CFGR_HPRE_Pos];
 8004276:	5ca2      	ldrb	r2, [r4, r2]
 8004278:	40d3      	lsrs	r3, r2
 800427a:	600b      	str	r3, [r1, #0]
  HAL_InitTick(uwTickPrio);
 800427c:	f7fe faec 	bl	8002858 <HAL_InitTick>
  return HAL_OK;
 8004280:	2000      	movs	r0, #0
}
 8004282:	e8bd 81f0 	ldmia.w	sp!, {r4, r5, r6, r7, r8, pc}
    MODIFY_REG(RCC->CFGR, RCC_CFGR_PPRE2, ((RCC_ClkInitStruct->APB2CLKDivider) << 3));
 8004286:	4a12      	ldr	r2, [pc, #72]	@ (80042d0 <HAL_RCC_ClockConfig+0x190>)
 8004288:	6921      	ldr	r1, [r4, #16]
 800428a:	6893      	ldr	r3, [r2, #8]
 800428c:	f423 4360 	bic.w	r3, r3, #57344	@ 0xe000
 8004290:	ea43 03c1 	orr.w	r3, r3, r1, lsl #3
  switch (RCC->CFGR & RCC_CFGR_SWS)
 8004294:	490e      	ldr	r1, [pc, #56]	@ (80042d0 <HAL_RCC_ClockConfig+0x190>)
    MODIFY_REG(RCC->CFGR, RCC_CFGR_PPRE2, ((RCC_ClkInitStruct->APB2CLKDivider) << 3));
 8004296:	6093      	str	r3, [r2, #8]
  switch (RCC->CFGR & RCC_CFGR_SWS)
 8004298:	688b      	ldr	r3, [r1, #8]
 800429a:	f003 030c 	and.w	r3, r3, #12
 800429e:	2b04      	cmp	r3, #4
 80042a0:	d1c5      	bne.n	800422e <HAL_RCC_ClockConfig+0xee>
 80042a2:	4b0c      	ldr	r3, [pc, #48]	@ (80042d4 <HAL_RCC_ClockConfig+0x194>)
 80042a4:	e7df      	b.n	8004266 <HAL_RCC_ClockConfig+0x126>
      if (__HAL_RCC_GET_FLAG(RCC_FLAG_PLLRDY) == RESET)
 80042a6:	0198      	lsls	r0, r3, #6
 80042a8:	d487      	bmi.n	80041ba <HAL_RCC_ClockConfig+0x7a>
 80042aa:	e760      	b.n	800416e <HAL_RCC_ClockConfig+0x2e>
    return HAL_ERROR;
 80042ac:	2001      	movs	r0, #1
}
 80042ae:	4770      	bx	lr
      if (__HAL_RCC_GET_FLAG(RCC_FLAG_HSERDY) == RESET)
 80042b0:	039e      	lsls	r6, r3, #14
 80042b2:	d482      	bmi.n	80041ba <HAL_RCC_ClockConfig+0x7a>
 80042b4:	e75b      	b.n	800416e <HAL_RCC_ClockConfig+0x2e>
        return HAL_TIMEOUT;
 80042b6:	2003      	movs	r0, #3
 80042b8:	e75a      	b.n	8004170 <HAL_RCC_ClockConfig+0x30>
        pllvco = (uint32_t)((((uint64_t) HSI_VALUE * ((uint64_t)((RCC->PLLCFGR & RCC_PLLCFGR_PLLN) >> RCC_PLLCFGR_PLLN_Pos)))) / (uint64_t)pllm);
 80042ba:	4807      	ldr	r0, [pc, #28]	@ (80042d8 <HAL_RCC_ClockConfig+0x198>)
 80042bc:	f3c1 1188 	ubfx	r1, r1, #6, #9
 80042c0:	fba1 0100 	umull	r0, r1, r1, r0
 80042c4:	f7fc f974 	bl	80005b0 <__aeabi_uldivmod>
 80042c8:	e7c3      	b.n	8004252 <HAL_RCC_ClockConfig+0x112>
 80042ca:	bf00      	nop
 80042cc:	40023c00 	.word	0x40023c00
 80042d0:	40023800 	.word	0x40023800
 80042d4:	01312d00 	.word	0x01312d00
 80042d8:	00f42400 	.word	0x00f42400
 80042dc:	0800e47c 	.word	0x0800e47c
 80042e0:	20000170 	.word	0x20000170
 80042e4:	20000168 	.word	0x20000168

080042e8 <HAL_RCCEx_PeriphCLKConfig>:

  /* Check the parameters */
  assert_param(IS_RCC_PERIPHCLOCK(PeriphClkInit->PeriphClockSelection));

  /*----------------------------------- I2S configuration ----------------------------------*/
  if(((PeriphClkInit->PeriphClockSelection) & RCC_PERIPHCLK_I2S) == (RCC_PERIPHCLK_I2S))
 80042e8:	6803      	ldr	r3, [r0, #0]
{
 80042ea:	e92d 43f0 	stmdb	sp!, {r4, r5, r6, r7, r8, r9, lr}
  if(((PeriphClkInit->PeriphClockSelection) & RCC_PERIPHCLK_I2S) == (RCC_PERIPHCLK_I2S))
 80042ee:	f013 0601 	ands.w	r6, r3, #1
{
 80042f2:	b083      	sub	sp, #12
 80042f4:	4604      	mov	r4, r0
  if(((PeriphClkInit->PeriphClockSelection) & RCC_PERIPHCLK_I2S) == (RCC_PERIPHCLK_I2S))
 80042f6:	d00b      	beq.n	8004310 <HAL_RCCEx_PeriphCLKConfig+0x28>
  {
    /* Check the parameters */
    assert_param(IS_RCC_I2SCLKSOURCE(PeriphClkInit->I2sClockSelection));

    /* Configure I2S Clock source */
    __HAL_RCC_I2S_CONFIG(PeriphClkInit->I2sClockSelection);
 80042f8:	4a94      	ldr	r2, [pc, #592]	@ (800454c <HAL_RCCEx_PeriphCLKConfig+0x264>)
 80042fa:	6891      	ldr	r1, [r2, #8]
 80042fc:	f421 0100 	bic.w	r1, r1, #8388608	@ 0x800000
 8004300:	6091      	str	r1, [r2, #8]
 8004302:	6b46      	ldr	r6, [r0, #52]	@ 0x34
 8004304:	6891      	ldr	r1, [r2, #8]
 8004306:	4331      	orrs	r1, r6

    /* Enable the PLLI2S when it's used as clock source for I2S */
    if(PeriphClkInit->I2sClockSelection == RCC_I2SCLKSOURCE_PLLI2S)
 8004308:	fab6 f686 	clz	r6, r6
 800430c:	0976      	lsrs	r6, r6, #5
    __HAL_RCC_I2S_CONFIG(PeriphClkInit->I2sClockSelection);
 800430e:	6091      	str	r1, [r2, #8]
      plli2sused = 1;
    }
  }

  /*------------------------------------ SAI1 configuration --------------------------------------*/
  if(((PeriphClkInit->PeriphClockSelection) & RCC_PERIPHCLK_SAI1) == (RCC_PERIPHCLK_SAI1))
 8004310:	f413 2500 	ands.w	r5, r3, #524288	@ 0x80000
 8004314:	d010      	beq.n	8004338 <HAL_RCCEx_PeriphCLKConfig+0x50>
  {
    /* Check the parameters */
    assert_param(IS_RCC_SAI1CLKSOURCE(PeriphClkInit->Sai1ClockSelection));

    /* Configure SAI1 Clock source */
    __HAL_RCC_SAI1_CONFIG(PeriphClkInit->Sai1ClockSelection);
 8004316:	498d      	ldr	r1, [pc, #564]	@ (800454c <HAL_RCCEx_PeriphCLKConfig+0x264>)
 8004318:	6be5      	ldr	r5, [r4, #60]	@ 0x3c
 800431a:	f8d1 208c 	ldr.w	r2, [r1, #140]	@ 0x8c
    /* Enable the PLLI2S when it's used as clock source for SAI */
    if(PeriphClkInit->Sai1ClockSelection == RCC_SAI1CLKSOURCE_PLLI2S)
 800431e:	f5b5 1f80 	cmp.w	r5, #1048576	@ 0x100000
    __HAL_RCC_SAI1_CONFIG(PeriphClkInit->Sai1ClockSelection);
 8004322:	f422 1240 	bic.w	r2, r2, #3145728	@ 0x300000
 8004326:	ea42 0205 	orr.w	r2, r2, r5
 800432a:	f8c1 208c 	str.w	r2, [r1, #140]	@ 0x8c
    if(PeriphClkInit->Sai1ClockSelection == RCC_SAI1CLKSOURCE_PLLI2S)
 800432e:	f000 8239 	beq.w	80047a4 <HAL_RCCEx_PeriphCLKConfig+0x4bc>
    {
      plli2sused = 1;
    }
    /* Enable the PLLSAI when it's used as clock source for SAI */
    if(PeriphClkInit->Sai1ClockSelection == RCC_SAI1CLKSOURCE_PLLSAI)
 8004332:	fab5 f585 	clz	r5, r5
 8004336:	096d      	lsrs	r5, r5, #5
      pllsaiused = 1;
    }
  }

  /*------------------------------------ SAI2 configuration --------------------------------------*/
  if(((PeriphClkInit->PeriphClockSelection) & RCC_PERIPHCLK_SAI2) == (RCC_PERIPHCLK_SAI2))
 8004338:	02d9      	lsls	r1, r3, #11
 800433a:	d510      	bpl.n	800435e <HAL_RCCEx_PeriphCLKConfig+0x76>
  {
    /* Check the parameters */
    assert_param(IS_RCC_SAI2CLKSOURCE(PeriphClkInit->Sai2ClockSelection));

    /* Configure SAI2 Clock source */
    __HAL_RCC_SAI2_CONFIG(PeriphClkInit->Sai2ClockSelection);
 800433c:	4883      	ldr	r0, [pc, #524]	@ (800454c <HAL_RCCEx_PeriphCLKConfig+0x264>)
 800433e:	6c21      	ldr	r1, [r4, #64]	@ 0x40
 8004340:	f8d0 208c 	ldr.w	r2, [r0, #140]	@ 0x8c

    /* Enable the PLLI2S when it's used as clock source for SAI */
    if(PeriphClkInit->Sai2ClockSelection == RCC_SAI2CLKSOURCE_PLLI2S)
 8004344:	f5b1 0f80 	cmp.w	r1, #4194304	@ 0x400000
    __HAL_RCC_SAI2_CONFIG(PeriphClkInit->Sai2ClockSelection);
 8004348:	f422 0240 	bic.w	r2, r2, #12582912	@ 0xc00000
 800434c:	ea42 0201 	orr.w	r2, r2, r1
 8004350:	f8c0 208c 	str.w	r2, [r0, #140]	@ 0x8c
    if(PeriphClkInit->Sai2ClockSelection == RCC_SAI2CLKSOURCE_PLLI2S)
 8004354:	f000 8229 	beq.w	80047aa <HAL_RCCEx_PeriphCLKConfig+0x4c2>
      plli2sused = 1;
    }
    /* Enable the PLLSAI when it's used as clock source for SAI */
    if(PeriphClkInit->Sai2ClockSelection == RCC_SAI2CLKSOURCE_PLLSAI)
    {
      pllsaiused = 1;
 8004358:	2900      	cmp	r1, #0
 800435a:	bf08      	it	eq
 800435c:	2501      	moveq	r5, #1
  }

  /*-------------------------------------- SPDIF-RX Configuration -----------------------------------*/
  if(((PeriphClkInit->PeriphClockSelection) & RCC_PERIPHCLK_SPDIFRX) == RCC_PERIPHCLK_SPDIFRX)
  {
      plli2sused = 1;
 800435e:	f013 7f80 	tst.w	r3, #16777216	@ 0x1000000
 8004362:	bf18      	it	ne
 8004364:	2601      	movne	r6, #1
  }

  /*------------------------------------ RTC configuration --------------------------------------*/
  if(((PeriphClkInit->PeriphClockSelection) & RCC_PERIPHCLK_RTC) == (RCC_PERIPHCLK_RTC))
 8004366:	069a      	lsls	r2, r3, #26
 8004368:	f100 81d7 	bmi.w	800471a <HAL_RCCEx_PeriphCLKConfig+0x432>
    }
    __HAL_RCC_RTC_CONFIG(PeriphClkInit->RTCClockSelection);
  }

  /*------------------------------------ TIM configuration --------------------------------------*/
  if(((PeriphClkInit->PeriphClockSelection) & RCC_PERIPHCLK_TIM) == (RCC_PERIPHCLK_TIM))
 800436c:	06da      	lsls	r2, r3, #27
 800436e:	d50c      	bpl.n	800438a <HAL_RCCEx_PeriphCLKConfig+0xa2>
  {
    /* Check the parameters */
    assert_param(IS_RCC_TIMPRES(PeriphClkInit->TIMPresSelection));

    /* Configure Timer Prescaler */
    __HAL_RCC_TIMCLKPRESCALER(PeriphClkInit->TIMPresSelection);
 8004370:	4a76      	ldr	r2, [pc, #472]	@ (800454c <HAL_RCCEx_PeriphCLKConfig+0x264>)
 8004372:	f8d2 108c 	ldr.w	r1, [r2, #140]	@ 0x8c
 8004376:	f021 7180 	bic.w	r1, r1, #16777216	@ 0x1000000
 800437a:	f8c2 108c 	str.w	r1, [r2, #140]	@ 0x8c
 800437e:	f8d2 108c 	ldr.w	r1, [r2, #140]	@ 0x8c
 8004382:	6ba0      	ldr	r0, [r4, #56]	@ 0x38
 8004384:	4301      	orrs	r1, r0
 8004386:	f8c2 108c 	str.w	r1, [r2, #140]	@ 0x8c
  }

  /*-------------------------------------- I2C1 Configuration -----------------------------------*/
  if(((PeriphClkInit->PeriphClockSelection) & RCC_PERIPHCLK_I2C1) == RCC_PERIPHCLK_I2C1)
 800438a:	045f      	lsls	r7, r3, #17
 800438c:	d508      	bpl.n	80043a0 <HAL_RCCEx_PeriphCLKConfig+0xb8>
  {
    /* Check the parameters */
    assert_param(IS_RCC_I2C1CLKSOURCE(PeriphClkInit->I2c1ClockSelection));

    /* Configure the I2C1 clock source */
    __HAL_RCC_I2C1_CONFIG(PeriphClkInit->I2c1ClockSelection);
 800438e:	496f      	ldr	r1, [pc, #444]	@ (800454c <HAL_RCCEx_PeriphCLKConfig+0x264>)
 8004390:	6e60      	ldr	r0, [r4, #100]	@ 0x64
 8004392:	f8d1 2090 	ldr.w	r2, [r1, #144]	@ 0x90
 8004396:	f422 3240 	bic.w	r2, r2, #196608	@ 0x30000
 800439a:	4302      	orrs	r2, r0
 800439c:	f8c1 2090 	str.w	r2, [r1, #144]	@ 0x90
  }

  /*-------------------------------------- I2C2 Configuration -----------------------------------*/
  if(((PeriphClkInit->PeriphClockSelection) & RCC_PERIPHCLK_I2C2) == RCC_PERIPHCLK_I2C2)
 80043a0:	0418      	lsls	r0, r3, #16
 80043a2:	d508      	bpl.n	80043b6 <HAL_RCCEx_PeriphCLKConfig+0xce>
  {
    /* Check the parameters */
    assert_param(IS_RCC_I2C2CLKSOURCE(PeriphClkInit->I2c2ClockSelection));

    /* Configure the I2C2 clock source */
    __HAL_RCC_I2C2_CONFIG(PeriphClkInit->I2c2ClockSelection);
 80043a4:	4969      	ldr	r1, [pc, #420]	@ (800454c <HAL_RCCEx_PeriphCLKConfig+0x264>)
 80043a6:	6ea0      	ldr	r0, [r4, #104]	@ 0x68
 80043a8:	f8d1 2090 	ldr.w	r2, [r1, #144]	@ 0x90
 80043ac:	f422 2240 	bic.w	r2, r2, #786432	@ 0xc0000
 80043b0:	4302      	orrs	r2, r0
 80043b2:	f8c1 2090 	str.w	r2, [r1, #144]	@ 0x90
  }

  /*-------------------------------------- I2C3 Configuration -----------------------------------*/
  if(((PeriphClkInit->PeriphClockSelection) & RCC_PERIPHCLK_I2C3) == RCC_PERIPHCLK_I2C3)
 80043b6:	03d9      	lsls	r1, r3, #15
 80043b8:	d508      	bpl.n	80043cc <HAL_RCCEx_PeriphCLKConfig+0xe4>
  {
    /* Check the parameters */
    assert_param(IS_RCC_I2C3CLKSOURCE(PeriphClkInit->I2c3ClockSelection));

    /* Configure the I2C3 clock source */
    __HAL_RCC_I2C3_CONFIG(PeriphClkInit->I2c3ClockSelection);
 80043ba:	4964      	ldr	r1, [pc, #400]	@ (800454c <HAL_RCCEx_PeriphCLKConfig+0x264>)
 80043bc:	6ee0      	ldr	r0, [r4, #108]	@ 0x6c
 80043be:	f8d1 2090 	ldr.w	r2, [r1, #144]	@ 0x90
 80043c2:	f422 1240 	bic.w	r2, r2, #3145728	@ 0x300000
 80043c6:	4302      	orrs	r2, r0
 80043c8:	f8c1 2090 	str.w	r2, [r1, #144]	@ 0x90
  }

  /*-------------------------------------- I2C4 Configuration -----------------------------------*/
  if(((PeriphClkInit->PeriphClockSelection) & RCC_PERIPHCLK_I2C4) == RCC_PERIPHCLK_I2C4)
 80043cc:	039a      	lsls	r2, r3, #14
 80043ce:	d508      	bpl.n	80043e2 <HAL_RCCEx_PeriphCLKConfig+0xfa>
  {
    /* Check the parameters */
    assert_param(IS_RCC_I2C4CLKSOURCE(PeriphClkInit->I2c4ClockSelection));

    /* Configure the I2C4 clock source */
    __HAL_RCC_I2C4_CONFIG(PeriphClkInit->I2c4ClockSelection);
 80043d0:	495e      	ldr	r1, [pc, #376]	@ (800454c <HAL_RCCEx_PeriphCLKConfig+0x264>)
 80043d2:	6f20      	ldr	r0, [r4, #112]	@ 0x70
 80043d4:	f8d1 2090 	ldr.w	r2, [r1, #144]	@ 0x90
 80043d8:	f422 0240 	bic.w	r2, r2, #12582912	@ 0xc00000
 80043dc:	4302      	orrs	r2, r0
 80043de:	f8c1 2090 	str.w	r2, [r1, #144]	@ 0x90
  }

  /*-------------------------------------- USART1 Configuration -----------------------------------*/
  if(((PeriphClkInit->PeriphClockSelection) & RCC_PERIPHCLK_USART1) == RCC_PERIPHCLK_USART1)
 80043e2:	065f      	lsls	r7, r3, #25
 80043e4:	d508      	bpl.n	80043f8 <HAL_RCCEx_PeriphCLKConfig+0x110>
  {
    /* Check the parameters */
    assert_param(IS_RCC_USART1CLKSOURCE(PeriphClkInit->Usart1ClockSelection));

    /* Configure the USART1 clock source */
    __HAL_RCC_USART1_CONFIG(PeriphClkInit->Usart1ClockSelection);
 80043e6:	4959      	ldr	r1, [pc, #356]	@ (800454c <HAL_RCCEx_PeriphCLKConfig+0x264>)
 80043e8:	6c60      	ldr	r0, [r4, #68]	@ 0x44
 80043ea:	f8d1 2090 	ldr.w	r2, [r1, #144]	@ 0x90
 80043ee:	f022 0203 	bic.w	r2, r2, #3
 80043f2:	4302      	orrs	r2, r0
 80043f4:	f8c1 2090 	str.w	r2, [r1, #144]	@ 0x90
  }

  /*-------------------------------------- USART2 Configuration -----------------------------------*/
  if(((PeriphClkInit->PeriphClockSelection) & RCC_PERIPHCLK_USART2) == RCC_PERIPHCLK_USART2)
 80043f8:	0618      	lsls	r0, r3, #24
 80043fa:	d508      	bpl.n	800440e <HAL_RCCEx_PeriphCLKConfig+0x126>
  {
    /* Check the parameters */
    assert_param(IS_RCC_USART2CLKSOURCE(PeriphClkInit->Usart2ClockSelection));

    /* Configure the USART2 clock source */
    __HAL_RCC_USART2_CONFIG(PeriphClkInit->Usart2ClockSelection);
 80043fc:	4953      	ldr	r1, [pc, #332]	@ (800454c <HAL_RCCEx_PeriphCLKConfig+0x264>)
 80043fe:	6ca0      	ldr	r0, [r4, #72]	@ 0x48
 8004400:	f8d1 2090 	ldr.w	r2, [r1, #144]	@ 0x90
 8004404:	f022 020c 	bic.w	r2, r2, #12
 8004408:	4302      	orrs	r2, r0
 800440a:	f8c1 2090 	str.w	r2, [r1, #144]	@ 0x90
  }

  /*-------------------------------------- USART3 Configuration -----------------------------------*/
  if(((PeriphClkInit->PeriphClockSelection) & RCC_PERIPHCLK_USART3) == RCC_PERIPHCLK_USART3)
 800440e:	05d9      	lsls	r1, r3, #23
 8004410:	d508      	bpl.n	8004424 <HAL_RCCEx_PeriphCLKConfig+0x13c>
  {
    /* Check the parameters */
    assert_param(IS_RCC_USART3CLKSOURCE(PeriphClkInit->Usart3ClockSelection));

    /* Configure the USART3 clock source */
    __HAL_RCC_USART3_CONFIG(PeriphClkInit->Usart3ClockSelection);
 8004412:	494e      	ldr	r1, [pc, #312]	@ (800454c <HAL_RCCEx_PeriphCLKConfig+0x264>)
 8004414:	6ce0      	ldr	r0, [r4, #76]	@ 0x4c
 8004416:	f8d1 2090 	ldr.w	r2, [r1, #144]	@ 0x90
 800441a:	f022 0230 	bic.w	r2, r2, #48	@ 0x30
 800441e:	4302      	orrs	r2, r0
 8004420:	f8c1 2090 	str.w	r2, [r1, #144]	@ 0x90
  }

  /*-------------------------------------- UART4 Configuration -----------------------------------*/
  if(((PeriphClkInit->PeriphClockSelection) & RCC_PERIPHCLK_UART4) == RCC_PERIPHCLK_UART4)
 8004424:	059a      	lsls	r2, r3, #22
 8004426:	d508      	bpl.n	800443a <HAL_RCCEx_PeriphCLKConfig+0x152>
  {
    /* Check the parameters */
    assert_param(IS_RCC_UART4CLKSOURCE(PeriphClkInit->Uart4ClockSelection));

    /* Configure the UART4 clock source */
    __HAL_RCC_UART4_CONFIG(PeriphClkInit->Uart4ClockSelection);
 8004428:	4948      	ldr	r1, [pc, #288]	@ (800454c <HAL_RCCEx_PeriphCLKConfig+0x264>)
 800442a:	6d20      	ldr	r0, [r4, #80]	@ 0x50
 800442c:	f8d1 2090 	ldr.w	r2, [r1, #144]	@ 0x90
 8004430:	f022 02c0 	bic.w	r2, r2, #192	@ 0xc0
 8004434:	4302      	orrs	r2, r0
 8004436:	f8c1 2090 	str.w	r2, [r1, #144]	@ 0x90
  }

  /*-------------------------------------- UART5 Configuration -----------------------------------*/
  if(((PeriphClkInit->PeriphClockSelection) & RCC_PERIPHCLK_UART5) == RCC_PERIPHCLK_UART5)
 800443a:	055f      	lsls	r7, r3, #21
 800443c:	d508      	bpl.n	8004450 <HAL_RCCEx_PeriphCLKConfig+0x168>
  {
    /* Check the parameters */
    assert_param(IS_RCC_UART5CLKSOURCE(PeriphClkInit->Uart5ClockSelection));

    /* Configure the UART5 clock source */
    __HAL_RCC_UART5_CONFIG(PeriphClkInit->Uart5ClockSelection);
 800443e:	4943      	ldr	r1, [pc, #268]	@ (800454c <HAL_RCCEx_PeriphCLKConfig+0x264>)
 8004440:	6d60      	ldr	r0, [r4, #84]	@ 0x54
 8004442:	f8d1 2090 	ldr.w	r2, [r1, #144]	@ 0x90
 8004446:	f422 7240 	bic.w	r2, r2, #768	@ 0x300
 800444a:	4302      	orrs	r2, r0
 800444c:	f8c1 2090 	str.w	r2, [r1, #144]	@ 0x90
  }

  /*-------------------------------------- USART6 Configuration -----------------------------------*/
  if(((PeriphClkInit->PeriphClockSelection) & RCC_PERIPHCLK_USART6) == RCC_PERIPHCLK_USART6)
 8004450:	0518      	lsls	r0, r3, #20
 8004452:	d508      	bpl.n	8004466 <HAL_RCCEx_PeriphCLKConfig+0x17e>
  {
    /* Check the parameters */
    assert_param(IS_RCC_USART6CLKSOURCE(PeriphClkInit->Usart6ClockSelection));

    /* Configure the USART6 clock source */
    __HAL_RCC_USART6_CONFIG(PeriphClkInit->Usart6ClockSelection);
 8004454:	493d      	ldr	r1, [pc, #244]	@ (800454c <HAL_RCCEx_PeriphCLKConfig+0x264>)
 8004456:	6da0      	ldr	r0, [r4, #88]	@ 0x58
 8004458:	f8d1 2090 	ldr.w	r2, [r1, #144]	@ 0x90
 800445c:	f422 6240 	bic.w	r2, r2, #3072	@ 0xc00
 8004460:	4302      	orrs	r2, r0
 8004462:	f8c1 2090 	str.w	r2, [r1, #144]	@ 0x90
  }

  /*-------------------------------------- UART7 Configuration -----------------------------------*/
  if(((PeriphClkInit->PeriphClockSelection) & RCC_PERIPHCLK_UART7) == RCC_PERIPHCLK_UART7)
 8004466:	04d9      	lsls	r1, r3, #19
 8004468:	d508      	bpl.n	800447c <HAL_RCCEx_PeriphCLKConfig+0x194>
  {
    /* Check the parameters */
    assert_param(IS_RCC_UART7CLKSOURCE(PeriphClkInit->Uart7ClockSelection));

    /* Configure the UART7 clock source */
    __HAL_RCC_UART7_CONFIG(PeriphClkInit->Uart7ClockSelection);
 800446a:	4938      	ldr	r1, [pc, #224]	@ (800454c <HAL_RCCEx_PeriphCLKConfig+0x264>)
 800446c:	6de0      	ldr	r0, [r4, #92]	@ 0x5c
 800446e:	f8d1 2090 	ldr.w	r2, [r1, #144]	@ 0x90
 8004472:	f422 5240 	bic.w	r2, r2, #12288	@ 0x3000
 8004476:	4302      	orrs	r2, r0
 8004478:	f8c1 2090 	str.w	r2, [r1, #144]	@ 0x90
  }

  /*-------------------------------------- UART8 Configuration -----------------------------------*/
  if(((PeriphClkInit->PeriphClockSelection) & RCC_PERIPHCLK_UART8) == RCC_PERIPHCLK_UART8)
 800447c:	049a      	lsls	r2, r3, #18
 800447e:	d508      	bpl.n	8004492 <HAL_RCCEx_PeriphCLKConfig+0x1aa>
  {
    /* Check the parameters */
    assert_param(IS_RCC_UART8CLKSOURCE(PeriphClkInit->Uart8ClockSelection));

    /* Configure the UART8 clock source */
    __HAL_RCC_UART8_CONFIG(PeriphClkInit->Uart8ClockSelection);
 8004480:	4932      	ldr	r1, [pc, #200]	@ (800454c <HAL_RCCEx_PeriphCLKConfig+0x264>)
 8004482:	6e20      	ldr	r0, [r4, #96]	@ 0x60
 8004484:	f8d1 2090 	ldr.w	r2, [r1, #144]	@ 0x90
 8004488:	f422 4240 	bic.w	r2, r2, #49152	@ 0xc000
 800448c:	4302      	orrs	r2, r0
 800448e:	f8c1 2090 	str.w	r2, [r1, #144]	@ 0x90
  }

  /*--------------------------------------- CEC Configuration -----------------------------------*/
  if(((PeriphClkInit->PeriphClockSelection) & RCC_PERIPHCLK_CEC) == RCC_PERIPHCLK_CEC)
 8004492:	025f      	lsls	r7, r3, #9
 8004494:	d508      	bpl.n	80044a8 <HAL_RCCEx_PeriphCLKConfig+0x1c0>
  {
    /* Check the parameters */
    assert_param(IS_RCC_CECCLKSOURCE(PeriphClkInit->CecClockSelection));

    /* Configure the CEC clock source */
    __HAL_RCC_CEC_CONFIG(PeriphClkInit->CecClockSelection);
 8004496:	492d      	ldr	r1, [pc, #180]	@ (800454c <HAL_RCCEx_PeriphCLKConfig+0x264>)
 8004498:	6fa0      	ldr	r0, [r4, #120]	@ 0x78
 800449a:	f8d1 2090 	ldr.w	r2, [r1, #144]	@ 0x90
 800449e:	f022 6280 	bic.w	r2, r2, #67108864	@ 0x4000000
 80044a2:	4302      	orrs	r2, r0
 80044a4:	f8c1 2090 	str.w	r2, [r1, #144]	@ 0x90
  }

  /*-------------------------------------- CK48 Configuration -----------------------------------*/
  if(((PeriphClkInit->PeriphClockSelection) & RCC_PERIPHCLK_CLK48) == RCC_PERIPHCLK_CLK48)
 80044a8:	0298      	lsls	r0, r3, #10
 80044aa:	d50c      	bpl.n	80044c6 <HAL_RCCEx_PeriphCLKConfig+0x1de>
  {
    /* Check the parameters */
    assert_param(IS_RCC_CLK48SOURCE(PeriphClkInit->Clk48ClockSelection));

    /* Configure the CLK48 source */
    __HAL_RCC_CLK48_CONFIG(PeriphClkInit->Clk48ClockSelection);
 80044ac:	4927      	ldr	r1, [pc, #156]	@ (800454c <HAL_RCCEx_PeriphCLKConfig+0x264>)
 80044ae:	6fe0      	ldr	r0, [r4, #124]	@ 0x7c
 80044b0:	f8d1 2090 	ldr.w	r2, [r1, #144]	@ 0x90

    /* Enable the PLLSAI when it's used as clock source for CK48 */
    if(PeriphClkInit->Clk48ClockSelection == RCC_CLK48SOURCE_PLLSAIP)
    {
      pllsaiused = 1;
 80044b4:	f1b0 6f00 	cmp.w	r0, #134217728	@ 0x8000000
    __HAL_RCC_CLK48_CONFIG(PeriphClkInit->Clk48ClockSelection);
 80044b8:	f022 6200 	bic.w	r2, r2, #134217728	@ 0x8000000
      pllsaiused = 1;
 80044bc:	bf08      	it	eq
 80044be:	2501      	moveq	r5, #1
    __HAL_RCC_CLK48_CONFIG(PeriphClkInit->Clk48ClockSelection);
 80044c0:	4302      	orrs	r2, r0
 80044c2:	f8c1 2090 	str.w	r2, [r1, #144]	@ 0x90

  /*-------------------------------------- LTDC Configuration -----------------------------------*/
#if defined(STM32F746xx) || defined(STM32F756xx) || defined (STM32F767xx) || defined (STM32F769xx) || defined (STM32F777xx) || defined (STM32F779xx) || defined (STM32F750xx)
  if(((PeriphClkInit->PeriphClockSelection) & RCC_PERIPHCLK_LTDC) == RCC_PERIPHCLK_LTDC)
  {
    pllsaiused = 1;
 80044c6:	f013 0f08 	tst.w	r3, #8
 80044ca:	bf18      	it	ne
 80044cc:	2501      	movne	r5, #1
  }
#endif /* STM32F746xx || STM32F756xx || STM32F767xx || STM32F769xx || STM32F777xx || STM32F779xx || STM32F750xx */

  /*-------------------------------------- LPTIM1 Configuration -----------------------------------*/
  if(((PeriphClkInit->PeriphClockSelection) & RCC_PERIPHCLK_LPTIM1) == RCC_PERIPHCLK_LPTIM1)
 80044ce:	0359      	lsls	r1, r3, #13
 80044d0:	d508      	bpl.n	80044e4 <HAL_RCCEx_PeriphCLKConfig+0x1fc>
  {
    /* Check the parameters */
    assert_param(IS_RCC_LPTIM1CLK(PeriphClkInit->Lptim1ClockSelection));

    /* Configure the LTPIM1 clock source */
    __HAL_RCC_LPTIM1_CONFIG(PeriphClkInit->Lptim1ClockSelection);
 80044d2:	491e      	ldr	r1, [pc, #120]	@ (800454c <HAL_RCCEx_PeriphCLKConfig+0x264>)
 80044d4:	6f60      	ldr	r0, [r4, #116]	@ 0x74
 80044d6:	f8d1 2090 	ldr.w	r2, [r1, #144]	@ 0x90
 80044da:	f022 7240 	bic.w	r2, r2, #50331648	@ 0x3000000
 80044de:	4302      	orrs	r2, r0
 80044e0:	f8c1 2090 	str.w	r2, [r1, #144]	@ 0x90
   }

  /*------------------------------------- SDMMC1 Configuration ------------------------------------*/
  if(((PeriphClkInit->PeriphClockSelection) & RCC_PERIPHCLK_SDMMC1) == RCC_PERIPHCLK_SDMMC1)
 80044e4:	021a      	lsls	r2, r3, #8
 80044e6:	d509      	bpl.n	80044fc <HAL_RCCEx_PeriphCLKConfig+0x214>
  {
    /* Check the parameters */
    assert_param(IS_RCC_SDMMC1CLKSOURCE(PeriphClkInit->Sdmmc1ClockSelection));

    /* Configure the SDMMC1 clock source */
    __HAL_RCC_SDMMC1_CONFIG(PeriphClkInit->Sdmmc1ClockSelection);
 80044e8:	4918      	ldr	r1, [pc, #96]	@ (800454c <HAL_RCCEx_PeriphCLKConfig+0x264>)
 80044ea:	f8d4 0080 	ldr.w	r0, [r4, #128]	@ 0x80
 80044ee:	f8d1 2090 	ldr.w	r2, [r1, #144]	@ 0x90
 80044f2:	f022 5280 	bic.w	r2, r2, #268435456	@ 0x10000000
 80044f6:	4302      	orrs	r2, r0
 80044f8:	f8c1 2090 	str.w	r2, [r1, #144]	@ 0x90
  }

#if defined (STM32F765xx) || defined (STM32F767xx) || defined (STM32F769xx) || defined (STM32F777xx) || defined (STM32F779xx)
  /*------------------------------------- SDMMC2 Configuration ------------------------------------*/
  if(((PeriphClkInit->PeriphClockSelection) & RCC_PERIPHCLK_SDMMC2) == RCC_PERIPHCLK_SDMMC2)
 80044fc:	015f      	lsls	r7, r3, #5
 80044fe:	d509      	bpl.n	8004514 <HAL_RCCEx_PeriphCLKConfig+0x22c>
  {
    /* Check the parameters */
    assert_param(IS_RCC_SDMMC2CLKSOURCE(PeriphClkInit->Sdmmc2ClockSelection));

    /* Configure the SDMMC2 clock source */
    __HAL_RCC_SDMMC2_CONFIG(PeriphClkInit->Sdmmc2ClockSelection);
 8004500:	4912      	ldr	r1, [pc, #72]	@ (800454c <HAL_RCCEx_PeriphCLKConfig+0x264>)
 8004502:	f8d4 0084 	ldr.w	r0, [r4, #132]	@ 0x84
 8004506:	f8d1 2090 	ldr.w	r2, [r1, #144]	@ 0x90
 800450a:	f022 5200 	bic.w	r2, r2, #536870912	@ 0x20000000
 800450e:	4302      	orrs	r2, r0
 8004510:	f8c1 2090 	str.w	r2, [r1, #144]	@ 0x90
  }

  /*------------------------------------- DFSDM1 Configuration -------------------------------------*/
  if(((PeriphClkInit->PeriphClockSelection) & RCC_PERIPHCLK_DFSDM1) == RCC_PERIPHCLK_DFSDM1)
 8004514:	0118      	lsls	r0, r3, #4
 8004516:	d509      	bpl.n	800452c <HAL_RCCEx_PeriphCLKConfig+0x244>
  {
    /* Check the parameters */
    assert_param(IS_RCC_DFSDM1CLKSOURCE(PeriphClkInit->Dfsdm1ClockSelection));

    /* Configure the DFSDM1 interface clock source */
    __HAL_RCC_DFSDM1_CONFIG(PeriphClkInit->Dfsdm1ClockSelection);
 8004518:	490c      	ldr	r1, [pc, #48]	@ (800454c <HAL_RCCEx_PeriphCLKConfig+0x264>)
 800451a:	f8d4 0088 	ldr.w	r0, [r4, #136]	@ 0x88
 800451e:	f8d1 208c 	ldr.w	r2, [r1, #140]	@ 0x8c
 8004522:	f022 7200 	bic.w	r2, r2, #33554432	@ 0x2000000
 8004526:	4302      	orrs	r2, r0
 8004528:	f8c1 208c 	str.w	r2, [r1, #140]	@ 0x8c
  }

  /*------------------------------------- DFSDM AUDIO Configuration -------------------------------------*/
  if(((PeriphClkInit->PeriphClockSelection) & RCC_PERIPHCLK_DFSDM1_AUDIO) == RCC_PERIPHCLK_DFSDM1_AUDIO)
 800452c:	00d9      	lsls	r1, r3, #3
 800452e:	d46b      	bmi.n	8004608 <HAL_RCCEx_PeriphCLKConfig+0x320>
  }
#endif /* STM32F767xx || STM32F769xx || STM32F777xx || STM32F779xx */

  /*-------------------------------------- PLLI2S Configuration ---------------------------------*/
  /* PLLI2S is configured when a peripheral will use it as source clock : SAI1, SAI2, I2S or SPDIF-RX */
  if((plli2sused == 1) || ((PeriphClkInit->PeriphClockSelection & RCC_PERIPHCLK_PLLI2S) == RCC_PERIPHCLK_PLLI2S))
 8004530:	2e01      	cmp	r6, #1
 8004532:	d001      	beq.n	8004538 <HAL_RCCEx_PeriphCLKConfig+0x250>
 8004534:	019a      	lsls	r2, r3, #6
 8004536:	d561      	bpl.n	80045fc <HAL_RCCEx_PeriphCLKConfig+0x314>
  {
    /* Disable the PLLI2S */
    __HAL_RCC_PLLI2S_DISABLE();
 8004538:	4e04      	ldr	r6, [pc, #16]	@ (800454c <HAL_RCCEx_PeriphCLKConfig+0x264>)
 800453a:	6833      	ldr	r3, [r6, #0]
 800453c:	f023 6380 	bic.w	r3, r3, #67108864	@ 0x4000000
 8004540:	6033      	str	r3, [r6, #0]

    /* Get Start Tick*/
    tickstart = HAL_GetTick();
 8004542:	f7fe f9c5 	bl	80028d0 <HAL_GetTick>
 8004546:	4607      	mov	r7, r0

    /* Wait till PLLI2S is disabled */
    while(__HAL_RCC_GET_FLAG(RCC_FLAG_PLLI2SRDY)  != RESET)
 8004548:	e008      	b.n	800455c <HAL_RCCEx_PeriphCLKConfig+0x274>
 800454a:	bf00      	nop
 800454c:	40023800 	.word	0x40023800
    {
      if((HAL_GetTick() - tickstart) > PLLI2S_TIMEOUT_VALUE)
 8004550:	f7fe f9be 	bl	80028d0 <HAL_GetTick>
 8004554:	1bc3      	subs	r3, r0, r7
 8004556:	2b64      	cmp	r3, #100	@ 0x64
 8004558:	f200 80db 	bhi.w	8004712 <HAL_RCCEx_PeriphCLKConfig+0x42a>
    while(__HAL_RCC_GET_FLAG(RCC_FLAG_PLLI2SRDY)  != RESET)
 800455c:	6833      	ldr	r3, [r6, #0]
 800455e:	011b      	lsls	r3, r3, #4
 8004560:	d4f6      	bmi.n	8004550 <HAL_RCCEx_PeriphCLKConfig+0x268>

    /* check for common PLLI2S Parameters */
    assert_param(IS_RCC_PLLI2SN_VALUE(PeriphClkInit->PLLI2S.PLLI2SN));

    /*----------------- In Case of PLLI2S is selected as source clock for I2S -------------------*/
    if(((((PeriphClkInit->PeriphClockSelection) & RCC_PERIPHCLK_I2S) == RCC_PERIPHCLK_I2S) && (PeriphClkInit->I2sClockSelection == RCC_I2SCLKSOURCE_PLLI2S)))
 8004562:	6823      	ldr	r3, [r4, #0]
 8004564:	07df      	lsls	r7, r3, #31
 8004566:	d512      	bpl.n	800458e <HAL_RCCEx_PeriphCLKConfig+0x2a6>
 8004568:	6b62      	ldr	r2, [r4, #52]	@ 0x34
 800456a:	b982      	cbnz	r2, 800458e <HAL_RCCEx_PeriphCLKConfig+0x2a6>
    {
      /* check for Parameters */
      assert_param(IS_RCC_PLLI2SR_VALUE(PeriphClkInit->PLLI2S.PLLI2SR));

      /* Read PLLI2SP and PLLI2SQ value from PLLI2SCFGR register (this value is not needed for I2S configuration) */
      tmpreg0 = ((RCC->PLLI2SCFGR & RCC_PLLI2SCFGR_PLLI2SP) >> RCC_PLLI2SCFGR_PLLI2SP_Pos);
 800456c:	f8d6 2084 	ldr.w	r2, [r6, #132]	@ 0x84
      tmpreg1 = ((RCC->PLLI2SCFGR & RCC_PLLI2SCFGR_PLLI2SQ) >> RCC_PLLI2SCFGR_PLLI2SQ_Pos);
 8004570:	f8d6 1084 	ldr.w	r1, [r6, #132]	@ 0x84
      /* Configure the PLLI2S division factors */
      /* PLLI2S_VCO = f(VCO clock) = f(PLLI2S clock input) x (PLLI2SN/PLLM) */
      /* I2SCLK = f(PLLI2S clock output) = f(VCO clock) / PLLI2SR */
      __HAL_RCC_PLLI2S_CONFIG(PeriphClkInit->PLLI2S.PLLI2SN , tmpreg0, tmpreg1, PeriphClkInit->PLLI2S.PLLI2SR);
 8004574:	f402 3240 	and.w	r2, r2, #196608	@ 0x30000
 8004578:	f001 6170 	and.w	r1, r1, #251658240	@ 0xf000000
 800457c:	430a      	orrs	r2, r1
 800457e:	6861      	ldr	r1, [r4, #4]
 8004580:	ea42 1281 	orr.w	r2, r2, r1, lsl #6
 8004584:	68a1      	ldr	r1, [r4, #8]
 8004586:	ea42 7201 	orr.w	r2, r2, r1, lsl #28
 800458a:	f8c6 2084 	str.w	r2, [r6, #132]	@ 0x84
    }

    /*----------------- In Case of PLLI2S is selected as source clock for SAI -------------------*/
    if(((((PeriphClkInit->PeriphClockSelection) & RCC_PERIPHCLK_SAI1) == RCC_PERIPHCLK_SAI1) && (PeriphClkInit->Sai1ClockSelection == RCC_SAI1CLKSOURCE_PLLI2S)) ||
 800458e:	031e      	lsls	r6, r3, #12
 8004590:	d504      	bpl.n	800459c <HAL_RCCEx_PeriphCLKConfig+0x2b4>
 8004592:	6be2      	ldr	r2, [r4, #60]	@ 0x3c
 8004594:	f5b2 1f80 	cmp.w	r2, #1048576	@ 0x100000
 8004598:	f000 8118 	beq.w	80047cc <HAL_RCCEx_PeriphCLKConfig+0x4e4>
 800459c:	02d8      	lsls	r0, r3, #11
 800459e:	d504      	bpl.n	80045aa <HAL_RCCEx_PeriphCLKConfig+0x2c2>
       ((((PeriphClkInit->PeriphClockSelection) & RCC_PERIPHCLK_SAI2) == RCC_PERIPHCLK_SAI2) && (PeriphClkInit->Sai2ClockSelection == RCC_SAI2CLKSOURCE_PLLI2S)))
 80045a0:	6c22      	ldr	r2, [r4, #64]	@ 0x40
 80045a2:	f5b2 0f80 	cmp.w	r2, #4194304	@ 0x400000
 80045a6:	f000 8111 	beq.w	80047cc <HAL_RCCEx_PeriphCLKConfig+0x4e4>
      /* SAI_CLK_x = SAI_CLK(first level)/PLLI2SDIVQ */
      __HAL_RCC_PLLI2S_PLLSAICLKDIVQ_CONFIG(PeriphClkInit->PLLI2SDivQ);
    }

    /*----------------- In Case of PLLI2S is selected as source clock for SPDIF-RX -------------------*/
    if(((PeriphClkInit->PeriphClockSelection) & RCC_PERIPHCLK_SPDIFRX) == RCC_PERIPHCLK_SPDIFRX)
 80045aa:	01d9      	lsls	r1, r3, #7
 80045ac:	d511      	bpl.n	80045d2 <HAL_RCCEx_PeriphCLKConfig+0x2ea>
    {
      /* check for Parameters */
      assert_param(IS_RCC_PLLI2SP_VALUE(PeriphClkInit->PLLI2S.PLLI2SP));

     /* Read PLLI2SR value from PLLI2SCFGR register (this value is not needed for SPDIF-RX configuration) */
      tmpreg0 = ((RCC->PLLI2SCFGR & RCC_PLLI2SCFGR_PLLI2SQ) >> RCC_PLLI2SCFGR_PLLI2SQ_Pos);
 80045ae:	49a8      	ldr	r1, [pc, #672]	@ (8004850 <HAL_RCCEx_PeriphCLKConfig+0x568>)
 80045b0:	f8d1 2084 	ldr.w	r2, [r1, #132]	@ 0x84
      tmpreg1 = ((RCC->PLLI2SCFGR & RCC_PLLI2SCFGR_PLLI2SR) >> RCC_PLLI2SCFGR_PLLI2SR_Pos);
 80045b4:	f8d1 0084 	ldr.w	r0, [r1, #132]	@ 0x84
      /* Configure the PLLI2S division factors */
      /* PLLI2S_VCO = f(VCO clock) = f(PLLI2S clock input) x (PLLI2SN/PLLM) */
      /* SPDIFCLK = f(PLLI2S clock output) = f(VCO clock) / PLLI2SP */
      __HAL_RCC_PLLI2S_CONFIG(PeriphClkInit->PLLI2S.PLLI2SN , PeriphClkInit->PLLI2S.PLLI2SP, tmpreg0, tmpreg1);
 80045b8:	f002 6270 	and.w	r2, r2, #251658240	@ 0xf000000
 80045bc:	f000 40e0 	and.w	r0, r0, #1879048192	@ 0x70000000
 80045c0:	4302      	orrs	r2, r0
 80045c2:	6860      	ldr	r0, [r4, #4]
 80045c4:	ea42 1280 	orr.w	r2, r2, r0, lsl #6
 80045c8:	6920      	ldr	r0, [r4, #16]
 80045ca:	ea42 4200 	orr.w	r2, r2, r0, lsl #16
 80045ce:	f8c1 2084 	str.w	r2, [r1, #132]	@ 0x84
    }

    /*----------------- In Case of PLLI2S is just selected  -----------------*/
    if((PeriphClkInit->PeriphClockSelection & RCC_PERIPHCLK_PLLI2S) == RCC_PERIPHCLK_PLLI2S)
 80045d2:	019a      	lsls	r2, r3, #6
 80045d4:	f100 80eb 	bmi.w	80047ae <HAL_RCCEx_PeriphCLKConfig+0x4c6>
      /* SPDIFRXCLK = f(PLLI2S clock output) = f(VCO clock) / PLLI2SP */
      __HAL_RCC_PLLI2S_CONFIG(PeriphClkInit->PLLI2S.PLLI2SN , PeriphClkInit->PLLI2S.PLLI2SP, PeriphClkInit->PLLI2S.PLLI2SQ, PeriphClkInit->PLLI2S.PLLI2SR);
    }

    /* Enable the PLLI2S */
    __HAL_RCC_PLLI2S_ENABLE();
 80045d8:	4e9d      	ldr	r6, [pc, #628]	@ (8004850 <HAL_RCCEx_PeriphCLKConfig+0x568>)
 80045da:	6833      	ldr	r3, [r6, #0]
 80045dc:	f043 6380 	orr.w	r3, r3, #67108864	@ 0x4000000
 80045e0:	6033      	str	r3, [r6, #0]

    /* Get Start Tick*/
    tickstart = HAL_GetTick();
 80045e2:	f7fe f975 	bl	80028d0 <HAL_GetTick>
 80045e6:	4607      	mov	r7, r0

    /* Wait till PLLI2S is ready */
    while(__HAL_RCC_GET_FLAG(RCC_FLAG_PLLI2SRDY)  == RESET)
 80045e8:	e005      	b.n	80045f6 <HAL_RCCEx_PeriphCLKConfig+0x30e>
    {
      if((HAL_GetTick() - tickstart) > PLLI2S_TIMEOUT_VALUE)
 80045ea:	f7fe f971 	bl	80028d0 <HAL_GetTick>
 80045ee:	1bc0      	subs	r0, r0, r7
 80045f0:	2864      	cmp	r0, #100	@ 0x64
 80045f2:	f200 808e 	bhi.w	8004712 <HAL_RCCEx_PeriphCLKConfig+0x42a>
    while(__HAL_RCC_GET_FLAG(RCC_FLAG_PLLI2SRDY)  == RESET)
 80045f6:	6833      	ldr	r3, [r6, #0]
 80045f8:	011b      	lsls	r3, r3, #4
 80045fa:	d5f6      	bpl.n	80045ea <HAL_RCCEx_PeriphCLKConfig+0x302>
    }
  }

  /*-------------------------------------- PLLSAI Configuration ---------------------------------*/
  /* PLLSAI is configured when a peripheral will use it as source clock : SAI1, SAI2, LTDC or CK48 */
  if(pllsaiused == 1)
 80045fc:	2d01      	cmp	r5, #1
 80045fe:	d00e      	beq.n	800461e <HAL_RCCEx_PeriphCLKConfig+0x336>
        /* return in case of Timeout detected */
        return HAL_TIMEOUT;
      }
    }
  }
  return HAL_OK;
 8004600:	2000      	movs	r0, #0
}
 8004602:	b003      	add	sp, #12
 8004604:	e8bd 83f0 	ldmia.w	sp!, {r4, r5, r6, r7, r8, r9, pc}
    __HAL_RCC_DFSDM1AUDIO_CONFIG(PeriphClkInit->Dfsdm1AudioClockSelection);
 8004608:	4991      	ldr	r1, [pc, #580]	@ (8004850 <HAL_RCCEx_PeriphCLKConfig+0x568>)
 800460a:	f8d4 008c 	ldr.w	r0, [r4, #140]	@ 0x8c
 800460e:	f8d1 208c 	ldr.w	r2, [r1, #140]	@ 0x8c
 8004612:	f022 6280 	bic.w	r2, r2, #67108864	@ 0x4000000
 8004616:	4302      	orrs	r2, r0
 8004618:	f8c1 208c 	str.w	r2, [r1, #140]	@ 0x8c
 800461c:	e788      	b.n	8004530 <HAL_RCCEx_PeriphCLKConfig+0x248>
    __HAL_RCC_PLLSAI_DISABLE();
 800461e:	4d8c      	ldr	r5, [pc, #560]	@ (8004850 <HAL_RCCEx_PeriphCLKConfig+0x568>)
 8004620:	682b      	ldr	r3, [r5, #0]
 8004622:	f023 5380 	bic.w	r3, r3, #268435456	@ 0x10000000
 8004626:	602b      	str	r3, [r5, #0]
    tickstart = HAL_GetTick();
 8004628:	f7fe f952 	bl	80028d0 <HAL_GetTick>
 800462c:	4606      	mov	r6, r0
    while(__HAL_RCC_PLLSAI_GET_FLAG() != RESET)
 800462e:	e004      	b.n	800463a <HAL_RCCEx_PeriphCLKConfig+0x352>
      if((HAL_GetTick() - tickstart) > PLLSAI_TIMEOUT_VALUE)
 8004630:	f7fe f94e 	bl	80028d0 <HAL_GetTick>
 8004634:	1b80      	subs	r0, r0, r6
 8004636:	2864      	cmp	r0, #100	@ 0x64
 8004638:	d86b      	bhi.n	8004712 <HAL_RCCEx_PeriphCLKConfig+0x42a>
    while(__HAL_RCC_PLLSAI_GET_FLAG() != RESET)
 800463a:	682b      	ldr	r3, [r5, #0]
 800463c:	009f      	lsls	r7, r3, #2
 800463e:	d4f7      	bmi.n	8004630 <HAL_RCCEx_PeriphCLKConfig+0x348>
    if(((((PeriphClkInit->PeriphClockSelection) & RCC_PERIPHCLK_SAI1) == RCC_PERIPHCLK_SAI1) && (PeriphClkInit->Sai1ClockSelection == RCC_SAI1CLKSOURCE_PLLSAI)) ||\
 8004640:	6823      	ldr	r3, [r4, #0]
 8004642:	031d      	lsls	r5, r3, #12
 8004644:	f140 80fb 	bpl.w	800483e <HAL_RCCEx_PeriphCLKConfig+0x556>
 8004648:	6be2      	ldr	r2, [r4, #60]	@ 0x3c
 800464a:	2a00      	cmp	r2, #0
 800464c:	f040 80f7 	bne.w	800483e <HAL_RCCEx_PeriphCLKConfig+0x556>
      tmpreg0 = ((RCC->PLLSAICFGR & RCC_PLLSAICFGR_PLLSAIP) >> RCC_PLLSAICFGR_PLLSAIP_Pos);
 8004650:	497f      	ldr	r1, [pc, #508]	@ (8004850 <HAL_RCCEx_PeriphCLKConfig+0x568>)
 8004652:	f8d1 2088 	ldr.w	r2, [r1, #136]	@ 0x88
      tmpreg1 = ((RCC->PLLSAICFGR & RCC_PLLI2SCFGR_PLLI2SR) >> RCC_PLLSAICFGR_PLLSAIR_Pos);
 8004656:	f8d1 0088 	ldr.w	r0, [r1, #136]	@ 0x88
      __HAL_RCC_PLLSAI_CONFIG(PeriphClkInit->PLLSAI.PLLSAIN , tmpreg0, PeriphClkInit->PLLSAI.PLLSAIQ, tmpreg1);
 800465a:	f402 3240 	and.w	r2, r2, #196608	@ 0x30000
 800465e:	f000 40e0 	and.w	r0, r0, #1879048192	@ 0x70000000
 8004662:	4302      	orrs	r2, r0
 8004664:	6960      	ldr	r0, [r4, #20]
 8004666:	ea42 1280 	orr.w	r2, r2, r0, lsl #6
 800466a:	69a0      	ldr	r0, [r4, #24]
 800466c:	ea42 6200 	orr.w	r2, r2, r0, lsl #24
 8004670:	f8c1 2088 	str.w	r2, [r1, #136]	@ 0x88
      __HAL_RCC_PLLSAI_PLLSAICLKDIVQ_CONFIG(PeriphClkInit->PLLSAIDivQ);
 8004674:	f8d1 208c 	ldr.w	r2, [r1, #140]	@ 0x8c
 8004678:	6aa0      	ldr	r0, [r4, #40]	@ 0x28
 800467a:	f422 52f8 	bic.w	r2, r2, #7936	@ 0x1f00
 800467e:	3801      	subs	r0, #1
 8004680:	ea42 2200 	orr.w	r2, r2, r0, lsl #8
 8004684:	f8c1 208c 	str.w	r2, [r1, #140]	@ 0x8c
    if((((PeriphClkInit->PeriphClockSelection) & RCC_PERIPHCLK_CLK48) == RCC_PERIPHCLK_CLK48) && (PeriphClkInit->Clk48ClockSelection == RCC_CLK48SOURCE_PLLSAIP))
 8004688:	0299      	lsls	r1, r3, #10
 800468a:	d515      	bpl.n	80046b8 <HAL_RCCEx_PeriphCLKConfig+0x3d0>
 800468c:	6fe2      	ldr	r2, [r4, #124]	@ 0x7c
 800468e:	f1b2 6f00 	cmp.w	r2, #134217728	@ 0x8000000
 8004692:	d111      	bne.n	80046b8 <HAL_RCCEx_PeriphCLKConfig+0x3d0>
      tmpreg0 = ((RCC->PLLSAICFGR & RCC_PLLSAICFGR_PLLSAIQ) >> RCC_PLLSAICFGR_PLLSAIQ_Pos);
 8004694:	496e      	ldr	r1, [pc, #440]	@ (8004850 <HAL_RCCEx_PeriphCLKConfig+0x568>)
 8004696:	f8d1 2088 	ldr.w	r2, [r1, #136]	@ 0x88
      tmpreg1 = ((RCC->PLLSAICFGR & RCC_PLLSAICFGR_PLLSAIR) >> RCC_PLLSAICFGR_PLLSAIR_Pos);
 800469a:	f8d1 0088 	ldr.w	r0, [r1, #136]	@ 0x88
      __HAL_RCC_PLLSAI_CONFIG(PeriphClkInit->PLLSAI.PLLSAIN , PeriphClkInit->PLLSAI.PLLSAIP, tmpreg0, tmpreg1);
 800469e:	f002 6270 	and.w	r2, r2, #251658240	@ 0xf000000
 80046a2:	f000 40e0 	and.w	r0, r0, #1879048192	@ 0x70000000
 80046a6:	4302      	orrs	r2, r0
 80046a8:	6960      	ldr	r0, [r4, #20]
 80046aa:	ea42 1280 	orr.w	r2, r2, r0, lsl #6
 80046ae:	6a20      	ldr	r0, [r4, #32]
 80046b0:	ea42 4200 	orr.w	r2, r2, r0, lsl #16
 80046b4:	f8c1 2088 	str.w	r2, [r1, #136]	@ 0x88
    if(((PeriphClkInit->PeriphClockSelection) & RCC_PERIPHCLK_LTDC) == (RCC_PERIPHCLK_LTDC))
 80046b8:	071a      	lsls	r2, r3, #28
 80046ba:	d519      	bpl.n	80046f0 <HAL_RCCEx_PeriphCLKConfig+0x408>
      tmpreg0 = ((RCC->PLLSAICFGR & RCC_PLLSAICFGR_PLLSAIQ) >> RCC_PLLSAICFGR_PLLSAIQ_Pos);
 80046bc:	4a64      	ldr	r2, [pc, #400]	@ (8004850 <HAL_RCCEx_PeriphCLKConfig+0x568>)
      __HAL_RCC_PLLSAI_CONFIG(PeriphClkInit->PLLSAI.PLLSAIN , tmpreg1, tmpreg0, PeriphClkInit->PLLSAI.PLLSAIR);
 80046be:	6965      	ldr	r5, [r4, #20]
      tmpreg0 = ((RCC->PLLSAICFGR & RCC_PLLSAICFGR_PLLSAIQ) >> RCC_PLLSAICFGR_PLLSAIQ_Pos);
 80046c0:	f8d2 1088 	ldr.w	r1, [r2, #136]	@ 0x88
      tmpreg1 = ((RCC->PLLSAICFGR & RCC_PLLSAICFGR_PLLSAIP) >> RCC_PLLSAICFGR_PLLSAIP_Pos);
 80046c4:	f8d2 3088 	ldr.w	r3, [r2, #136]	@ 0x88
      __HAL_RCC_PLLSAI_CONFIG(PeriphClkInit->PLLSAI.PLLSAIN , tmpreg1, tmpreg0, PeriphClkInit->PLLSAI.PLLSAIR);
 80046c8:	f001 6170 	and.w	r1, r1, #251658240	@ 0xf000000
 80046cc:	69e0      	ldr	r0, [r4, #28]
 80046ce:	f403 3340 	and.w	r3, r3, #196608	@ 0x30000
 80046d2:	430b      	orrs	r3, r1
 80046d4:	ea43 1385 	orr.w	r3, r3, r5, lsl #6
 80046d8:	ea43 7300 	orr.w	r3, r3, r0, lsl #28
 80046dc:	f8c2 3088 	str.w	r3, [r2, #136]	@ 0x88
      __HAL_RCC_PLLSAI_PLLSAICLKDIVR_CONFIG(PeriphClkInit->PLLSAIDivR);
 80046e0:	f8d2 308c 	ldr.w	r3, [r2, #140]	@ 0x8c
 80046e4:	6ae1      	ldr	r1, [r4, #44]	@ 0x2c
 80046e6:	f423 3340 	bic.w	r3, r3, #196608	@ 0x30000
 80046ea:	430b      	orrs	r3, r1
 80046ec:	f8c2 308c 	str.w	r3, [r2, #140]	@ 0x8c
    __HAL_RCC_PLLSAI_ENABLE();
 80046f0:	4c57      	ldr	r4, [pc, #348]	@ (8004850 <HAL_RCCEx_PeriphCLKConfig+0x568>)
 80046f2:	6823      	ldr	r3, [r4, #0]
 80046f4:	f043 5380 	orr.w	r3, r3, #268435456	@ 0x10000000
 80046f8:	6023      	str	r3, [r4, #0]
    tickstart = HAL_GetTick();
 80046fa:	f7fe f8e9 	bl	80028d0 <HAL_GetTick>
 80046fe:	4605      	mov	r5, r0
    while(__HAL_RCC_PLLSAI_GET_FLAG() == RESET)
 8004700:	6823      	ldr	r3, [r4, #0]
 8004702:	009b      	lsls	r3, r3, #2
 8004704:	f53f af7c 	bmi.w	8004600 <HAL_RCCEx_PeriphCLKConfig+0x318>
      if((HAL_GetTick() - tickstart) > PLLSAI_TIMEOUT_VALUE)
 8004708:	f7fe f8e2 	bl	80028d0 <HAL_GetTick>
 800470c:	1b40      	subs	r0, r0, r5
 800470e:	2864      	cmp	r0, #100	@ 0x64
 8004710:	d9f6      	bls.n	8004700 <HAL_RCCEx_PeriphCLKConfig+0x418>
        return HAL_TIMEOUT;
 8004712:	2003      	movs	r0, #3
}
 8004714:	b003      	add	sp, #12
 8004716:	e8bd 83f0 	ldmia.w	sp!, {r4, r5, r6, r7, r8, r9, pc}
    __HAL_RCC_PWR_CLK_ENABLE();
 800471a:	4b4d      	ldr	r3, [pc, #308]	@ (8004850 <HAL_RCCEx_PeriphCLKConfig+0x568>)
    PWR->CR1 |= PWR_CR1_DBP;
 800471c:	4f4d      	ldr	r7, [pc, #308]	@ (8004854 <HAL_RCCEx_PeriphCLKConfig+0x56c>)
    __HAL_RCC_PWR_CLK_ENABLE();
 800471e:	6c1a      	ldr	r2, [r3, #64]	@ 0x40
 8004720:	f042 5280 	orr.w	r2, r2, #268435456	@ 0x10000000
 8004724:	641a      	str	r2, [r3, #64]	@ 0x40
 8004726:	6c1b      	ldr	r3, [r3, #64]	@ 0x40
 8004728:	f003 5380 	and.w	r3, r3, #268435456	@ 0x10000000
 800472c:	9301      	str	r3, [sp, #4]
 800472e:	9b01      	ldr	r3, [sp, #4]
    PWR->CR1 |= PWR_CR1_DBP;
 8004730:	683b      	ldr	r3, [r7, #0]
 8004732:	f443 7380 	orr.w	r3, r3, #256	@ 0x100
 8004736:	603b      	str	r3, [r7, #0]
    tickstart = HAL_GetTick();
 8004738:	f7fe f8ca 	bl	80028d0 <HAL_GetTick>
 800473c:	4680      	mov	r8, r0
    while((PWR->CR1 & PWR_CR1_DBP) == RESET)
 800473e:	e005      	b.n	800474c <HAL_RCCEx_PeriphCLKConfig+0x464>
      if((HAL_GetTick() - tickstart) > RCC_DBP_TIMEOUT_VALUE)
 8004740:	f7fe f8c6 	bl	80028d0 <HAL_GetTick>
 8004744:	eba0 0008 	sub.w	r0, r0, r8
 8004748:	2864      	cmp	r0, #100	@ 0x64
 800474a:	d8e2      	bhi.n	8004712 <HAL_RCCEx_PeriphCLKConfig+0x42a>
    while((PWR->CR1 & PWR_CR1_DBP) == RESET)
 800474c:	683b      	ldr	r3, [r7, #0]
 800474e:	05db      	lsls	r3, r3, #23
 8004750:	d5f6      	bpl.n	8004740 <HAL_RCCEx_PeriphCLKConfig+0x458>
    tmpreg0 = (RCC->BDCR & RCC_BDCR_RTCSEL);
 8004752:	4f3f      	ldr	r7, [pc, #252]	@ (8004850 <HAL_RCCEx_PeriphCLKConfig+0x568>)
    if((tmpreg0 != 0x00000000U) && (tmpreg0 != (PeriphClkInit->RTCClockSelection & RCC_BDCR_RTCSEL)))
 8004754:	6b23      	ldr	r3, [r4, #48]	@ 0x30
    tmpreg0 = (RCC->BDCR & RCC_BDCR_RTCSEL);
 8004756:	6f3a      	ldr	r2, [r7, #112]	@ 0x70
    if((tmpreg0 != 0x00000000U) && (tmpreg0 != (PeriphClkInit->RTCClockSelection & RCC_BDCR_RTCSEL)))
 8004758:	f403 7140 	and.w	r1, r3, #768	@ 0x300
 800475c:	f412 7240 	ands.w	r2, r2, #768	@ 0x300
 8004760:	d010      	beq.n	8004784 <HAL_RCCEx_PeriphCLKConfig+0x49c>
 8004762:	428a      	cmp	r2, r1
 8004764:	d00e      	beq.n	8004784 <HAL_RCCEx_PeriphCLKConfig+0x49c>
      tmpreg0 = (RCC->BDCR & ~(RCC_BDCR_RTCSEL));
 8004766:	6f3a      	ldr	r2, [r7, #112]	@ 0x70
      __HAL_RCC_BACKUPRESET_FORCE();
 8004768:	6f38      	ldr	r0, [r7, #112]	@ 0x70
      tmpreg0 = (RCC->BDCR & ~(RCC_BDCR_RTCSEL));
 800476a:	f422 7240 	bic.w	r2, r2, #768	@ 0x300
      __HAL_RCC_BACKUPRESET_FORCE();
 800476e:	f440 3080 	orr.w	r0, r0, #65536	@ 0x10000
 8004772:	6738      	str	r0, [r7, #112]	@ 0x70
      __HAL_RCC_BACKUPRESET_RELEASE();
 8004774:	6f38      	ldr	r0, [r7, #112]	@ 0x70
 8004776:	f420 3080 	bic.w	r0, r0, #65536	@ 0x10000
 800477a:	6738      	str	r0, [r7, #112]	@ 0x70
      RCC->BDCR = tmpreg0;
 800477c:	673a      	str	r2, [r7, #112]	@ 0x70
      if (HAL_IS_BIT_SET(RCC->BDCR, RCC_BDCR_LSEON))
 800477e:	6f3a      	ldr	r2, [r7, #112]	@ 0x70
 8004780:	07d0      	lsls	r0, r2, #31
 8004782:	d448      	bmi.n	8004816 <HAL_RCCEx_PeriphCLKConfig+0x52e>
    __HAL_RCC_RTC_CONFIG(PeriphClkInit->RTCClockSelection);
 8004784:	f5b1 7f40 	cmp.w	r1, #768	@ 0x300
 8004788:	d03c      	beq.n	8004804 <HAL_RCCEx_PeriphCLKConfig+0x51c>
 800478a:	4931      	ldr	r1, [pc, #196]	@ (8004850 <HAL_RCCEx_PeriphCLKConfig+0x568>)
 800478c:	688a      	ldr	r2, [r1, #8]
 800478e:	f422 12f8 	bic.w	r2, r2, #2031616	@ 0x1f0000
 8004792:	608a      	str	r2, [r1, #8]
 8004794:	4a2e      	ldr	r2, [pc, #184]	@ (8004850 <HAL_RCCEx_PeriphCLKConfig+0x568>)
 8004796:	f3c3 030b 	ubfx	r3, r3, #0, #12
 800479a:	6f11      	ldr	r1, [r2, #112]	@ 0x70
 800479c:	430b      	orrs	r3, r1
 800479e:	6713      	str	r3, [r2, #112]	@ 0x70
  if(((PeriphClkInit->PeriphClockSelection) & RCC_PERIPHCLK_TIM) == (RCC_PERIPHCLK_TIM))
 80047a0:	6823      	ldr	r3, [r4, #0]
 80047a2:	e5e3      	b.n	800436c <HAL_RCCEx_PeriphCLKConfig+0x84>
  uint32_t pllsaiused = 0;
 80047a4:	2500      	movs	r5, #0
      plli2sused = 1;
 80047a6:	2601      	movs	r6, #1
 80047a8:	e5c6      	b.n	8004338 <HAL_RCCEx_PeriphCLKConfig+0x50>
      plli2sused = 1;
 80047aa:	2601      	movs	r6, #1
 80047ac:	e5d7      	b.n	800435e <HAL_RCCEx_PeriphCLKConfig+0x76>
      __HAL_RCC_PLLI2S_CONFIG(PeriphClkInit->PLLI2S.PLLI2SN , PeriphClkInit->PLLI2S.PLLI2SP, PeriphClkInit->PLLI2S.PLLI2SQ, PeriphClkInit->PLLI2S.PLLI2SR);
 80047ae:	6923      	ldr	r3, [r4, #16]
 80047b0:	6861      	ldr	r1, [r4, #4]
 80047b2:	041b      	lsls	r3, r3, #16
 80047b4:	68e2      	ldr	r2, [r4, #12]
 80047b6:	ea43 1381 	orr.w	r3, r3, r1, lsl #6
 80047ba:	68a1      	ldr	r1, [r4, #8]
 80047bc:	ea43 6302 	orr.w	r3, r3, r2, lsl #24
 80047c0:	4a23      	ldr	r2, [pc, #140]	@ (8004850 <HAL_RCCEx_PeriphCLKConfig+0x568>)
 80047c2:	ea43 7301 	orr.w	r3, r3, r1, lsl #28
 80047c6:	f8c2 3084 	str.w	r3, [r2, #132]	@ 0x84
 80047ca:	e705      	b.n	80045d8 <HAL_RCCEx_PeriphCLKConfig+0x2f0>
      tmpreg0 = ((RCC->PLLI2SCFGR & RCC_PLLI2SCFGR_PLLI2SP) >> RCC_PLLI2SCFGR_PLLI2SP_Pos);
 80047cc:	4920      	ldr	r1, [pc, #128]	@ (8004850 <HAL_RCCEx_PeriphCLKConfig+0x568>)
 80047ce:	f8d1 2084 	ldr.w	r2, [r1, #132]	@ 0x84
      tmpreg1 = ((RCC->PLLI2SCFGR & RCC_PLLI2SCFGR_PLLI2SR) >> RCC_PLLI2SCFGR_PLLI2SR_Pos);
 80047d2:	f8d1 0084 	ldr.w	r0, [r1, #132]	@ 0x84
      __HAL_RCC_PLLI2S_CONFIG(PeriphClkInit->PLLI2S.PLLI2SN, tmpreg0, PeriphClkInit->PLLI2S.PLLI2SQ, tmpreg1);
 80047d6:	f402 3240 	and.w	r2, r2, #196608	@ 0x30000
 80047da:	f000 40e0 	and.w	r0, r0, #1879048192	@ 0x70000000
 80047de:	4302      	orrs	r2, r0
 80047e0:	6860      	ldr	r0, [r4, #4]
 80047e2:	ea42 1280 	orr.w	r2, r2, r0, lsl #6
 80047e6:	68e0      	ldr	r0, [r4, #12]
 80047e8:	ea42 6200 	orr.w	r2, r2, r0, lsl #24
 80047ec:	f8c1 2084 	str.w	r2, [r1, #132]	@ 0x84
      __HAL_RCC_PLLI2S_PLLSAICLKDIVQ_CONFIG(PeriphClkInit->PLLI2SDivQ);
 80047f0:	f8d1 008c 	ldr.w	r0, [r1, #140]	@ 0x8c
 80047f4:	6a62      	ldr	r2, [r4, #36]	@ 0x24
 80047f6:	f020 001f 	bic.w	r0, r0, #31
 80047fa:	3a01      	subs	r2, #1
 80047fc:	4302      	orrs	r2, r0
 80047fe:	f8c1 208c 	str.w	r2, [r1, #140]	@ 0x8c
 8004802:	e6d2      	b.n	80045aa <HAL_RCCEx_PeriphCLKConfig+0x2c2>
    __HAL_RCC_RTC_CONFIG(PeriphClkInit->RTCClockSelection);
 8004804:	4812      	ldr	r0, [pc, #72]	@ (8004850 <HAL_RCCEx_PeriphCLKConfig+0x568>)
 8004806:	4914      	ldr	r1, [pc, #80]	@ (8004858 <HAL_RCCEx_PeriphCLKConfig+0x570>)
 8004808:	6882      	ldr	r2, [r0, #8]
 800480a:	4019      	ands	r1, r3
 800480c:	f422 12f8 	bic.w	r2, r2, #2031616	@ 0x1f0000
 8004810:	430a      	orrs	r2, r1
 8004812:	6082      	str	r2, [r0, #8]
 8004814:	e7be      	b.n	8004794 <HAL_RCCEx_PeriphCLKConfig+0x4ac>
        tickstart = HAL_GetTick();
 8004816:	f7fe f85b 	bl	80028d0 <HAL_GetTick>
          if((HAL_GetTick() - tickstart ) > RCC_LSE_TIMEOUT_VALUE)
 800481a:	f241 3988 	movw	r9, #5000	@ 0x1388
        tickstart = HAL_GetTick();
 800481e:	4680      	mov	r8, r0
        while(__HAL_RCC_GET_FLAG(RCC_FLAG_LSERDY) == RESET)
 8004820:	e006      	b.n	8004830 <HAL_RCCEx_PeriphCLKConfig+0x548>
          if((HAL_GetTick() - tickstart ) > RCC_LSE_TIMEOUT_VALUE)
 8004822:	f7fe f855 	bl	80028d0 <HAL_GetTick>
 8004826:	eba0 0008 	sub.w	r0, r0, r8
 800482a:	4548      	cmp	r0, r9
 800482c:	f63f af71 	bhi.w	8004712 <HAL_RCCEx_PeriphCLKConfig+0x42a>
        while(__HAL_RCC_GET_FLAG(RCC_FLAG_LSERDY) == RESET)
 8004830:	6f3b      	ldr	r3, [r7, #112]	@ 0x70
 8004832:	0799      	lsls	r1, r3, #30
 8004834:	d5f5      	bpl.n	8004822 <HAL_RCCEx_PeriphCLKConfig+0x53a>
    __HAL_RCC_RTC_CONFIG(PeriphClkInit->RTCClockSelection);
 8004836:	6b23      	ldr	r3, [r4, #48]	@ 0x30
 8004838:	f403 7140 	and.w	r1, r3, #768	@ 0x300
 800483c:	e7a2      	b.n	8004784 <HAL_RCCEx_PeriphCLKConfig+0x49c>
    if(((((PeriphClkInit->PeriphClockSelection) & RCC_PERIPHCLK_SAI1) == RCC_PERIPHCLK_SAI1) && (PeriphClkInit->Sai1ClockSelection == RCC_SAI1CLKSOURCE_PLLSAI)) ||\
 800483e:	02d8      	lsls	r0, r3, #11
 8004840:	f57f af22 	bpl.w	8004688 <HAL_RCCEx_PeriphCLKConfig+0x3a0>
       ((((PeriphClkInit->PeriphClockSelection) & RCC_PERIPHCLK_SAI2) == RCC_PERIPHCLK_SAI2) && (PeriphClkInit->Sai2ClockSelection == RCC_SAI2CLKSOURCE_PLLSAI)))
 8004844:	6c22      	ldr	r2, [r4, #64]	@ 0x40
 8004846:	2a00      	cmp	r2, #0
 8004848:	f47f af1e 	bne.w	8004688 <HAL_RCCEx_PeriphCLKConfig+0x3a0>
 800484c:	e700      	b.n	8004650 <HAL_RCCEx_PeriphCLKConfig+0x368>
 800484e:	bf00      	nop
 8004850:	40023800 	.word	0x40023800
 8004854:	40007000 	.word	0x40007000
 8004858:	0ffffcff 	.word	0x0ffffcff

0800485c <HAL_TIM_Base_Init>:
  * @retval HAL status
  */
HAL_StatusTypeDef HAL_TIM_Base_Init(TIM_HandleTypeDef *htim)
{
  /* Check the TIM handle allocation */
  if (htim == NULL)
 800485c:	2800      	cmp	r0, #0
 800485e:	f000 8089 	beq.w	8004974 <HAL_TIM_Base_Init+0x118>
{
 8004862:	b5f8      	push	{r3, r4, r5, r6, r7, lr}
  assert_param(IS_TIM_COUNTER_MODE(htim->Init.CounterMode));
  assert_param(IS_TIM_CLOCKDIVISION_DIV(htim->Init.ClockDivision));
  assert_param(IS_TIM_PERIOD(htim, htim->Init.Period));
  assert_param(IS_TIM_AUTORELOAD_PRELOAD(htim->Init.AutoReloadPreload));

  if (htim->State == HAL_TIM_STATE_RESET)
 8004864:	f890 303d 	ldrb.w	r3, [r0, #61]	@ 0x3d
 8004868:	4604      	mov	r4, r0
 800486a:	f003 02ff 	and.w	r2, r3, #255	@ 0xff
 800486e:	2b00      	cmp	r3, #0
 8004870:	d07b      	beq.n	800496a <HAL_TIM_Base_Init+0x10e>

  /* Set the TIM state */
  htim->State = HAL_TIM_STATE_BUSY;

  /* Set the Time Base configuration */
  TIM_Base_SetConfig(htim->Instance, &htim->Init);
 8004872:	6822      	ldr	r2, [r4, #0]
  htim->State = HAL_TIM_STATE_BUSY;
 8004874:	2302      	movs	r3, #2
{
  uint32_t tmpcr1;
  tmpcr1 = TIMx->CR1;

  /* Set TIM Time Base Unit parameters ---------------------------------------*/
  if (IS_TIM_COUNTER_MODE_SELECT_INSTANCE(TIMx))
 8004876:	4940      	ldr	r1, [pc, #256]	@ (8004978 <HAL_TIM_Base_Init+0x11c>)
 8004878:	4840      	ldr	r0, [pc, #256]	@ (800497c <HAL_TIM_Base_Init+0x120>)
 800487a:	f1b2 4f80 	cmp.w	r2, #1073741824	@ 0x40000000
 800487e:	eba2 0101 	sub.w	r1, r2, r1
  htim->State = HAL_TIM_STATE_BUSY;
 8004882:	f884 303d 	strb.w	r3, [r4, #61]	@ 0x3d
  if (IS_TIM_COUNTER_MODE_SELECT_INSTANCE(TIMx))
 8004886:	eba2 0e00 	sub.w	lr, r2, r0
  tmpcr1 = TIMx->CR1;
 800488a:	6813      	ldr	r3, [r2, #0]
  if (IS_TIM_COUNTER_MODE_SELECT_INSTANCE(TIMx))
 800488c:	fab1 f181 	clz	r1, r1
    tmpcr1 &= ~TIM_CR1_CKD;
    tmpcr1 |= (uint32_t)Structure->ClockDivision;
  }

  /* Set the auto-reload preload */
  MODIFY_REG(tmpcr1, TIM_CR1_ARPE, Structure->AutoReloadPreload);
 8004890:	69a7      	ldr	r7, [r4, #24]
  if (IS_TIM_COUNTER_MODE_SELECT_INSTANCE(TIMx))
 8004892:	fabe fe8e 	clz	lr, lr

  /* Set the Autoreload value */
  TIMx->ARR = (uint32_t)Structure->Period ;

  /* Set the Prescaler value */
  TIMx->PSC = Structure->Prescaler;
 8004896:	6865      	ldr	r5, [r4, #4]
  if (IS_TIM_COUNTER_MODE_SELECT_INSTANCE(TIMx))
 8004898:	ea4f 1151 	mov.w	r1, r1, lsr #5
  TIMx->ARR = (uint32_t)Structure->Period ;
 800489c:	68e6      	ldr	r6, [r4, #12]
  if (IS_TIM_COUNTER_MODE_SELECT_INSTANCE(TIMx))
 800489e:	ea4f 1e5e 	mov.w	lr, lr, lsr #5
 80048a2:	d04d      	beq.n	8004940 <HAL_TIM_Base_Init+0xe4>
 80048a4:	2900      	cmp	r1, #0
 80048a6:	d14b      	bne.n	8004940 <HAL_TIM_Base_Init+0xe4>
 80048a8:	f8df c0d8 	ldr.w	ip, [pc, #216]	@ 8004984 <HAL_TIM_Base_Init+0x128>
 80048ac:	4562      	cmp	r2, ip
 80048ae:	d047      	beq.n	8004940 <HAL_TIM_Base_Init+0xe4>
 80048b0:	f50c 6c80 	add.w	ip, ip, #1024	@ 0x400
 80048b4:	4562      	cmp	r2, ip
 80048b6:	d043      	beq.n	8004940 <HAL_TIM_Base_Init+0xe4>
 80048b8:	f50c 6c80 	add.w	ip, ip, #1024	@ 0x400
 80048bc:	4562      	cmp	r2, ip
 80048be:	d03f      	beq.n	8004940 <HAL_TIM_Base_Init+0xe4>
 80048c0:	f1be 0f00 	cmp.w	lr, #0
 80048c4:	d13c      	bne.n	8004940 <HAL_TIM_Base_Init+0xe4>
  if (IS_TIM_CLOCK_DIVISION_INSTANCE(TIMx))
 80048c6:	492e      	ldr	r1, [pc, #184]	@ (8004980 <HAL_TIM_Base_Init+0x124>)
 80048c8:	428a      	cmp	r2, r1
 80048ca:	d013      	beq.n	80048f4 <HAL_TIM_Base_Init+0x98>
 80048cc:	f501 6180 	add.w	r1, r1, #1024	@ 0x400
 80048d0:	428a      	cmp	r2, r1
 80048d2:	d00f      	beq.n	80048f4 <HAL_TIM_Base_Init+0x98>
 80048d4:	f501 6180 	add.w	r1, r1, #1024	@ 0x400
 80048d8:	428a      	cmp	r2, r1
 80048da:	d00b      	beq.n	80048f4 <HAL_TIM_Base_Init+0x98>
 80048dc:	f5a1 3198 	sub.w	r1, r1, #77824	@ 0x13000
 80048e0:	428a      	cmp	r2, r1
 80048e2:	d007      	beq.n	80048f4 <HAL_TIM_Base_Init+0x98>
 80048e4:	f501 6180 	add.w	r1, r1, #1024	@ 0x400
 80048e8:	428a      	cmp	r2, r1
 80048ea:	d003      	beq.n	80048f4 <HAL_TIM_Base_Init+0x98>
 80048ec:	f501 6180 	add.w	r1, r1, #1024	@ 0x400
 80048f0:	428a      	cmp	r2, r1
 80048f2:	d103      	bne.n	80048fc <HAL_TIM_Base_Init+0xa0>
    tmpcr1 &= ~TIM_CR1_CKD;
 80048f4:	f423 7340 	bic.w	r3, r3, #768	@ 0x300
    tmpcr1 |= (uint32_t)Structure->ClockDivision;
 80048f8:	6921      	ldr	r1, [r4, #16]
 80048fa:	430b      	orrs	r3, r1
  MODIFY_REG(tmpcr1, TIM_CR1_ARPE, Structure->AutoReloadPreload);
 80048fc:	f023 0380 	bic.w	r3, r3, #128	@ 0x80
 8004900:	433b      	orrs	r3, r7
  TIMx->CR1 = tmpcr1;
 8004902:	6013      	str	r3, [r2, #0]
  TIMx->ARR = (uint32_t)Structure->Period ;
 8004904:	62d6      	str	r6, [r2, #44]	@ 0x2c
  TIMx->PSC = Structure->Prescaler;
 8004906:	6295      	str	r5, [r2, #40]	@ 0x28
    TIMx->RCR = Structure->RepetitionCounter;
  }

  /* Generate an update event to reload the Prescaler
     and the repetition counter (only for advanced timer) value immediately */
  TIMx->EGR = TIM_EGR_UG;
 8004908:	2301      	movs	r3, #1
  return HAL_OK;
 800490a:	2000      	movs	r0, #0
  TIMx->EGR = TIM_EGR_UG;
 800490c:	6153      	str	r3, [r2, #20]
  htim->DMABurstState = HAL_DMA_BURST_STATE_READY;
 800490e:	f884 3048 	strb.w	r3, [r4, #72]	@ 0x48
  TIM_CHANNEL_STATE_SET_ALL(htim, HAL_TIM_CHANNEL_STATE_READY);
 8004912:	f884 303e 	strb.w	r3, [r4, #62]	@ 0x3e
 8004916:	f884 303f 	strb.w	r3, [r4, #63]	@ 0x3f
 800491a:	f884 3040 	strb.w	r3, [r4, #64]	@ 0x40
 800491e:	f884 3041 	strb.w	r3, [r4, #65]	@ 0x41
 8004922:	f884 3042 	strb.w	r3, [r4, #66]	@ 0x42
 8004926:	f884 3043 	strb.w	r3, [r4, #67]	@ 0x43
  TIM_CHANNEL_N_STATE_SET_ALL(htim, HAL_TIM_CHANNEL_STATE_READY);
 800492a:	f884 3044 	strb.w	r3, [r4, #68]	@ 0x44
 800492e:	f884 3045 	strb.w	r3, [r4, #69]	@ 0x45
 8004932:	f884 3046 	strb.w	r3, [r4, #70]	@ 0x46
 8004936:	f884 3047 	strb.w	r3, [r4, #71]	@ 0x47
  htim->State = HAL_TIM_STATE_READY;
 800493a:	f884 303d 	strb.w	r3, [r4, #61]	@ 0x3d
}
 800493e:	bdf8      	pop	{r3, r4, r5, r6, r7, pc}
    tmpcr1 |= Structure->CounterMode;
 8004940:	68a0      	ldr	r0, [r4, #8]
    tmpcr1 &= ~(TIM_CR1_DIR | TIM_CR1_CMS);
 8004942:	f023 0370 	bic.w	r3, r3, #112	@ 0x70
    tmpcr1 |= Structure->CounterMode;
 8004946:	4303      	orrs	r3, r0
    tmpcr1 |= (uint32_t)Structure->ClockDivision;
 8004948:	6920      	ldr	r0, [r4, #16]
    tmpcr1 &= ~TIM_CR1_CKD;
 800494a:	f423 7340 	bic.w	r3, r3, #768	@ 0x300
    tmpcr1 |= (uint32_t)Structure->ClockDivision;
 800494e:	4303      	orrs	r3, r0
  MODIFY_REG(tmpcr1, TIM_CR1_ARPE, Structure->AutoReloadPreload);
 8004950:	f023 0380 	bic.w	r3, r3, #128	@ 0x80
 8004954:	433b      	orrs	r3, r7
  TIMx->CR1 = tmpcr1;
 8004956:	6013      	str	r3, [r2, #0]
  TIMx->ARR = (uint32_t)Structure->Period ;
 8004958:	62d6      	str	r6, [r2, #44]	@ 0x2c
  TIMx->PSC = Structure->Prescaler;
 800495a:	6295      	str	r5, [r2, #40]	@ 0x28
  if (IS_TIM_REPETITION_COUNTER_INSTANCE(TIMx))
 800495c:	b911      	cbnz	r1, 8004964 <HAL_TIM_Base_Init+0x108>
 800495e:	f1be 0f00 	cmp.w	lr, #0
 8004962:	d0d1      	beq.n	8004908 <HAL_TIM_Base_Init+0xac>
    TIMx->RCR = Structure->RepetitionCounter;
 8004964:	6963      	ldr	r3, [r4, #20]
 8004966:	6313      	str	r3, [r2, #48]	@ 0x30
 8004968:	e7ce      	b.n	8004908 <HAL_TIM_Base_Init+0xac>
    htim->Lock = HAL_UNLOCKED;
 800496a:	f880 203c 	strb.w	r2, [r0, #60]	@ 0x3c
    HAL_TIM_Base_MspInit(htim);
 800496e:	f7fd fcb7 	bl	80022e0 <HAL_TIM_Base_MspInit>
 8004972:	e77e      	b.n	8004872 <HAL_TIM_Base_Init+0x16>
    return HAL_ERROR;
 8004974:	2001      	movs	r0, #1
}
 8004976:	4770      	bx	lr
 8004978:	40010000 	.word	0x40010000
 800497c:	40010400 	.word	0x40010400
 8004980:	40014000 	.word	0x40014000
 8004984:	40000400 	.word	0x40000400

08004988 <HAL_TIM_Base_Start_IT>:
  if (htim->State != HAL_TIM_STATE_READY)
 8004988:	f890 303d 	ldrb.w	r3, [r0, #61]	@ 0x3d
 800498c:	2b01      	cmp	r3, #1
 800498e:	d13d      	bne.n	8004a0c <HAL_TIM_Base_Start_IT+0x84>
  __HAL_TIM_ENABLE_IT(htim, TIM_IT_UPDATE);
 8004990:	6802      	ldr	r2, [r0, #0]
  htim->State = HAL_TIM_STATE_BUSY;
 8004992:	2102      	movs	r1, #2
  if (IS_TIM_SLAVE_INSTANCE(htim->Instance))
 8004994:	4b1e      	ldr	r3, [pc, #120]	@ (8004a10 <HAL_TIM_Base_Start_IT+0x88>)
 8004996:	f1b2 4f80 	cmp.w	r2, #1073741824	@ 0x40000000
 800499a:	bf18      	it	ne
 800499c:	429a      	cmpne	r2, r3
{
 800499e:	b430      	push	{r4, r5}
  if (IS_TIM_SLAVE_INSTANCE(htim->Instance))
 80049a0:	bf0c      	ite	eq
 80049a2:	2301      	moveq	r3, #1
 80049a4:	2300      	movne	r3, #0
 80049a6:	4d1b      	ldr	r5, [pc, #108]	@ (8004a14 <HAL_TIM_Base_Start_IT+0x8c>)
 80049a8:	4c1b      	ldr	r4, [pc, #108]	@ (8004a18 <HAL_TIM_Base_Start_IT+0x90>)
 80049aa:	42aa      	cmp	r2, r5
 80049ac:	bf08      	it	eq
 80049ae:	f043 0301 	orreq.w	r3, r3, #1
  htim->State = HAL_TIM_STATE_BUSY;
 80049b2:	f880 103d 	strb.w	r1, [r0, #61]	@ 0x3d
  __HAL_TIM_ENABLE_IT(htim, TIM_IT_UPDATE);
 80049b6:	68d1      	ldr	r1, [r2, #12]
  if (IS_TIM_SLAVE_INSTANCE(htim->Instance))
 80049b8:	42a2      	cmp	r2, r4
 80049ba:	bf08      	it	eq
 80049bc:	f043 0301 	orreq.w	r3, r3, #1
 80049c0:	f504 6480 	add.w	r4, r4, #1024	@ 0x400
  __HAL_TIM_ENABLE_IT(htim, TIM_IT_UPDATE);
 80049c4:	f041 0101 	orr.w	r1, r1, #1
  if (IS_TIM_SLAVE_INSTANCE(htim->Instance))
 80049c8:	4814      	ldr	r0, [pc, #80]	@ (8004a1c <HAL_TIM_Base_Start_IT+0x94>)
 80049ca:	42a2      	cmp	r2, r4
 80049cc:	bf08      	it	eq
 80049ce:	f043 0301 	orreq.w	r3, r3, #1
  __HAL_TIM_ENABLE_IT(htim, TIM_IT_UPDATE);
 80049d2:	60d1      	str	r1, [r2, #12]
  if (IS_TIM_SLAVE_INSTANCE(htim->Instance))
 80049d4:	4282      	cmp	r2, r0
 80049d6:	bf08      	it	eq
 80049d8:	f043 0301 	orreq.w	r3, r3, #1
 80049dc:	4910      	ldr	r1, [pc, #64]	@ (8004a20 <HAL_TIM_Base_Start_IT+0x98>)
 80049de:	428a      	cmp	r2, r1
 80049e0:	bf08      	it	eq
 80049e2:	f043 0301 	orreq.w	r3, r3, #1
 80049e6:	b913      	cbnz	r3, 80049ee <HAL_TIM_Base_Start_IT+0x66>
 80049e8:	4b0e      	ldr	r3, [pc, #56]	@ (8004a24 <HAL_TIM_Base_Start_IT+0x9c>)
 80049ea:	429a      	cmp	r2, r3
 80049ec:	d107      	bne.n	80049fe <HAL_TIM_Base_Start_IT+0x76>
    tmpsmcr = htim->Instance->SMCR & TIM_SMCR_SMS;
 80049ee:	6891      	ldr	r1, [r2, #8]
 80049f0:	4b0d      	ldr	r3, [pc, #52]	@ (8004a28 <HAL_TIM_Base_Start_IT+0xa0>)
 80049f2:	400b      	ands	r3, r1
    if (!IS_TIM_SLAVEMODE_TRIGGER_ENABLED(tmpsmcr))
 80049f4:	2b06      	cmp	r3, #6
 80049f6:	d006      	beq.n	8004a06 <HAL_TIM_Base_Start_IT+0x7e>
 80049f8:	f5b3 3f80 	cmp.w	r3, #65536	@ 0x10000
 80049fc:	d003      	beq.n	8004a06 <HAL_TIM_Base_Start_IT+0x7e>
      __HAL_TIM_ENABLE(htim);
 80049fe:	6813      	ldr	r3, [r2, #0]
 8004a00:	f043 0301 	orr.w	r3, r3, #1
 8004a04:	6013      	str	r3, [r2, #0]
  return HAL_OK;
 8004a06:	2000      	movs	r0, #0
}
 8004a08:	bc30      	pop	{r4, r5}
 8004a0a:	4770      	bx	lr
    return HAL_ERROR;
 8004a0c:	2001      	movs	r0, #1
}
 8004a0e:	4770      	bx	lr
 8004a10:	40010000 	.word	0x40010000
 8004a14:	40000400 	.word	0x40000400
 8004a18:	40000800 	.word	0x40000800
 8004a1c:	40010400 	.word	0x40010400
 8004a20:	40014000 	.word	0x40014000
 8004a24:	40001800 	.word	0x40001800
 8004a28:	00010007 	.word	0x00010007

08004a2c <HAL_TIM_OC_MspInit>:
__weak void HAL_TIM_OC_MspInit(TIM_HandleTypeDef *htim)
 8004a2c:	4770      	bx	lr
 8004a2e:	bf00      	nop

08004a30 <HAL_TIM_OC_Init>:
  if (htim == NULL)
 8004a30:	2800      	cmp	r0, #0
 8004a32:	f000 8089 	beq.w	8004b48 <HAL_TIM_OC_Init+0x118>
{
 8004a36:	b5f8      	push	{r3, r4, r5, r6, r7, lr}
  if (htim->State == HAL_TIM_STATE_RESET)
 8004a38:	f890 303d 	ldrb.w	r3, [r0, #61]	@ 0x3d
 8004a3c:	4604      	mov	r4, r0
 8004a3e:	f003 02ff 	and.w	r2, r3, #255	@ 0xff
 8004a42:	2b00      	cmp	r3, #0
 8004a44:	d07b      	beq.n	8004b3e <HAL_TIM_OC_Init+0x10e>
  TIM_Base_SetConfig(htim->Instance,  &htim->Init);
 8004a46:	6822      	ldr	r2, [r4, #0]
  htim->State = HAL_TIM_STATE_BUSY;
 8004a48:	2302      	movs	r3, #2
  if (IS_TIM_COUNTER_MODE_SELECT_INSTANCE(TIMx))
 8004a4a:	4940      	ldr	r1, [pc, #256]	@ (8004b4c <HAL_TIM_OC_Init+0x11c>)
 8004a4c:	4840      	ldr	r0, [pc, #256]	@ (8004b50 <HAL_TIM_OC_Init+0x120>)
 8004a4e:	f1b2 4f80 	cmp.w	r2, #1073741824	@ 0x40000000
 8004a52:	eba2 0101 	sub.w	r1, r2, r1
  htim->State = HAL_TIM_STATE_BUSY;
 8004a56:	f884 303d 	strb.w	r3, [r4, #61]	@ 0x3d
  if (IS_TIM_COUNTER_MODE_SELECT_INSTANCE(TIMx))
 8004a5a:	eba2 0e00 	sub.w	lr, r2, r0
  tmpcr1 = TIMx->CR1;
 8004a5e:	6813      	ldr	r3, [r2, #0]
  if (IS_TIM_COUNTER_MODE_SELECT_INSTANCE(TIMx))
 8004a60:	fab1 f181 	clz	r1, r1
  MODIFY_REG(tmpcr1, TIM_CR1_ARPE, Structure->AutoReloadPreload);
 8004a64:	69a7      	ldr	r7, [r4, #24]
  if (IS_TIM_COUNTER_MODE_SELECT_INSTANCE(TIMx))
 8004a66:	fabe fe8e 	clz	lr, lr
  TIMx->PSC = Structure->Prescaler;
 8004a6a:	6865      	ldr	r5, [r4, #4]
  if (IS_TIM_COUNTER_MODE_SELECT_INSTANCE(TIMx))
 8004a6c:	ea4f 1151 	mov.w	r1, r1, lsr #5
  TIMx->ARR = (uint32_t)Structure->Period ;
 8004a70:	68e6      	ldr	r6, [r4, #12]
  if (IS_TIM_COUNTER_MODE_SELECT_INSTANCE(TIMx))
 8004a72:	ea4f 1e5e 	mov.w	lr, lr, lsr #5
 8004a76:	d04d      	beq.n	8004b14 <HAL_TIM_OC_Init+0xe4>
 8004a78:	2900      	cmp	r1, #0
 8004a7a:	d14b      	bne.n	8004b14 <HAL_TIM_OC_Init+0xe4>
 8004a7c:	f8df c0d8 	ldr.w	ip, [pc, #216]	@ 8004b58 <HAL_TIM_OC_Init+0x128>
 8004a80:	4562      	cmp	r2, ip
 8004a82:	d047      	beq.n	8004b14 <HAL_TIM_OC_Init+0xe4>
 8004a84:	f50c 6c80 	add.w	ip, ip, #1024	@ 0x400
 8004a88:	4562      	cmp	r2, ip
 8004a8a:	d043      	beq.n	8004b14 <HAL_TIM_OC_Init+0xe4>
 8004a8c:	f50c 6c80 	add.w	ip, ip, #1024	@ 0x400
 8004a90:	4562      	cmp	r2, ip
 8004a92:	d03f      	beq.n	8004b14 <HAL_TIM_OC_Init+0xe4>
 8004a94:	f1be 0f00 	cmp.w	lr, #0
 8004a98:	d13c      	bne.n	8004b14 <HAL_TIM_OC_Init+0xe4>
  if (IS_TIM_CLOCK_DIVISION_INSTANCE(TIMx))
 8004a9a:	492e      	ldr	r1, [pc, #184]	@ (8004b54 <HAL_TIM_OC_Init+0x124>)
 8004a9c:	428a      	cmp	r2, r1
 8004a9e:	d013      	beq.n	8004ac8 <HAL_TIM_OC_Init+0x98>
 8004aa0:	f501 6180 	add.w	r1, r1, #1024	@ 0x400
 8004aa4:	428a      	cmp	r2, r1
 8004aa6:	d00f      	beq.n	8004ac8 <HAL_TIM_OC_Init+0x98>
 8004aa8:	f501 6180 	add.w	r1, r1, #1024	@ 0x400
 8004aac:	428a      	cmp	r2, r1
 8004aae:	d00b      	beq.n	8004ac8 <HAL_TIM_OC_Init+0x98>
 8004ab0:	f5a1 3198 	sub.w	r1, r1, #77824	@ 0x13000
 8004ab4:	428a      	cmp	r2, r1
 8004ab6:	d007      	beq.n	8004ac8 <HAL_TIM_OC_Init+0x98>
 8004ab8:	f501 6180 	add.w	r1, r1, #1024	@ 0x400
 8004abc:	428a      	cmp	r2, r1
 8004abe:	d003      	beq.n	8004ac8 <HAL_TIM_OC_Init+0x98>
 8004ac0:	f501 6180 	add.w	r1, r1, #1024	@ 0x400
 8004ac4:	428a      	cmp	r2, r1
 8004ac6:	d103      	bne.n	8004ad0 <HAL_TIM_OC_Init+0xa0>
    tmpcr1 &= ~TIM_CR1_CKD;
 8004ac8:	f423 7340 	bic.w	r3, r3, #768	@ 0x300
    tmpcr1 |= (uint32_t)Structure->ClockDivision;
 8004acc:	6921      	ldr	r1, [r4, #16]
 8004ace:	430b      	orrs	r3, r1
  MODIFY_REG(tmpcr1, TIM_CR1_ARPE, Structure->AutoReloadPreload);
 8004ad0:	f023 0380 	bic.w	r3, r3, #128	@ 0x80
 8004ad4:	433b      	orrs	r3, r7
  TIMx->CR1 = tmpcr1;
 8004ad6:	6013      	str	r3, [r2, #0]
  TIMx->ARR = (uint32_t)Structure->Period ;
 8004ad8:	62d6      	str	r6, [r2, #44]	@ 0x2c
  TIMx->PSC = Structure->Prescaler;
 8004ada:	6295      	str	r5, [r2, #40]	@ 0x28
  TIMx->EGR = TIM_EGR_UG;
 8004adc:	2301      	movs	r3, #1
  return HAL_OK;
 8004ade:	2000      	movs	r0, #0
  TIMx->EGR = TIM_EGR_UG;
 8004ae0:	6153      	str	r3, [r2, #20]
  htim->DMABurstState = HAL_DMA_BURST_STATE_READY;
 8004ae2:	f884 3048 	strb.w	r3, [r4, #72]	@ 0x48
  TIM_CHANNEL_STATE_SET_ALL(htim, HAL_TIM_CHANNEL_STATE_READY);
 8004ae6:	f884 303e 	strb.w	r3, [r4, #62]	@ 0x3e
 8004aea:	f884 303f 	strb.w	r3, [r4, #63]	@ 0x3f
 8004aee:	f884 3040 	strb.w	r3, [r4, #64]	@ 0x40
 8004af2:	f884 3041 	strb.w	r3, [r4, #65]	@ 0x41
 8004af6:	f884 3042 	strb.w	r3, [r4, #66]	@ 0x42
 8004afa:	f884 3043 	strb.w	r3, [r4, #67]	@ 0x43
  TIM_CHANNEL_N_STATE_SET_ALL(htim, HAL_TIM_CHANNEL_STATE_READY);
 8004afe:	f884 3044 	strb.w	r3, [r4, #68]	@ 0x44
 8004b02:	f884 3045 	strb.w	r3, [r4, #69]	@ 0x45
 8004b06:	f884 3046 	strb.w	r3, [r4, #70]	@ 0x46
 8004b0a:	f884 3047 	strb.w	r3, [r4, #71]	@ 0x47
  htim->State = HAL_TIM_STATE_READY;
 8004b0e:	f884 303d 	strb.w	r3, [r4, #61]	@ 0x3d
}
 8004b12:	bdf8      	pop	{r3, r4, r5, r6, r7, pc}
    tmpcr1 |= Structure->CounterMode;
 8004b14:	68a0      	ldr	r0, [r4, #8]
    tmpcr1 &= ~(TIM_CR1_DIR | TIM_CR1_CMS);
 8004b16:	f023 0370 	bic.w	r3, r3, #112	@ 0x70
    tmpcr1 |= Structure->CounterMode;
 8004b1a:	4303      	orrs	r3, r0
    tmpcr1 |= (uint32_t)Structure->ClockDivision;
 8004b1c:	6920      	ldr	r0, [r4, #16]
    tmpcr1 &= ~TIM_CR1_CKD;
 8004b1e:	f423 7340 	bic.w	r3, r3, #768	@ 0x300
    tmpcr1 |= (uint32_t)Structure->ClockDivision;
 8004b22:	4303      	orrs	r3, r0
  MODIFY_REG(tmpcr1, TIM_CR1_ARPE, Structure->AutoReloadPreload);
 8004b24:	f023 0380 	bic.w	r3, r3, #128	@ 0x80
 8004b28:	433b      	orrs	r3, r7
  TIMx->CR1 = tmpcr1;
 8004b2a:	6013      	str	r3, [r2, #0]
  TIMx->ARR = (uint32_t)Structure->Period ;
 8004b2c:	62d6      	str	r6, [r2, #44]	@ 0x2c
  TIMx->PSC = Structure->Prescaler;
 8004b2e:	6295      	str	r5, [r2, #40]	@ 0x28
  if (IS_TIM_REPETITION_COUNTER_INSTANCE(TIMx))
 8004b30:	b911      	cbnz	r1, 8004b38 <HAL_TIM_OC_Init+0x108>
 8004b32:	f1be 0f00 	cmp.w	lr, #0
 8004b36:	d0d1      	beq.n	8004adc <HAL_TIM_OC_Init+0xac>
    TIMx->RCR = Structure->RepetitionCounter;
 8004b38:	6963      	ldr	r3, [r4, #20]
 8004b3a:	6313      	str	r3, [r2, #48]	@ 0x30
 8004b3c:	e7ce      	b.n	8004adc <HAL_TIM_OC_Init+0xac>
    htim->Lock = HAL_UNLOCKED;
 8004b3e:	f880 203c 	strb.w	r2, [r0, #60]	@ 0x3c
    HAL_TIM_OC_MspInit(htim);
 8004b42:	f7ff ff73 	bl	8004a2c <HAL_TIM_OC_MspInit>
 8004b46:	e77e      	b.n	8004a46 <HAL_TIM_OC_Init+0x16>
    return HAL_ERROR;
 8004b48:	2001      	movs	r0, #1
}
 8004b4a:	4770      	bx	lr
 8004b4c:	40010000 	.word	0x40010000
 8004b50:	40010400 	.word	0x40010400
 8004b54:	40014000 	.word	0x40014000
 8004b58:	40000400 	.word	0x40000400

08004b5c <HAL_TIM_PWM_MspInit>:
__weak void HAL_TIM_PWM_MspInit(TIM_HandleTypeDef *htim)
 8004b5c:	4770      	bx	lr
 8004b5e:	bf00      	nop

08004b60 <HAL_TIM_PWM_Init>:
  if (htim == NULL)
 8004b60:	2800      	cmp	r0, #0
 8004b62:	f000 8089 	beq.w	8004c78 <HAL_TIM_PWM_Init+0x118>
{
 8004b66:	b5f8      	push	{r3, r4, r5, r6, r7, lr}
  if (htim->State == HAL_TIM_STATE_RESET)
 8004b68:	f890 303d 	ldrb.w	r3, [r0, #61]	@ 0x3d
 8004b6c:	4604      	mov	r4, r0
 8004b6e:	f003 02ff 	and.w	r2, r3, #255	@ 0xff
 8004b72:	2b00      	cmp	r3, #0
 8004b74:	d07b      	beq.n	8004c6e <HAL_TIM_PWM_Init+0x10e>
  TIM_Base_SetConfig(htim->Instance, &htim->Init);
 8004b76:	6822      	ldr	r2, [r4, #0]
  htim->State = HAL_TIM_STATE_BUSY;
 8004b78:	2302      	movs	r3, #2
  if (IS_TIM_COUNTER_MODE_SELECT_INSTANCE(TIMx))
 8004b7a:	4940      	ldr	r1, [pc, #256]	@ (8004c7c <HAL_TIM_PWM_Init+0x11c>)
 8004b7c:	4840      	ldr	r0, [pc, #256]	@ (8004c80 <HAL_TIM_PWM_Init+0x120>)
 8004b7e:	f1b2 4f80 	cmp.w	r2, #1073741824	@ 0x40000000
 8004b82:	eba2 0101 	sub.w	r1, r2, r1
  htim->State = HAL_TIM_STATE_BUSY;
 8004b86:	f884 303d 	strb.w	r3, [r4, #61]	@ 0x3d
  if (IS_TIM_COUNTER_MODE_SELECT_INSTANCE(TIMx))
 8004b8a:	eba2 0e00 	sub.w	lr, r2, r0
  tmpcr1 = TIMx->CR1;
 8004b8e:	6813      	ldr	r3, [r2, #0]
  if (IS_TIM_COUNTER_MODE_SELECT_INSTANCE(TIMx))
 8004b90:	fab1 f181 	clz	r1, r1
  MODIFY_REG(tmpcr1, TIM_CR1_ARPE, Structure->AutoReloadPreload);
 8004b94:	69a7      	ldr	r7, [r4, #24]
  if (IS_TIM_COUNTER_MODE_SELECT_INSTANCE(TIMx))
 8004b96:	fabe fe8e 	clz	lr, lr
  TIMx->PSC = Structure->Prescaler;
 8004b9a:	6865      	ldr	r5, [r4, #4]
  if (IS_TIM_COUNTER_MODE_SELECT_INSTANCE(TIMx))
 8004b9c:	ea4f 1151 	mov.w	r1, r1, lsr #5
  TIMx->ARR = (uint32_t)Structure->Period ;
 8004ba0:	68e6      	ldr	r6, [r4, #12]
  if (IS_TIM_COUNTER_MODE_SELECT_INSTANCE(TIMx))
 8004ba2:	ea4f 1e5e 	mov.w	lr, lr, lsr #5
 8004ba6:	d04d      	beq.n	8004c44 <HAL_TIM_PWM_Init+0xe4>
 8004ba8:	2900      	cmp	r1, #0
 8004baa:	d14b      	bne.n	8004c44 <HAL_TIM_PWM_Init+0xe4>
 8004bac:	f8df c0d8 	ldr.w	ip, [pc, #216]	@ 8004c88 <HAL_TIM_PWM_Init+0x128>
 8004bb0:	4562      	cmp	r2, ip
 8004bb2:	d047      	beq.n	8004c44 <HAL_TIM_PWM_Init+0xe4>
 8004bb4:	f50c 6c80 	add.w	ip, ip, #1024	@ 0x400
 8004bb8:	4562      	cmp	r2, ip
 8004bba:	d043      	beq.n	8004c44 <HAL_TIM_PWM_Init+0xe4>
 8004bbc:	f50c 6c80 	add.w	ip, ip, #1024	@ 0x400
 8004bc0:	4562      	cmp	r2, ip
 8004bc2:	d03f      	beq.n	8004c44 <HAL_TIM_PWM_Init+0xe4>
 8004bc4:	f1be 0f00 	cmp.w	lr, #0
 8004bc8:	d13c      	bne.n	8004c44 <HAL_TIM_PWM_Init+0xe4>
  if (IS_TIM_CLOCK_DIVISION_INSTANCE(TIMx))
 8004bca:	492e      	ldr	r1, [pc, #184]	@ (8004c84 <HAL_TIM_PWM_Init+0x124>)
 8004bcc:	428a      	cmp	r2, r1
 8004bce:	d013      	beq.n	8004bf8 <HAL_TIM_PWM_Init+0x98>
 8004bd0:	f501 6180 	add.w	r1, r1, #1024	@ 0x400
 8004bd4:	428a      	cmp	r2, r1
 8004bd6:	d00f      	beq.n	8004bf8 <HAL_TIM_PWM_Init+0x98>
 8004bd8:	f501 6180 	add.w	r1, r1, #1024	@ 0x400
 8004bdc:	428a      	cmp	r2, r1
 8004bde:	d00b      	beq.n	8004bf8 <HAL_TIM_PWM_Init+0x98>
 8004be0:	f5a1 3198 	sub.w	r1, r1, #77824	@ 0x13000
 8004be4:	428a      	cmp	r2, r1
 8004be6:	d007      	beq.n	8004bf8 <HAL_TIM_PWM_Init+0x98>
 8004be8:	f501 6180 	add.w	r1, r1, #1024	@ 0x400
 8004bec:	428a      	cmp	r2, r1
 8004bee:	d003      	beq.n	8004bf8 <HAL_TIM_PWM_Init+0x98>
 8004bf0:	f501 6180 	add.w	r1, r1, #1024	@ 0x400
 8004bf4:	428a      	cmp	r2, r1
 8004bf6:	d103      	bne.n	8004c00 <HAL_TIM_PWM_Init+0xa0>
    tmpcr1 &= ~TIM_CR1_CKD;
 8004bf8:	f423 7340 	bic.w	r3, r3, #768	@ 0x300
    tmpcr1 |= (uint32_t)Structure->ClockDivision;
 8004bfc:	6921      	ldr	r1, [r4, #16]
 8004bfe:	430b      	orrs	r3, r1
  MODIFY_REG(tmpcr1, TIM_CR1_ARPE, Structure->AutoReloadPreload);
 8004c00:	f023 0380 	bic.w	r3, r3, #128	@ 0x80
 8004c04:	433b      	orrs	r3, r7
  TIMx->CR1 = tmpcr1;
 8004c06:	6013      	str	r3, [r2, #0]
  TIMx->ARR = (uint32_t)Structure->Period ;
 8004c08:	62d6      	str	r6, [r2, #44]	@ 0x2c
  TIMx->PSC = Structure->Prescaler;
 8004c0a:	6295      	str	r5, [r2, #40]	@ 0x28
  TIMx->EGR = TIM_EGR_UG;
 8004c0c:	2301      	movs	r3, #1
  return HAL_OK;
 8004c0e:	2000      	movs	r0, #0
  TIMx->EGR = TIM_EGR_UG;
 8004c10:	6153      	str	r3, [r2, #20]
  htim->DMABurstState = HAL_DMA_BURST_STATE_READY;
 8004c12:	f884 3048 	strb.w	r3, [r4, #72]	@ 0x48
  TIM_CHANNEL_STATE_SET_ALL(htim, HAL_TIM_CHANNEL_STATE_READY);
 8004c16:	f884 303e 	strb.w	r3, [r4, #62]	@ 0x3e
 8004c1a:	f884 303f 	strb.w	r3, [r4, #63]	@ 0x3f
 8004c1e:	f884 3040 	strb.w	r3, [r4, #64]	@ 0x40
 8004c22:	f884 3041 	strb.w	r3, [r4, #65]	@ 0x41
 8004c26:	f884 3042 	strb.w	r3, [r4, #66]	@ 0x42
 8004c2a:	f884 3043 	strb.w	r3, [r4, #67]	@ 0x43
  TIM_CHANNEL_N_STATE_SET_ALL(htim, HAL_TIM_CHANNEL_STATE_READY);
 8004c2e:	f884 3044 	strb.w	r3, [r4, #68]	@ 0x44
 8004c32:	f884 3045 	strb.w	r3, [r4, #69]	@ 0x45
 8004c36:	f884 3046 	strb.w	r3, [r4, #70]	@ 0x46
 8004c3a:	f884 3047 	strb.w	r3, [r4, #71]	@ 0x47
  htim->State = HAL_TIM_STATE_READY;
 8004c3e:	f884 303d 	strb.w	r3, [r4, #61]	@ 0x3d
}
 8004c42:	bdf8      	pop	{r3, r4, r5, r6, r7, pc}
    tmpcr1 |= Structure->CounterMode;
 8004c44:	68a0      	ldr	r0, [r4, #8]
    tmpcr1 &= ~(TIM_CR1_DIR | TIM_CR1_CMS);
 8004c46:	f023 0370 	bic.w	r3, r3, #112	@ 0x70
    tmpcr1 |= Structure->CounterMode;
 8004c4a:	4303      	orrs	r3, r0
    tmpcr1 |= (uint32_t)Structure->ClockDivision;
 8004c4c:	6920      	ldr	r0, [r4, #16]
    tmpcr1 &= ~TIM_CR1_CKD;
 8004c4e:	f423 7340 	bic.w	r3, r3, #768	@ 0x300
    tmpcr1 |= (uint32_t)Structure->ClockDivision;
 8004c52:	4303      	orrs	r3, r0
  MODIFY_REG(tmpcr1, TIM_CR1_ARPE, Structure->AutoReloadPreload);
 8004c54:	f023 0380 	bic.w	r3, r3, #128	@ 0x80
 8004c58:	433b      	orrs	r3, r7
  TIMx->CR1 = tmpcr1;
 8004c5a:	6013      	str	r3, [r2, #0]
  TIMx->ARR = (uint32_t)Structure->Period ;
 8004c5c:	62d6      	str	r6, [r2, #44]	@ 0x2c
  TIMx->PSC = Structure->Prescaler;
 8004c5e:	6295      	str	r5, [r2, #40]	@ 0x28
  if (IS_TIM_REPETITION_COUNTER_INSTANCE(TIMx))
 8004c60:	b911      	cbnz	r1, 8004c68 <HAL_TIM_PWM_Init+0x108>
 8004c62:	f1be 0f00 	cmp.w	lr, #0
 8004c66:	d0d1      	beq.n	8004c0c <HAL_TIM_PWM_Init+0xac>
    TIMx->RCR = Structure->RepetitionCounter;
 8004c68:	6963      	ldr	r3, [r4, #20]
 8004c6a:	6313      	str	r3, [r2, #48]	@ 0x30
 8004c6c:	e7ce      	b.n	8004c0c <HAL_TIM_PWM_Init+0xac>
    htim->Lock = HAL_UNLOCKED;
 8004c6e:	f880 203c 	strb.w	r2, [r0, #60]	@ 0x3c
    HAL_TIM_PWM_MspInit(htim);
 8004c72:	f7ff ff73 	bl	8004b5c <HAL_TIM_PWM_MspInit>
 8004c76:	e77e      	b.n	8004b76 <HAL_TIM_PWM_Init+0x16>
    return HAL_ERROR;
 8004c78:	2001      	movs	r0, #1
}
 8004c7a:	4770      	bx	lr
 8004c7c:	40010000 	.word	0x40010000
 8004c80:	40010400 	.word	0x40010400
 8004c84:	40014000 	.word	0x40014000
 8004c88:	40000400 	.word	0x40000400

08004c8c <HAL_TIM_IC_Init>:
  if (htim == NULL)
 8004c8c:	2800      	cmp	r0, #0
 8004c8e:	f000 8089 	beq.w	8004da4 <HAL_TIM_IC_Init+0x118>
{
 8004c92:	b5f8      	push	{r3, r4, r5, r6, r7, lr}
  if (htim->State == HAL_TIM_STATE_RESET)
 8004c94:	f890 303d 	ldrb.w	r3, [r0, #61]	@ 0x3d
 8004c98:	4604      	mov	r4, r0
 8004c9a:	f003 02ff 	and.w	r2, r3, #255	@ 0xff
 8004c9e:	2b00      	cmp	r3, #0
 8004ca0:	d07b      	beq.n	8004d9a <HAL_TIM_IC_Init+0x10e>
  TIM_Base_SetConfig(htim->Instance, &htim->Init);
 8004ca2:	6822      	ldr	r2, [r4, #0]
  htim->State = HAL_TIM_STATE_BUSY;
 8004ca4:	2302      	movs	r3, #2
  if (IS_TIM_COUNTER_MODE_SELECT_INSTANCE(TIMx))
 8004ca6:	4940      	ldr	r1, [pc, #256]	@ (8004da8 <HAL_TIM_IC_Init+0x11c>)
 8004ca8:	4840      	ldr	r0, [pc, #256]	@ (8004dac <HAL_TIM_IC_Init+0x120>)
 8004caa:	f1b2 4f80 	cmp.w	r2, #1073741824	@ 0x40000000
 8004cae:	eba2 0101 	sub.w	r1, r2, r1
  htim->State = HAL_TIM_STATE_BUSY;
 8004cb2:	f884 303d 	strb.w	r3, [r4, #61]	@ 0x3d
  if (IS_TIM_COUNTER_MODE_SELECT_INSTANCE(TIMx))
 8004cb6:	eba2 0e00 	sub.w	lr, r2, r0
  tmpcr1 = TIMx->CR1;
 8004cba:	6813      	ldr	r3, [r2, #0]
  if (IS_TIM_COUNTER_MODE_SELECT_INSTANCE(TIMx))
 8004cbc:	fab1 f181 	clz	r1, r1
  MODIFY_REG(tmpcr1, TIM_CR1_ARPE, Structure->AutoReloadPreload);
 8004cc0:	69a7      	ldr	r7, [r4, #24]
  if (IS_TIM_COUNTER_MODE_SELECT_INSTANCE(TIMx))
 8004cc2:	fabe fe8e 	clz	lr, lr
  TIMx->PSC = Structure->Prescaler;
 8004cc6:	6865      	ldr	r5, [r4, #4]
  if (IS_TIM_COUNTER_MODE_SELECT_INSTANCE(TIMx))
 8004cc8:	ea4f 1151 	mov.w	r1, r1, lsr #5
  TIMx->ARR = (uint32_t)Structure->Period ;
 8004ccc:	68e6      	ldr	r6, [r4, #12]
  if (IS_TIM_COUNTER_MODE_SELECT_INSTANCE(TIMx))
 8004cce:	ea4f 1e5e 	mov.w	lr, lr, lsr #5
 8004cd2:	d04d      	beq.n	8004d70 <HAL_TIM_IC_Init+0xe4>
 8004cd4:	2900      	cmp	r1, #0
 8004cd6:	d14b      	bne.n	8004d70 <HAL_TIM_IC_Init+0xe4>
 8004cd8:	f8df c0d8 	ldr.w	ip, [pc, #216]	@ 8004db4 <HAL_TIM_IC_Init+0x128>
 8004cdc:	4562      	cmp	r2, ip
 8004cde:	d047      	beq.n	8004d70 <HAL_TIM_IC_Init+0xe4>
 8004ce0:	f50c 6c80 	add.w	ip, ip, #1024	@ 0x400
 8004ce4:	4562      	cmp	r2, ip
 8004ce6:	d043      	beq.n	8004d70 <HAL_TIM_IC_Init+0xe4>
 8004ce8:	f50c 6c80 	add.w	ip, ip, #1024	@ 0x400
 8004cec:	4562      	cmp	r2, ip
 8004cee:	d03f      	beq.n	8004d70 <HAL_TIM_IC_Init+0xe4>
 8004cf0:	f1be 0f00 	cmp.w	lr, #0
 8004cf4:	d13c      	bne.n	8004d70 <HAL_TIM_IC_Init+0xe4>
  if (IS_TIM_CLOCK_DIVISION_INSTANCE(TIMx))
 8004cf6:	492e      	ldr	r1, [pc, #184]	@ (8004db0 <HAL_TIM_IC_Init+0x124>)
 8004cf8:	428a      	cmp	r2, r1
 8004cfa:	d013      	beq.n	8004d24 <HAL_TIM_IC_Init+0x98>
 8004cfc:	f501 6180 	add.w	r1, r1, #1024	@ 0x400
 8004d00:	428a      	cmp	r2, r1
 8004d02:	d00f      	beq.n	8004d24 <HAL_TIM_IC_Init+0x98>
 8004d04:	f501 6180 	add.w	r1, r1, #1024	@ 0x400
 8004d08:	428a      	cmp	r2, r1
 8004d0a:	d00b      	beq.n	8004d24 <HAL_TIM_IC_Init+0x98>
 8004d0c:	f5a1 3198 	sub.w	r1, r1, #77824	@ 0x13000
 8004d10:	428a      	cmp	r2, r1
 8004d12:	d007      	beq.n	8004d24 <HAL_TIM_IC_Init+0x98>
 8004d14:	f501 6180 	add.w	r1, r1, #1024	@ 0x400
 8004d18:	428a      	cmp	r2, r1
 8004d1a:	d003      	beq.n	8004d24 <HAL_TIM_IC_Init+0x98>
 8004d1c:	f501 6180 	add.w	r1, r1, #1024	@ 0x400
 8004d20:	428a      	cmp	r2, r1
 8004d22:	d103      	bne.n	8004d2c <HAL_TIM_IC_Init+0xa0>
    tmpcr1 &= ~TIM_CR1_CKD;
 8004d24:	f423 7340 	bic.w	r3, r3, #768	@ 0x300
    tmpcr1 |= (uint32_t)Structure->ClockDivision;
 8004d28:	6921      	ldr	r1, [r4, #16]
 8004d2a:	430b      	orrs	r3, r1
  MODIFY_REG(tmpcr1, TIM_CR1_ARPE, Structure->AutoReloadPreload);
 8004d2c:	f023 0380 	bic.w	r3, r3, #128	@ 0x80
 8004d30:	433b      	orrs	r3, r7
  TIMx->CR1 = tmpcr1;
 8004d32:	6013      	str	r3, [r2, #0]
  TIMx->ARR = (uint32_t)Structure->Period ;
 8004d34:	62d6      	str	r6, [r2, #44]	@ 0x2c
  TIMx->PSC = Structure->Prescaler;
 8004d36:	6295      	str	r5, [r2, #40]	@ 0x28
  TIMx->EGR = TIM_EGR_UG;
 8004d38:	2301      	movs	r3, #1
  return HAL_OK;
 8004d3a:	2000      	movs	r0, #0
  TIMx->EGR = TIM_EGR_UG;
 8004d3c:	6153      	str	r3, [r2, #20]
  htim->DMABurstState = HAL_DMA_BURST_STATE_READY;
 8004d3e:	f884 3048 	strb.w	r3, [r4, #72]	@ 0x48
  TIM_CHANNEL_STATE_SET_ALL(htim, HAL_TIM_CHANNEL_STATE_READY);
 8004d42:	f884 303e 	strb.w	r3, [r4, #62]	@ 0x3e
 8004d46:	f884 303f 	strb.w	r3, [r4, #63]	@ 0x3f
 8004d4a:	f884 3040 	strb.w	r3, [r4, #64]	@ 0x40
 8004d4e:	f884 3041 	strb.w	r3, [r4, #65]	@ 0x41
 8004d52:	f884 3042 	strb.w	r3, [r4, #66]	@ 0x42
 8004d56:	f884 3043 	strb.w	r3, [r4, #67]	@ 0x43
  TIM_CHANNEL_N_STATE_SET_ALL(htim, HAL_TIM_CHANNEL_STATE_READY);
 8004d5a:	f884 3044 	strb.w	r3, [r4, #68]	@ 0x44
 8004d5e:	f884 3045 	strb.w	r3, [r4, #69]	@ 0x45
 8004d62:	f884 3046 	strb.w	r3, [r4, #70]	@ 0x46
 8004d66:	f884 3047 	strb.w	r3, [r4, #71]	@ 0x47
  htim->State = HAL_TIM_STATE_READY;
 8004d6a:	f884 303d 	strb.w	r3, [r4, #61]	@ 0x3d
}
 8004d6e:	bdf8      	pop	{r3, r4, r5, r6, r7, pc}
    tmpcr1 |= Structure->CounterMode;
 8004d70:	68a0      	ldr	r0, [r4, #8]
    tmpcr1 &= ~(TIM_CR1_DIR | TIM_CR1_CMS);
 8004d72:	f023 0370 	bic.w	r3, r3, #112	@ 0x70
    tmpcr1 |= Structure->CounterMode;
 8004d76:	4303      	orrs	r3, r0
    tmpcr1 |= (uint32_t)Structure->ClockDivision;
 8004d78:	6920      	ldr	r0, [r4, #16]
    tmpcr1 &= ~TIM_CR1_CKD;
 8004d7a:	f423 7340 	bic.w	r3, r3, #768	@ 0x300
    tmpcr1 |= (uint32_t)Structure->ClockDivision;
 8004d7e:	4303      	orrs	r3, r0
  MODIFY_REG(tmpcr1, TIM_CR1_ARPE, Structure->AutoReloadPreload);
 8004d80:	f023 0380 	bic.w	r3, r3, #128	@ 0x80
 8004d84:	433b      	orrs	r3, r7
  TIMx->CR1 = tmpcr1;
 8004d86:	6013      	str	r3, [r2, #0]
  TIMx->ARR = (uint32_t)Structure->Period ;
 8004d88:	62d6      	str	r6, [r2, #44]	@ 0x2c
  TIMx->PSC = Structure->Prescaler;
 8004d8a:	6295      	str	r5, [r2, #40]	@ 0x28
  if (IS_TIM_REPETITION_COUNTER_INSTANCE(TIMx))
 8004d8c:	b911      	cbnz	r1, 8004d94 <HAL_TIM_IC_Init+0x108>
 8004d8e:	f1be 0f00 	cmp.w	lr, #0
 8004d92:	d0d1      	beq.n	8004d38 <HAL_TIM_IC_Init+0xac>
    TIMx->RCR = Structure->RepetitionCounter;
 8004d94:	6963      	ldr	r3, [r4, #20]
 8004d96:	6313      	str	r3, [r2, #48]	@ 0x30
 8004d98:	e7ce      	b.n	8004d38 <HAL_TIM_IC_Init+0xac>
    htim->Lock = HAL_UNLOCKED;
 8004d9a:	f880 203c 	strb.w	r2, [r0, #60]	@ 0x3c
    HAL_TIM_IC_MspInit(htim);
 8004d9e:	f7fd faeb 	bl	8002378 <HAL_TIM_IC_MspInit>
 8004da2:	e77e      	b.n	8004ca2 <HAL_TIM_IC_Init+0x16>
    return HAL_ERROR;
 8004da4:	2001      	movs	r0, #1
}
 8004da6:	4770      	bx	lr
 8004da8:	40010000 	.word	0x40010000
 8004dac:	40010400 	.word	0x40010400
 8004db0:	40014000 	.word	0x40014000
 8004db4:	40000400 	.word	0x40000400

08004db8 <HAL_TIM_OC_ConfigChannel>:
  __HAL_LOCK(htim);
 8004db8:	f890 303c 	ldrb.w	r3, [r0, #60]	@ 0x3c
 8004dbc:	2b01      	cmp	r3, #1
 8004dbe:	f000 80e2 	beq.w	8004f86 <HAL_TIM_OC_ConfigChannel+0x1ce>
 8004dc2:	4684      	mov	ip, r0
{
 8004dc4:	b470      	push	{r4, r5, r6}
  switch (Channel)
 8004dc6:	2a14      	cmp	r2, #20
 8004dc8:	d816      	bhi.n	8004df8 <HAL_TIM_OC_ConfigChannel+0x40>
 8004dca:	e8df f012 	tbh	[pc, r2, lsl #1]
 8004dce:	0041      	.short	0x0041
 8004dd0:	00150015 	.word	0x00150015
 8004dd4:	00600015 	.word	0x00600015
 8004dd8:	00150015 	.word	0x00150015
 8004ddc:	00a00015 	.word	0x00a00015
 8004de0:	00150015 	.word	0x00150015
 8004de4:	00810015 	.word	0x00810015
 8004de8:	00150015 	.word	0x00150015
 8004dec:	00be0015 	.word	0x00be0015
 8004df0:	00150015 	.word	0x00150015
 8004df4:	001b0015 	.word	0x001b0015
  __HAL_UNLOCK(htim);
 8004df8:	2300      	movs	r3, #0
  switch (Channel)
 8004dfa:	2001      	movs	r0, #1
  __HAL_UNLOCK(htim);
 8004dfc:	f88c 303c 	strb.w	r3, [ip, #60]	@ 0x3c
}
 8004e00:	bc70      	pop	{r4, r5, r6}
 8004e02:	4770      	bx	lr
      TIM_OC6_SetConfig(htim->Instance, sConfig);
 8004e04:	6803      	ldr	r3, [r0, #0]
  tmpcr2 =  TIMx->CR2;
  /* Get the TIMx CCMR1 register value */
  tmpccmrx = TIMx->CCMR3;

  /* Reset the Output Compare Mode Bits */
  tmpccmrx &= ~(TIM_CCMR3_OC6M);
 8004e06:	487f      	ldr	r0, [pc, #508]	@ (8005004 <HAL_TIM_OC_ConfigChannel+0x24c>)
  TIMx->CCER &= ~TIM_CCER_CC6E;
 8004e08:	6a1a      	ldr	r2, [r3, #32]
 8004e0a:	f422 1280 	bic.w	r2, r2, #1048576	@ 0x100000
 8004e0e:	621a      	str	r2, [r3, #32]
  tmpccer = TIMx->CCER;
 8004e10:	6a1a      	ldr	r2, [r3, #32]
  tmpcr2 =  TIMx->CR2;
 8004e12:	685c      	ldr	r4, [r3, #4]
  tmpccmrx = TIMx->CCMR3;
 8004e14:	6d5d      	ldr	r5, [r3, #84]	@ 0x54
  /* Select the Output Compare Mode */
  tmpccmrx |= (OC_Config->OCMode << 8U);

  /* Reset the Output Polarity level */
  tmpccer &= (uint32_t)~TIM_CCER_CC6P;
 8004e16:	f422 1200 	bic.w	r2, r2, #2097152	@ 0x200000
  tmpccmrx &= ~(TIM_CCMR3_OC6M);
 8004e1a:	4028      	ands	r0, r5
  tmpccmrx |= (OC_Config->OCMode << 8U);
 8004e1c:	680d      	ldr	r5, [r1, #0]
 8004e1e:	ea40 2005 	orr.w	r0, r0, r5, lsl #8
  /* Set the Output Compare Polarity */
  tmpccer |= (OC_Config->OCPolarity << 20U);
 8004e22:	688d      	ldr	r5, [r1, #8]
 8004e24:	ea42 5205 	orr.w	r2, r2, r5, lsl #20

  if (IS_TIM_BREAK_INSTANCE(TIMx))
 8004e28:	4d77      	ldr	r5, [pc, #476]	@ (8005008 <HAL_TIM_OC_ConfigChannel+0x250>)
 8004e2a:	42ab      	cmp	r3, r5
 8004e2c:	f000 80ad 	beq.w	8004f8a <HAL_TIM_OC_ConfigChannel+0x1d2>
 8004e30:	f505 6580 	add.w	r5, r5, #1024	@ 0x400
 8004e34:	42ab      	cmp	r3, r5
 8004e36:	f000 80a8 	beq.w	8004f8a <HAL_TIM_OC_ConfigChannel+0x1d2>

  /* Write to TIMx CCMR3 */
  TIMx->CCMR3 = tmpccmrx;

  /* Set the Capture Compare Register value */
  TIMx->CCR6 = OC_Config->Pulse;
 8004e3a:	6849      	ldr	r1, [r1, #4]
  TIMx->CR2 = tmpcr2;
 8004e3c:	605c      	str	r4, [r3, #4]
  TIMx->CCMR3 = tmpccmrx;
 8004e3e:	6558      	str	r0, [r3, #84]	@ 0x54
  TIMx->CCR6 = OC_Config->Pulse;
 8004e40:	65d9      	str	r1, [r3, #92]	@ 0x5c

  /* Write to TIMx CCER */
  TIMx->CCER = tmpccer;
 8004e42:	621a      	str	r2, [r3, #32]
  __HAL_UNLOCK(htim);
 8004e44:	2300      	movs	r3, #0
  HAL_StatusTypeDef status = HAL_OK;
 8004e46:	2000      	movs	r0, #0
  __HAL_UNLOCK(htim);
 8004e48:	f88c 303c 	strb.w	r3, [ip, #60]	@ 0x3c
}
 8004e4c:	bc70      	pop	{r4, r5, r6}
 8004e4e:	4770      	bx	lr
      TIM_OC1_SetConfig(htim->Instance, sConfig);
 8004e50:	6803      	ldr	r3, [r0, #0]
  tmpccmrx &= ~TIM_CCMR1_CC1S;
 8004e52:	486e      	ldr	r0, [pc, #440]	@ (800500c <HAL_TIM_OC_ConfigChannel+0x254>)
  TIMx->CCER &= ~TIM_CCER_CC1E;
 8004e54:	6a1a      	ldr	r2, [r3, #32]
 8004e56:	f022 0201 	bic.w	r2, r2, #1
 8004e5a:	621a      	str	r2, [r3, #32]
  tmpccer = TIMx->CCER;
 8004e5c:	6a1a      	ldr	r2, [r3, #32]
  tmpcr2 =  TIMx->CR2;
 8004e5e:	685c      	ldr	r4, [r3, #4]
  tmpccmrx = TIMx->CCMR1;
 8004e60:	699d      	ldr	r5, [r3, #24]
  tmpccer &= ~TIM_CCER_CC1P;
 8004e62:	f022 0202 	bic.w	r2, r2, #2
  tmpccmrx &= ~TIM_CCMR1_CC1S;
 8004e66:	4028      	ands	r0, r5
  tmpccmrx |= OC_Config->OCMode;
 8004e68:	680d      	ldr	r5, [r1, #0]
 8004e6a:	4328      	orrs	r0, r5
  tmpccer |= OC_Config->OCPolarity;
 8004e6c:	688d      	ldr	r5, [r1, #8]
 8004e6e:	432a      	orrs	r2, r5
  if (IS_TIM_CCXN_INSTANCE(TIMx, TIM_CHANNEL_1))
 8004e70:	4d65      	ldr	r5, [pc, #404]	@ (8005008 <HAL_TIM_OC_ConfigChannel+0x250>)
 8004e72:	42ab      	cmp	r3, r5
 8004e74:	f000 8095 	beq.w	8004fa2 <HAL_TIM_OC_ConfigChannel+0x1ea>
 8004e78:	f505 6580 	add.w	r5, r5, #1024	@ 0x400
 8004e7c:	42ab      	cmp	r3, r5
 8004e7e:	f000 8090 	beq.w	8004fa2 <HAL_TIM_OC_ConfigChannel+0x1ea>
  TIMx->CCR1 = OC_Config->Pulse;
 8004e82:	6849      	ldr	r1, [r1, #4]
  TIMx->CR2 = tmpcr2;
 8004e84:	605c      	str	r4, [r3, #4]
  TIMx->CCMR1 = tmpccmrx;
 8004e86:	6198      	str	r0, [r3, #24]
  TIMx->CCR1 = OC_Config->Pulse;
 8004e88:	6359      	str	r1, [r3, #52]	@ 0x34
  TIMx->CCER = tmpccer;
 8004e8a:	621a      	str	r2, [r3, #32]
}
 8004e8c:	e7da      	b.n	8004e44 <HAL_TIM_OC_ConfigChannel+0x8c>
      TIM_OC2_SetConfig(htim->Instance, sConfig);
 8004e8e:	6803      	ldr	r3, [r0, #0]
  tmpccmrx &= ~TIM_CCMR1_CC2S;
 8004e90:	485f      	ldr	r0, [pc, #380]	@ (8005010 <HAL_TIM_OC_ConfigChannel+0x258>)
  TIMx->CCER &= ~TIM_CCER_CC2E;
 8004e92:	6a1a      	ldr	r2, [r3, #32]
 8004e94:	f022 0210 	bic.w	r2, r2, #16
 8004e98:	621a      	str	r2, [r3, #32]
  tmpccer = TIMx->CCER;
 8004e9a:	6a1a      	ldr	r2, [r3, #32]
  tmpcr2 =  TIMx->CR2;
 8004e9c:	685c      	ldr	r4, [r3, #4]
  tmpccmrx = TIMx->CCMR1;
 8004e9e:	699d      	ldr	r5, [r3, #24]
  tmpccer &= ~TIM_CCER_CC2P;
 8004ea0:	f022 0220 	bic.w	r2, r2, #32
  tmpccmrx &= ~TIM_CCMR1_CC2S;
 8004ea4:	4028      	ands	r0, r5
  tmpccmrx |= (OC_Config->OCMode << 8U);
 8004ea6:	680d      	ldr	r5, [r1, #0]
 8004ea8:	ea40 2005 	orr.w	r0, r0, r5, lsl #8
  tmpccer |= (OC_Config->OCPolarity << 4U);
 8004eac:	688d      	ldr	r5, [r1, #8]
 8004eae:	ea42 1205 	orr.w	r2, r2, r5, lsl #4
  if (IS_TIM_CCXN_INSTANCE(TIMx, TIM_CHANNEL_2))
 8004eb2:	4d55      	ldr	r5, [pc, #340]	@ (8005008 <HAL_TIM_OC_ConfigChannel+0x250>)
 8004eb4:	42ab      	cmp	r3, r5
 8004eb6:	f000 8087 	beq.w	8004fc8 <HAL_TIM_OC_ConfigChannel+0x210>
 8004eba:	f505 6580 	add.w	r5, r5, #1024	@ 0x400
 8004ebe:	42ab      	cmp	r3, r5
 8004ec0:	f000 8082 	beq.w	8004fc8 <HAL_TIM_OC_ConfigChannel+0x210>
  TIMx->CCR2 = OC_Config->Pulse;
 8004ec4:	6849      	ldr	r1, [r1, #4]
  TIMx->CR2 = tmpcr2;
 8004ec6:	605c      	str	r4, [r3, #4]
  TIMx->CCMR1 = tmpccmrx;
 8004ec8:	6198      	str	r0, [r3, #24]
  TIMx->CCR2 = OC_Config->Pulse;
 8004eca:	6399      	str	r1, [r3, #56]	@ 0x38
  TIMx->CCER = tmpccer;
 8004ecc:	621a      	str	r2, [r3, #32]
}
 8004ece:	e7b9      	b.n	8004e44 <HAL_TIM_OC_ConfigChannel+0x8c>
      TIM_OC4_SetConfig(htim->Instance, sConfig);
 8004ed0:	6803      	ldr	r3, [r0, #0]
  tmpccmrx &= ~TIM_CCMR2_CC4S;
 8004ed2:	484f      	ldr	r0, [pc, #316]	@ (8005010 <HAL_TIM_OC_ConfigChannel+0x258>)
  TIMx->CCER &= ~TIM_CCER_CC4E;
 8004ed4:	6a1a      	ldr	r2, [r3, #32]
 8004ed6:	f422 5280 	bic.w	r2, r2, #4096	@ 0x1000
 8004eda:	621a      	str	r2, [r3, #32]
  tmpccer = TIMx->CCER;
 8004edc:	6a1a      	ldr	r2, [r3, #32]
  tmpcr2 =  TIMx->CR2;
 8004ede:	685c      	ldr	r4, [r3, #4]
  tmpccmrx = TIMx->CCMR2;
 8004ee0:	69dd      	ldr	r5, [r3, #28]
  tmpccer &= ~TIM_CCER_CC4P;
 8004ee2:	f422 5200 	bic.w	r2, r2, #8192	@ 0x2000
  tmpccmrx &= ~TIM_CCMR2_CC4S;
 8004ee6:	4028      	ands	r0, r5
  tmpccmrx |= (OC_Config->OCMode << 8U);
 8004ee8:	680d      	ldr	r5, [r1, #0]
 8004eea:	ea40 2005 	orr.w	r0, r0, r5, lsl #8
  tmpccer |= (OC_Config->OCPolarity << 12U);
 8004eee:	688d      	ldr	r5, [r1, #8]
 8004ef0:	ea42 3205 	orr.w	r2, r2, r5, lsl #12
  if (IS_TIM_BREAK_INSTANCE(TIMx))
 8004ef4:	4d44      	ldr	r5, [pc, #272]	@ (8005008 <HAL_TIM_OC_ConfigChannel+0x250>)
 8004ef6:	42ab      	cmp	r3, r5
 8004ef8:	d060      	beq.n	8004fbc <HAL_TIM_OC_ConfigChannel+0x204>
 8004efa:	f505 6580 	add.w	r5, r5, #1024	@ 0x400
 8004efe:	42ab      	cmp	r3, r5
 8004f00:	d05c      	beq.n	8004fbc <HAL_TIM_OC_ConfigChannel+0x204>
  TIMx->CCR4 = OC_Config->Pulse;
 8004f02:	6849      	ldr	r1, [r1, #4]
  TIMx->CR2 = tmpcr2;
 8004f04:	605c      	str	r4, [r3, #4]
  TIMx->CCMR2 = tmpccmrx;
 8004f06:	61d8      	str	r0, [r3, #28]
  TIMx->CCR4 = OC_Config->Pulse;
 8004f08:	6419      	str	r1, [r3, #64]	@ 0x40
  TIMx->CCER = tmpccer;
 8004f0a:	621a      	str	r2, [r3, #32]
}
 8004f0c:	e79a      	b.n	8004e44 <HAL_TIM_OC_ConfigChannel+0x8c>
      TIM_OC3_SetConfig(htim->Instance, sConfig);
 8004f0e:	6803      	ldr	r3, [r0, #0]
  tmpccmrx &= ~TIM_CCMR2_CC3S;
 8004f10:	483e      	ldr	r0, [pc, #248]	@ (800500c <HAL_TIM_OC_ConfigChannel+0x254>)
  TIMx->CCER &= ~TIM_CCER_CC3E;
 8004f12:	6a1a      	ldr	r2, [r3, #32]
 8004f14:	f422 7280 	bic.w	r2, r2, #256	@ 0x100
 8004f18:	621a      	str	r2, [r3, #32]
  tmpccer = TIMx->CCER;
 8004f1a:	6a1a      	ldr	r2, [r3, #32]
  tmpcr2 =  TIMx->CR2;
 8004f1c:	685c      	ldr	r4, [r3, #4]
  tmpccmrx = TIMx->CCMR2;
 8004f1e:	69dd      	ldr	r5, [r3, #28]
  tmpccer &= ~TIM_CCER_CC3P;
 8004f20:	f422 7200 	bic.w	r2, r2, #512	@ 0x200
  tmpccmrx &= ~TIM_CCMR2_CC3S;
 8004f24:	4028      	ands	r0, r5
  tmpccmrx |= OC_Config->OCMode;
 8004f26:	680d      	ldr	r5, [r1, #0]
 8004f28:	4328      	orrs	r0, r5
  tmpccer |= (OC_Config->OCPolarity << 8U);
 8004f2a:	688d      	ldr	r5, [r1, #8]
 8004f2c:	ea42 2205 	orr.w	r2, r2, r5, lsl #8
  if (IS_TIM_CCXN_INSTANCE(TIMx, TIM_CHANNEL_3))
 8004f30:	4d35      	ldr	r5, [pc, #212]	@ (8005008 <HAL_TIM_OC_ConfigChannel+0x250>)
 8004f32:	42ab      	cmp	r3, r5
 8004f34:	d057      	beq.n	8004fe6 <HAL_TIM_OC_ConfigChannel+0x22e>
 8004f36:	f505 6580 	add.w	r5, r5, #1024	@ 0x400
 8004f3a:	42ab      	cmp	r3, r5
 8004f3c:	d053      	beq.n	8004fe6 <HAL_TIM_OC_ConfigChannel+0x22e>
  TIMx->CCR3 = OC_Config->Pulse;
 8004f3e:	6849      	ldr	r1, [r1, #4]
  TIMx->CR2 = tmpcr2;
 8004f40:	605c      	str	r4, [r3, #4]
  TIMx->CCMR2 = tmpccmrx;
 8004f42:	61d8      	str	r0, [r3, #28]
  TIMx->CCR3 = OC_Config->Pulse;
 8004f44:	63d9      	str	r1, [r3, #60]	@ 0x3c
  TIMx->CCER = tmpccer;
 8004f46:	621a      	str	r2, [r3, #32]
}
 8004f48:	e77c      	b.n	8004e44 <HAL_TIM_OC_ConfigChannel+0x8c>
      TIM_OC5_SetConfig(htim->Instance, sConfig);
 8004f4a:	6803      	ldr	r3, [r0, #0]
  tmpccmrx &= ~(TIM_CCMR3_OC5M);
 8004f4c:	4831      	ldr	r0, [pc, #196]	@ (8005014 <HAL_TIM_OC_ConfigChannel+0x25c>)
  TIMx->CCER &= ~TIM_CCER_CC5E;
 8004f4e:	6a1a      	ldr	r2, [r3, #32]
 8004f50:	f422 3280 	bic.w	r2, r2, #65536	@ 0x10000
 8004f54:	621a      	str	r2, [r3, #32]
  tmpccer = TIMx->CCER;
 8004f56:	6a1a      	ldr	r2, [r3, #32]
  tmpcr2 =  TIMx->CR2;
 8004f58:	685c      	ldr	r4, [r3, #4]
  tmpccmrx = TIMx->CCMR3;
 8004f5a:	6d5d      	ldr	r5, [r3, #84]	@ 0x54
  tmpccer &= ~TIM_CCER_CC5P;
 8004f5c:	f422 3200 	bic.w	r2, r2, #131072	@ 0x20000
  tmpccmrx &= ~(TIM_CCMR3_OC5M);
 8004f60:	4028      	ands	r0, r5
  tmpccmrx |= OC_Config->OCMode;
 8004f62:	680d      	ldr	r5, [r1, #0]
 8004f64:	4328      	orrs	r0, r5
  tmpccer |= (OC_Config->OCPolarity << 16U);
 8004f66:	688d      	ldr	r5, [r1, #8]
 8004f68:	ea42 4205 	orr.w	r2, r2, r5, lsl #16
  if (IS_TIM_BREAK_INSTANCE(TIMx))
 8004f6c:	4d26      	ldr	r5, [pc, #152]	@ (8005008 <HAL_TIM_OC_ConfigChannel+0x250>)
 8004f6e:	42ab      	cmp	r3, r5
 8004f70:	d011      	beq.n	8004f96 <HAL_TIM_OC_ConfigChannel+0x1de>
 8004f72:	f505 6580 	add.w	r5, r5, #1024	@ 0x400
 8004f76:	42ab      	cmp	r3, r5
 8004f78:	d00d      	beq.n	8004f96 <HAL_TIM_OC_ConfigChannel+0x1de>
  TIMx->CCR5 = OC_Config->Pulse;
 8004f7a:	6849      	ldr	r1, [r1, #4]
  TIMx->CR2 = tmpcr2;
 8004f7c:	605c      	str	r4, [r3, #4]
  TIMx->CCMR3 = tmpccmrx;
 8004f7e:	6558      	str	r0, [r3, #84]	@ 0x54
  TIMx->CCR5 = OC_Config->Pulse;
 8004f80:	6599      	str	r1, [r3, #88]	@ 0x58
  TIMx->CCER = tmpccer;
 8004f82:	621a      	str	r2, [r3, #32]
}
 8004f84:	e75e      	b.n	8004e44 <HAL_TIM_OC_ConfigChannel+0x8c>
  __HAL_LOCK(htim);
 8004f86:	2002      	movs	r0, #2
}
 8004f88:	4770      	bx	lr
    tmpcr2 &= ~TIM_CR2_OIS6;
 8004f8a:	f424 2480 	bic.w	r4, r4, #262144	@ 0x40000
    tmpcr2 |= (OC_Config->OCIdleState << 10U);
 8004f8e:	694d      	ldr	r5, [r1, #20]
 8004f90:	ea44 2485 	orr.w	r4, r4, r5, lsl #10
 8004f94:	e751      	b.n	8004e3a <HAL_TIM_OC_ConfigChannel+0x82>
    tmpcr2 &= ~TIM_CR2_OIS5;
 8004f96:	f424 3480 	bic.w	r4, r4, #65536	@ 0x10000
    tmpcr2 |= (OC_Config->OCIdleState << 8U);
 8004f9a:	694d      	ldr	r5, [r1, #20]
 8004f9c:	ea44 2405 	orr.w	r4, r4, r5, lsl #8
 8004fa0:	e7eb      	b.n	8004f7a <HAL_TIM_OC_ConfigChannel+0x1c2>
    tmpccer |= OC_Config->OCNPolarity;
 8004fa2:	68cd      	ldr	r5, [r1, #12]
    tmpccer &= ~TIM_CCER_CC1NP;
 8004fa4:	f022 0208 	bic.w	r2, r2, #8
    tmpcr2 &= ~TIM_CR2_OIS1N;
 8004fa8:	f424 7440 	bic.w	r4, r4, #768	@ 0x300
    tmpccer |= OC_Config->OCNPolarity;
 8004fac:	432a      	orrs	r2, r5
    tmpcr2 |= OC_Config->OCNIdleState;
 8004fae:	e9d1 5605 	ldrd	r5, r6, [r1, #20]
    tmpccer &= ~TIM_CCER_CC1NE;
 8004fb2:	f022 0204 	bic.w	r2, r2, #4
    tmpcr2 |= OC_Config->OCNIdleState;
 8004fb6:	4335      	orrs	r5, r6
 8004fb8:	432c      	orrs	r4, r5
 8004fba:	e762      	b.n	8004e82 <HAL_TIM_OC_ConfigChannel+0xca>
    tmpcr2 &= ~TIM_CR2_OIS4;
 8004fbc:	f424 4480 	bic.w	r4, r4, #16384	@ 0x4000
    tmpcr2 |= (OC_Config->OCIdleState << 6U);
 8004fc0:	694d      	ldr	r5, [r1, #20]
 8004fc2:	ea44 1485 	orr.w	r4, r4, r5, lsl #6
 8004fc6:	e79c      	b.n	8004f02 <HAL_TIM_OC_ConfigChannel+0x14a>
    tmpccer |= (OC_Config->OCNPolarity << 4U);
 8004fc8:	68cd      	ldr	r5, [r1, #12]
    tmpccer &= ~TIM_CCER_CC2NP;
 8004fca:	f022 0280 	bic.w	r2, r2, #128	@ 0x80
    tmpcr2 &= ~TIM_CR2_OIS2N;
 8004fce:	f424 6440 	bic.w	r4, r4, #3072	@ 0xc00
    tmpccer |= (OC_Config->OCNPolarity << 4U);
 8004fd2:	ea42 1205 	orr.w	r2, r2, r5, lsl #4
    tmpcr2 |= (OC_Config->OCNIdleState << 2U);
 8004fd6:	e9d1 5605 	ldrd	r5, r6, [r1, #20]
    tmpccer &= ~TIM_CCER_CC2NE;
 8004fda:	f022 0240 	bic.w	r2, r2, #64	@ 0x40
    tmpcr2 |= (OC_Config->OCNIdleState << 2U);
 8004fde:	4335      	orrs	r5, r6
 8004fe0:	ea44 0485 	orr.w	r4, r4, r5, lsl #2
 8004fe4:	e76e      	b.n	8004ec4 <HAL_TIM_OC_ConfigChannel+0x10c>
    tmpccer |= (OC_Config->OCNPolarity << 8U);
 8004fe6:	68cd      	ldr	r5, [r1, #12]
    tmpccer &= ~TIM_CCER_CC3NP;
 8004fe8:	f422 6200 	bic.w	r2, r2, #2048	@ 0x800
    tmpcr2 &= ~TIM_CR2_OIS3N;
 8004fec:	f424 5440 	bic.w	r4, r4, #12288	@ 0x3000
    tmpccer |= (OC_Config->OCNPolarity << 8U);
 8004ff0:	ea42 2205 	orr.w	r2, r2, r5, lsl #8
    tmpcr2 |= (OC_Config->OCNIdleState << 4U);
 8004ff4:	e9d1 5605 	ldrd	r5, r6, [r1, #20]
    tmpccer &= ~TIM_CCER_CC3NE;
 8004ff8:	f422 6280 	bic.w	r2, r2, #1024	@ 0x400
    tmpcr2 |= (OC_Config->OCNIdleState << 4U);
 8004ffc:	4335      	orrs	r5, r6
 8004ffe:	ea44 1405 	orr.w	r4, r4, r5, lsl #4
 8005002:	e79c      	b.n	8004f3e <HAL_TIM_OC_ConfigChannel+0x186>
 8005004:	feff8fff 	.word	0xfeff8fff
 8005008:	40010000 	.word	0x40010000
 800500c:	fffeff8c 	.word	0xfffeff8c
 8005010:	feff8cff 	.word	0xfeff8cff
 8005014:	fffeff8f 	.word	0xfffeff8f

08005018 <HAL_TIM_IC_ConfigChannel>:
{
 8005018:	4603      	mov	r3, r0
  __HAL_LOCK(htim);
 800501a:	f890 003c 	ldrb.w	r0, [r0, #60]	@ 0x3c
 800501e:	2801      	cmp	r0, #1
 8005020:	f000 80c9 	beq.w	80051b6 <HAL_TIM_IC_ConfigChannel+0x19e>
 8005024:	2001      	movs	r0, #1
{
 8005026:	b4f0      	push	{r4, r5, r6, r7}
  __HAL_LOCK(htim);
 8005028:	f883 003c 	strb.w	r0, [r3, #60]	@ 0x3c
  if (Channel == TIM_CHANNEL_1)
 800502c:	b15a      	cbz	r2, 8005046 <HAL_TIM_IC_ConfigChannel+0x2e>
  else if (Channel == TIM_CHANNEL_2)
 800502e:	2a04      	cmp	r2, #4
 8005030:	d054      	beq.n	80050dc <HAL_TIM_IC_ConfigChannel+0xc4>
  else if (Channel == TIM_CHANNEL_3)
 8005032:	2a08      	cmp	r2, #8
 8005034:	f000 809c 	beq.w	8005170 <HAL_TIM_IC_ConfigChannel+0x158>
  else if (Channel == TIM_CHANNEL_4)
 8005038:	2a0c      	cmp	r2, #12
 800503a:	d074      	beq.n	8005126 <HAL_TIM_IC_ConfigChannel+0x10e>
  __HAL_UNLOCK(htim);
 800503c:	2200      	movs	r2, #0
 800503e:	f883 203c 	strb.w	r2, [r3, #60]	@ 0x3c
}
 8005042:	bcf0      	pop	{r4, r5, r6, r7}
 8005044:	4770      	bx	lr
    TIM_TI1_SetConfig(htim->Instance,
 8005046:	681a      	ldr	r2, [r3, #0]
  TIMx->CCER &= ~TIM_CCER_CC1E;
  tmpccmr1 = TIMx->CCMR1;
  tmpccer = TIMx->CCER;

  /* Select the Input */
  if (IS_TIM_CC2_INSTANCE(TIMx) != RESET)
 8005048:	f8df c170 	ldr.w	ip, [pc, #368]	@ 80051bc <HAL_TIM_IC_ConfigChannel+0x1a4>
  TIMx->CCER &= ~TIM_CCER_CC1E;
 800504c:	6a16      	ldr	r6, [r2, #32]
  if (IS_TIM_CC2_INSTANCE(TIMx) != RESET)
 800504e:	4562      	cmp	r2, ip
                      sConfig->ICFilter);
 8005050:	68c8      	ldr	r0, [r1, #12]
  TIMx->CCER &= ~TIM_CCER_CC1E;
 8005052:	f026 0601 	bic.w	r6, r6, #1
                      sConfig->ICSelection,
 8005056:	e9d1 4500 	ldrd	r4, r5, [r1]
  TIMx->CCER &= ~TIM_CCER_CC1E;
 800505a:	6216      	str	r6, [r2, #32]
  tmpccmr1 = TIMx->CCMR1;
 800505c:	6997      	ldr	r7, [r2, #24]
  tmpccer = TIMx->CCER;
 800505e:	6a16      	ldr	r6, [r2, #32]
  if (IS_TIM_CC2_INSTANCE(TIMx) != RESET)
 8005060:	d01d      	beq.n	800509e <HAL_TIM_IC_ConfigChannel+0x86>
 8005062:	f1b2 4f80 	cmp.w	r2, #1073741824	@ 0x40000000
 8005066:	d01a      	beq.n	800509e <HAL_TIM_IC_ConfigChannel+0x86>
 8005068:	f5ac 4c7c 	sub.w	ip, ip, #64512	@ 0xfc00
 800506c:	4562      	cmp	r2, ip
 800506e:	d016      	beq.n	800509e <HAL_TIM_IC_ConfigChannel+0x86>
 8005070:	f50c 6c80 	add.w	ip, ip, #1024	@ 0x400
 8005074:	4562      	cmp	r2, ip
 8005076:	d012      	beq.n	800509e <HAL_TIM_IC_ConfigChannel+0x86>
 8005078:	f50c 6c80 	add.w	ip, ip, #1024	@ 0x400
 800507c:	4562      	cmp	r2, ip
 800507e:	d00e      	beq.n	800509e <HAL_TIM_IC_ConfigChannel+0x86>
 8005080:	f50c 4c78 	add.w	ip, ip, #63488	@ 0xf800
 8005084:	4562      	cmp	r2, ip
 8005086:	d00a      	beq.n	800509e <HAL_TIM_IC_ConfigChannel+0x86>
 8005088:	f50c 5c70 	add.w	ip, ip, #15360	@ 0x3c00
 800508c:	4562      	cmp	r2, ip
 800508e:	d006      	beq.n	800509e <HAL_TIM_IC_ConfigChannel+0x86>
 8005090:	f5ac 3c94 	sub.w	ip, ip, #75776	@ 0x12800
 8005094:	4562      	cmp	r2, ip
 8005096:	d002      	beq.n	800509e <HAL_TIM_IC_ConfigChannel+0x86>
    tmpccmr1 &= ~TIM_CCMR1_CC1S;
    tmpccmr1 |= TIM_ICSelection;
  }
  else
  {
    tmpccmr1 |= TIM_CCMR1_CC1S_0;
 8005098:	f047 0c01 	orr.w	ip, r7, #1
 800509c:	e003      	b.n	80050a6 <HAL_TIM_IC_ConfigChannel+0x8e>
    tmpccmr1 &= ~TIM_CCMR1_CC1S;
 800509e:	f027 0703 	bic.w	r7, r7, #3
    tmpccmr1 |= TIM_ICSelection;
 80050a2:	ea45 0c07 	orr.w	ip, r5, r7
  }

  /* Set the filter */
  tmpccmr1 &= ~TIM_CCMR1_IC1F;
  tmpccmr1 |= ((TIM_ICFilter << 4U) & TIM_CCMR1_IC1F);
 80050a6:	0100      	lsls	r0, r0, #4
  tmpccmr1 &= ~TIM_CCMR1_IC1F;
 80050a8:	f02c 0cf0 	bic.w	ip, ip, #240	@ 0xf0

  /* Select the Polarity and set the CC1E Bit */
  tmpccer &= ~(TIM_CCER_CC1P | TIM_CCER_CC1NP);
 80050ac:	f026 050a 	bic.w	r5, r6, #10
  tmpccer |= (TIM_ICPolarity & (TIM_CCER_CC1P | TIM_CCER_CC1NP));
 80050b0:	f004 040a 	and.w	r4, r4, #10
  tmpccmr1 |= ((TIM_ICFilter << 4U) & TIM_CCMR1_IC1F);
 80050b4:	b2c0      	uxtb	r0, r0
  tmpccer |= (TIM_ICPolarity & (TIM_CCER_CC1P | TIM_CCER_CC1NP));
 80050b6:	432c      	orrs	r4, r5
  tmpccmr1 |= ((TIM_ICFilter << 4U) & TIM_CCMR1_IC1F);
 80050b8:	ea40 000c 	orr.w	r0, r0, ip

  /* Write to TIMx CCMR1 and CCER registers */
  TIMx->CCMR1 = tmpccmr1;
 80050bc:	6190      	str	r0, [r2, #24]
  TIMx->CCER = tmpccer;
 80050be:	6214      	str	r4, [r2, #32]
    htim->Instance->CCMR1 &= ~TIM_CCMR1_IC1PSC;
 80050c0:	6990      	ldr	r0, [r2, #24]
    htim->Instance->CCMR1 |= sConfig->ICPrescaler;
 80050c2:	688c      	ldr	r4, [r1, #8]
    htim->Instance->CCMR1 &= ~TIM_CCMR1_IC1PSC;
 80050c4:	f020 000c 	bic.w	r0, r0, #12
 80050c8:	6190      	str	r0, [r2, #24]
    htim->Instance->CCMR1 |= sConfig->ICPrescaler;
 80050ca:	6991      	ldr	r1, [r2, #24]
 80050cc:	4321      	orrs	r1, r4
 80050ce:	6191      	str	r1, [r2, #24]
  __HAL_UNLOCK(htim);
 80050d0:	2200      	movs	r2, #0
  HAL_StatusTypeDef status = HAL_OK;
 80050d2:	2000      	movs	r0, #0
  __HAL_UNLOCK(htim);
 80050d4:	f883 203c 	strb.w	r2, [r3, #60]	@ 0x3c
}
 80050d8:	bcf0      	pop	{r4, r5, r6, r7}
 80050da:	4770      	bx	lr
    TIM_TI2_SetConfig(htim->Instance,
 80050dc:	681a      	ldr	r2, [r3, #0]
                      sConfig->ICFilter);
 80050de:	68c8      	ldr	r0, [r1, #12]
{
  uint32_t tmpccmr1;
  uint32_t tmpccer;

  /* Disable the Channel 2: Reset the CC2E Bit */
  TIMx->CCER &= ~TIM_CCER_CC2E;
 80050e0:	6a14      	ldr	r4, [r2, #32]
  tmpccmr1 &= ~TIM_CCMR1_CC2S;
  tmpccmr1 |= (TIM_ICSelection << 8U);

  /* Set the filter */
  tmpccmr1 &= ~TIM_CCMR1_IC2F;
  tmpccmr1 |= ((TIM_ICFilter << 12U) & TIM_CCMR1_IC2F);
 80050e2:	0300      	lsls	r0, r0, #12
  TIMx->CCER &= ~TIM_CCER_CC2E;
 80050e4:	f024 0410 	bic.w	r4, r4, #16
                      sConfig->ICSelection,
 80050e8:	e9d1 5600 	ldrd	r5, r6, [r1]
  TIMx->CCER &= ~TIM_CCER_CC2E;
 80050ec:	6214      	str	r4, [r2, #32]
    htim->Instance->CCMR1 |= (sConfig->ICPrescaler << 8U);
 80050ee:	688c      	ldr	r4, [r1, #8]
  tmpccmr1 |= ((TIM_ICFilter << 12U) & TIM_CCMR1_IC2F);
 80050f0:	b281      	uxth	r1, r0
  tmpccmr1 = TIMx->CCMR1;
 80050f2:	6990      	ldr	r0, [r2, #24]

  /* Select the Polarity and set the CC2E Bit */
  tmpccer &= ~(TIM_CCER_CC2P | TIM_CCER_CC2NP);
  tmpccer |= ((TIM_ICPolarity << 4U) & (TIM_CCER_CC2P | TIM_CCER_CC2NP));
 80050f4:	012d      	lsls	r5, r5, #4
  tmpccmr1 &= ~TIM_CCMR1_CC2S;
 80050f6:	f420 7040 	bic.w	r0, r0, #768	@ 0x300
  tmpccer |= ((TIM_ICPolarity << 4U) & (TIM_CCER_CC2P | TIM_CCER_CC2NP));
 80050fa:	f005 05a0 	and.w	r5, r5, #160	@ 0xa0
  tmpccmr1 |= (TIM_ICSelection << 8U);
 80050fe:	ea40 2006 	orr.w	r0, r0, r6, lsl #8
  tmpccmr1 &= ~TIM_CCMR1_IC2F;
 8005102:	f420 4070 	bic.w	r0, r0, #61440	@ 0xf000
  tmpccmr1 |= ((TIM_ICFilter << 12U) & TIM_CCMR1_IC2F);
 8005106:	4301      	orrs	r1, r0
  tmpccer = TIMx->CCER;
 8005108:	6a10      	ldr	r0, [r2, #32]

  /* Write to TIMx CCMR1 and CCER registers */
  TIMx->CCMR1 = tmpccmr1 ;
 800510a:	6191      	str	r1, [r2, #24]
  tmpccer &= ~(TIM_CCER_CC2P | TIM_CCER_CC2NP);
 800510c:	f020 01a0 	bic.w	r1, r0, #160	@ 0xa0
  tmpccer |= ((TIM_ICPolarity << 4U) & (TIM_CCER_CC2P | TIM_CCER_CC2NP));
 8005110:	4329      	orrs	r1, r5
  TIMx->CCER = tmpccer;
 8005112:	6211      	str	r1, [r2, #32]
    htim->Instance->CCMR1 &= ~TIM_CCMR1_IC2PSC;
 8005114:	6991      	ldr	r1, [r2, #24]
 8005116:	f421 6140 	bic.w	r1, r1, #3072	@ 0xc00
 800511a:	6191      	str	r1, [r2, #24]
    htim->Instance->CCMR1 |= (sConfig->ICPrescaler << 8U);
 800511c:	6991      	ldr	r1, [r2, #24]
 800511e:	ea41 2104 	orr.w	r1, r1, r4, lsl #8
 8005122:	6191      	str	r1, [r2, #24]
 8005124:	e7d4      	b.n	80050d0 <HAL_TIM_IC_ConfigChannel+0xb8>
    TIM_TI4_SetConfig(htim->Instance,
 8005126:	681a      	ldr	r2, [r3, #0]
                      sConfig->ICFilter);
 8005128:	68c8      	ldr	r0, [r1, #12]
{
  uint32_t tmpccmr2;
  uint32_t tmpccer;

  /* Disable the Channel 4: Reset the CC4E Bit */
  TIMx->CCER &= ~TIM_CCER_CC4E;
 800512a:	6a14      	ldr	r4, [r2, #32]
  tmpccmr2 &= ~TIM_CCMR2_CC4S;
  tmpccmr2 |= (TIM_ICSelection << 8U);

  /* Set the filter */
  tmpccmr2 &= ~TIM_CCMR2_IC4F;
  tmpccmr2 |= ((TIM_ICFilter << 12U) & TIM_CCMR2_IC4F);
 800512c:	0300      	lsls	r0, r0, #12
  TIMx->CCER &= ~TIM_CCER_CC4E;
 800512e:	f424 5480 	bic.w	r4, r4, #4096	@ 0x1000
                      sConfig->ICSelection,
 8005132:	e9d1 5600 	ldrd	r5, r6, [r1]
  TIMx->CCER &= ~TIM_CCER_CC4E;
 8005136:	6214      	str	r4, [r2, #32]
    htim->Instance->CCMR2 |= (sConfig->ICPrescaler << 8U);
 8005138:	688c      	ldr	r4, [r1, #8]
  tmpccmr2 |= ((TIM_ICFilter << 12U) & TIM_CCMR2_IC4F);
 800513a:	b281      	uxth	r1, r0
  tmpccmr2 = TIMx->CCMR2;
 800513c:	69d0      	ldr	r0, [r2, #28]

  /* Select the Polarity and set the CC4E Bit */
  tmpccer &= ~(TIM_CCER_CC4P | TIM_CCER_CC4NP);
  tmpccer |= ((TIM_ICPolarity << 12U) & (TIM_CCER_CC4P | TIM_CCER_CC4NP));
 800513e:	032d      	lsls	r5, r5, #12
  tmpccmr2 &= ~TIM_CCMR2_CC4S;
 8005140:	f420 7040 	bic.w	r0, r0, #768	@ 0x300
  tmpccer |= ((TIM_ICPolarity << 12U) & (TIM_CCER_CC4P | TIM_CCER_CC4NP));
 8005144:	f405 4520 	and.w	r5, r5, #40960	@ 0xa000
  tmpccmr2 |= (TIM_ICSelection << 8U);
 8005148:	ea40 2006 	orr.w	r0, r0, r6, lsl #8
  tmpccmr2 &= ~TIM_CCMR2_IC4F;
 800514c:	f420 4070 	bic.w	r0, r0, #61440	@ 0xf000
  tmpccmr2 |= ((TIM_ICFilter << 12U) & TIM_CCMR2_IC4F);
 8005150:	4301      	orrs	r1, r0
  tmpccer = TIMx->CCER;
 8005152:	6a10      	ldr	r0, [r2, #32]

  /* Write to TIMx CCMR2 and CCER registers */
  TIMx->CCMR2 = tmpccmr2;
 8005154:	61d1      	str	r1, [r2, #28]
  tmpccer &= ~(TIM_CCER_CC4P | TIM_CCER_CC4NP);
 8005156:	f420 4120 	bic.w	r1, r0, #40960	@ 0xa000
  tmpccer |= ((TIM_ICPolarity << 12U) & (TIM_CCER_CC4P | TIM_CCER_CC4NP));
 800515a:	4329      	orrs	r1, r5
  TIMx->CCER = tmpccer ;
 800515c:	6211      	str	r1, [r2, #32]
    htim->Instance->CCMR2 &= ~TIM_CCMR2_IC4PSC;
 800515e:	69d1      	ldr	r1, [r2, #28]
 8005160:	f421 6140 	bic.w	r1, r1, #3072	@ 0xc00
 8005164:	61d1      	str	r1, [r2, #28]
    htim->Instance->CCMR2 |= (sConfig->ICPrescaler << 8U);
 8005166:	69d1      	ldr	r1, [r2, #28]
 8005168:	ea41 2104 	orr.w	r1, r1, r4, lsl #8
 800516c:	61d1      	str	r1, [r2, #28]
 800516e:	e7af      	b.n	80050d0 <HAL_TIM_IC_ConfigChannel+0xb8>
    TIM_TI3_SetConfig(htim->Instance,
 8005170:	681a      	ldr	r2, [r3, #0]
                      sConfig->ICFilter);
 8005172:	68c8      	ldr	r0, [r1, #12]
  TIMx->CCER &= ~TIM_CCER_CC3E;
 8005174:	6a16      	ldr	r6, [r2, #32]
  tmpccmr2 |= ((TIM_ICFilter << 4U) & TIM_CCMR2_IC3F);
 8005176:	0100      	lsls	r0, r0, #4
  TIMx->CCER &= ~TIM_CCER_CC3E;
 8005178:	f426 7680 	bic.w	r6, r6, #256	@ 0x100
                      sConfig->ICSelection,
 800517c:	e9d1 5400 	ldrd	r5, r4, [r1]
  TIMx->CCER &= ~TIM_CCER_CC3E;
 8005180:	6216      	str	r6, [r2, #32]
    htim->Instance->CCMR2 |= sConfig->ICPrescaler;
 8005182:	688e      	ldr	r6, [r1, #8]
  tmpccmr2 |= ((TIM_ICFilter << 4U) & TIM_CCMR2_IC3F);
 8005184:	b2c1      	uxtb	r1, r0
  tmpccmr2 = TIMx->CCMR2;
 8005186:	69d0      	ldr	r0, [r2, #28]
  tmpccer |= ((TIM_ICPolarity << 8U) & (TIM_CCER_CC3P | TIM_CCER_CC3NP));
 8005188:	022d      	lsls	r5, r5, #8
  tmpccmr2 &= ~TIM_CCMR2_CC3S;
 800518a:	f020 0003 	bic.w	r0, r0, #3
  tmpccer |= ((TIM_ICPolarity << 8U) & (TIM_CCER_CC3P | TIM_CCER_CC3NP));
 800518e:	f405 6520 	and.w	r5, r5, #2560	@ 0xa00
  tmpccmr2 |= TIM_ICSelection;
 8005192:	4320      	orrs	r0, r4
  tmpccmr2 &= ~TIM_CCMR2_IC3F;
 8005194:	f020 00f0 	bic.w	r0, r0, #240	@ 0xf0
  tmpccmr2 |= ((TIM_ICFilter << 4U) & TIM_CCMR2_IC3F);
 8005198:	4301      	orrs	r1, r0
  tmpccer = TIMx->CCER;
 800519a:	6a10      	ldr	r0, [r2, #32]
  TIMx->CCMR2 = tmpccmr2;
 800519c:	61d1      	str	r1, [r2, #28]
  tmpccer &= ~(TIM_CCER_CC3P | TIM_CCER_CC3NP);
 800519e:	f420 6120 	bic.w	r1, r0, #2560	@ 0xa00
  tmpccer |= ((TIM_ICPolarity << 8U) & (TIM_CCER_CC3P | TIM_CCER_CC3NP));
 80051a2:	4329      	orrs	r1, r5
  TIMx->CCER = tmpccer;
 80051a4:	6211      	str	r1, [r2, #32]
    htim->Instance->CCMR2 &= ~TIM_CCMR2_IC3PSC;
 80051a6:	69d1      	ldr	r1, [r2, #28]
 80051a8:	f021 010c 	bic.w	r1, r1, #12
 80051ac:	61d1      	str	r1, [r2, #28]
    htim->Instance->CCMR2 |= sConfig->ICPrescaler;
 80051ae:	69d1      	ldr	r1, [r2, #28]
 80051b0:	4331      	orrs	r1, r6
 80051b2:	61d1      	str	r1, [r2, #28]
 80051b4:	e78c      	b.n	80050d0 <HAL_TIM_IC_ConfigChannel+0xb8>
  __HAL_LOCK(htim);
 80051b6:	2002      	movs	r0, #2
}
 80051b8:	4770      	bx	lr
 80051ba:	bf00      	nop
 80051bc:	40010000 	.word	0x40010000

080051c0 <HAL_TIM_PWM_ConfigChannel>:
  __HAL_LOCK(htim);
 80051c0:	f890 303c 	ldrb.w	r3, [r0, #60]	@ 0x3c
 80051c4:	2b01      	cmp	r3, #1
 80051c6:	f000 8132 	beq.w	800542e <HAL_TIM_PWM_ConfigChannel+0x26e>
 80051ca:	2301      	movs	r3, #1
 80051cc:	4684      	mov	ip, r0
{
 80051ce:	b470      	push	{r4, r5, r6}
  __HAL_LOCK(htim);
 80051d0:	f880 303c 	strb.w	r3, [r0, #60]	@ 0x3c
  switch (Channel)
 80051d4:	2a14      	cmp	r2, #20
 80051d6:	d816      	bhi.n	8005206 <HAL_TIM_PWM_ConfigChannel+0x46>
 80051d8:	e8df f012 	tbh	[pc, r2, lsl #1]
 80051dc:	0015004e 	.word	0x0015004e
 80051e0:	00150015 	.word	0x00150015
 80051e4:	00150079 	.word	0x00150079
 80051e8:	00150015 	.word	0x00150015
 80051ec:	001500d5 	.word	0x001500d5
 80051f0:	00150015 	.word	0x00150015
 80051f4:	001500a7 	.word	0x001500a7
 80051f8:	00150015 	.word	0x00150015
 80051fc:	001500ff 	.word	0x001500ff
 8005200:	00150015 	.word	0x00150015
 8005204:	001b      	.short	0x001b
  __HAL_UNLOCK(htim);
 8005206:	2300      	movs	r3, #0
  switch (Channel)
 8005208:	2001      	movs	r0, #1
  __HAL_UNLOCK(htim);
 800520a:	f88c 303c 	strb.w	r3, [ip, #60]	@ 0x3c
}
 800520e:	bc70      	pop	{r4, r5, r6}
 8005210:	4770      	bx	lr
      TIM_OC6_SetConfig(htim->Instance, sConfig);
 8005212:	6803      	ldr	r3, [r0, #0]
  tmpccmrx &= ~(TIM_CCMR3_OC6M);
 8005214:	48a5      	ldr	r0, [pc, #660]	@ (80054ac <HAL_TIM_PWM_ConfigChannel+0x2ec>)
  TIMx->CCER &= ~TIM_CCER_CC6E;
 8005216:	6a1a      	ldr	r2, [r3, #32]
 8005218:	f422 1280 	bic.w	r2, r2, #1048576	@ 0x100000
 800521c:	621a      	str	r2, [r3, #32]
  tmpccer = TIMx->CCER;
 800521e:	6a1a      	ldr	r2, [r3, #32]
  tmpcr2 =  TIMx->CR2;
 8005220:	685c      	ldr	r4, [r3, #4]
  tmpccmrx = TIMx->CCMR3;
 8005222:	6d5d      	ldr	r5, [r3, #84]	@ 0x54
  tmpccer &= (uint32_t)~TIM_CCER_CC6P;
 8005224:	f422 1200 	bic.w	r2, r2, #2097152	@ 0x200000
  tmpccmrx &= ~(TIM_CCMR3_OC6M);
 8005228:	4028      	ands	r0, r5
  tmpccmrx |= (OC_Config->OCMode << 8U);
 800522a:	680d      	ldr	r5, [r1, #0]
 800522c:	ea40 2005 	orr.w	r0, r0, r5, lsl #8
  tmpccer |= (OC_Config->OCPolarity << 20U);
 8005230:	688d      	ldr	r5, [r1, #8]
 8005232:	ea42 5205 	orr.w	r2, r2, r5, lsl #20
  if (IS_TIM_BREAK_INSTANCE(TIMx))
 8005236:	4d9e      	ldr	r5, [pc, #632]	@ (80054b0 <HAL_TIM_PWM_ConfigChannel+0x2f0>)
 8005238:	42ab      	cmp	r3, r5
 800523a:	f000 80fa 	beq.w	8005432 <HAL_TIM_PWM_ConfigChannel+0x272>
 800523e:	f505 6580 	add.w	r5, r5, #1024	@ 0x400
 8005242:	42ab      	cmp	r3, r5
 8005244:	f000 80f5 	beq.w	8005432 <HAL_TIM_PWM_ConfigChannel+0x272>
  TIMx->CR2 = tmpcr2;
 8005248:	605c      	str	r4, [r3, #4]
  TIMx->CCMR3 = tmpccmrx;
 800524a:	6558      	str	r0, [r3, #84]	@ 0x54
  TIMx->CCR6 = OC_Config->Pulse;
 800524c:	6848      	ldr	r0, [r1, #4]
      htim->Instance->CCMR3 |= sConfig->OCFastMode << 8U;
 800524e:	6909      	ldr	r1, [r1, #16]
  TIMx->CCR6 = OC_Config->Pulse;
 8005250:	65d8      	str	r0, [r3, #92]	@ 0x5c
  TIMx->CCER = tmpccer;
 8005252:	621a      	str	r2, [r3, #32]
      htim->Instance->CCMR3 |= TIM_CCMR3_OC6PE;
 8005254:	6d5a      	ldr	r2, [r3, #84]	@ 0x54
 8005256:	f442 6200 	orr.w	r2, r2, #2048	@ 0x800
 800525a:	655a      	str	r2, [r3, #84]	@ 0x54
      htim->Instance->CCMR3 &= ~TIM_CCMR3_OC6FE;
 800525c:	6d5a      	ldr	r2, [r3, #84]	@ 0x54
 800525e:	f422 6280 	bic.w	r2, r2, #1024	@ 0x400
 8005262:	655a      	str	r2, [r3, #84]	@ 0x54
      htim->Instance->CCMR3 |= sConfig->OCFastMode << 8U;
 8005264:	6d5a      	ldr	r2, [r3, #84]	@ 0x54
 8005266:	ea42 2201 	orr.w	r2, r2, r1, lsl #8
 800526a:	655a      	str	r2, [r3, #84]	@ 0x54
  __HAL_UNLOCK(htim);
 800526c:	2300      	movs	r3, #0
  HAL_StatusTypeDef status = HAL_OK;
 800526e:	2000      	movs	r0, #0
  __HAL_UNLOCK(htim);
 8005270:	f88c 303c 	strb.w	r3, [ip, #60]	@ 0x3c
}
 8005274:	bc70      	pop	{r4, r5, r6}
 8005276:	4770      	bx	lr
      TIM_OC1_SetConfig(htim->Instance, sConfig);
 8005278:	6803      	ldr	r3, [r0, #0]
  tmpccmrx &= ~TIM_CCMR1_CC1S;
 800527a:	488e      	ldr	r0, [pc, #568]	@ (80054b4 <HAL_TIM_PWM_ConfigChannel+0x2f4>)
  TIMx->CCER &= ~TIM_CCER_CC1E;
 800527c:	6a1a      	ldr	r2, [r3, #32]
 800527e:	f022 0201 	bic.w	r2, r2, #1
 8005282:	621a      	str	r2, [r3, #32]
  tmpccer = TIMx->CCER;
 8005284:	6a1a      	ldr	r2, [r3, #32]
  tmpcr2 =  TIMx->CR2;
 8005286:	685c      	ldr	r4, [r3, #4]
  tmpccmrx = TIMx->CCMR1;
 8005288:	699d      	ldr	r5, [r3, #24]
  tmpccer &= ~TIM_CCER_CC1P;
 800528a:	f022 0202 	bic.w	r2, r2, #2
  tmpccmrx &= ~TIM_CCMR1_CC1S;
 800528e:	4028      	ands	r0, r5
  tmpccmrx |= OC_Config->OCMode;
 8005290:	680d      	ldr	r5, [r1, #0]
 8005292:	4328      	orrs	r0, r5
  tmpccer |= OC_Config->OCPolarity;
 8005294:	688d      	ldr	r5, [r1, #8]
 8005296:	432a      	orrs	r2, r5
  if (IS_TIM_CCXN_INSTANCE(TIMx, TIM_CHANNEL_1))
 8005298:	4d85      	ldr	r5, [pc, #532]	@ (80054b0 <HAL_TIM_PWM_ConfigChannel+0x2f0>)
 800529a:	42ab      	cmp	r3, r5
 800529c:	f000 80d5 	beq.w	800544a <HAL_TIM_PWM_ConfigChannel+0x28a>
 80052a0:	f505 6580 	add.w	r5, r5, #1024	@ 0x400
 80052a4:	42ab      	cmp	r3, r5
 80052a6:	f000 80d0 	beq.w	800544a <HAL_TIM_PWM_ConfigChannel+0x28a>
  TIMx->CR2 = tmpcr2;
 80052aa:	605c      	str	r4, [r3, #4]
  TIMx->CCMR1 = tmpccmrx;
 80052ac:	6198      	str	r0, [r3, #24]
  TIMx->CCR1 = OC_Config->Pulse;
 80052ae:	6848      	ldr	r0, [r1, #4]
      htim->Instance->CCMR1 |= sConfig->OCFastMode;
 80052b0:	6909      	ldr	r1, [r1, #16]
  TIMx->CCR1 = OC_Config->Pulse;
 80052b2:	6358      	str	r0, [r3, #52]	@ 0x34
  TIMx->CCER = tmpccer;
 80052b4:	621a      	str	r2, [r3, #32]
      htim->Instance->CCMR1 |= TIM_CCMR1_OC1PE;
 80052b6:	699a      	ldr	r2, [r3, #24]
 80052b8:	f042 0208 	orr.w	r2, r2, #8
 80052bc:	619a      	str	r2, [r3, #24]
      htim->Instance->CCMR1 &= ~TIM_CCMR1_OC1FE;
 80052be:	699a      	ldr	r2, [r3, #24]
 80052c0:	f022 0204 	bic.w	r2, r2, #4
 80052c4:	619a      	str	r2, [r3, #24]
      htim->Instance->CCMR1 |= sConfig->OCFastMode;
 80052c6:	699a      	ldr	r2, [r3, #24]
 80052c8:	430a      	orrs	r2, r1
 80052ca:	619a      	str	r2, [r3, #24]
      break;
 80052cc:	e7ce      	b.n	800526c <HAL_TIM_PWM_ConfigChannel+0xac>
      TIM_OC2_SetConfig(htim->Instance, sConfig);
 80052ce:	6803      	ldr	r3, [r0, #0]
  tmpccmrx &= ~TIM_CCMR1_CC2S;
 80052d0:	4879      	ldr	r0, [pc, #484]	@ (80054b8 <HAL_TIM_PWM_ConfigChannel+0x2f8>)
  TIMx->CCER &= ~TIM_CCER_CC2E;
 80052d2:	6a1a      	ldr	r2, [r3, #32]
 80052d4:	f022 0210 	bic.w	r2, r2, #16
 80052d8:	621a      	str	r2, [r3, #32]
  tmpccer = TIMx->CCER;
 80052da:	6a1a      	ldr	r2, [r3, #32]
  tmpcr2 =  TIMx->CR2;
 80052dc:	685c      	ldr	r4, [r3, #4]
  tmpccmrx = TIMx->CCMR1;
 80052de:	699d      	ldr	r5, [r3, #24]
  tmpccer &= ~TIM_CCER_CC2P;
 80052e0:	f022 0220 	bic.w	r2, r2, #32
  tmpccmrx &= ~TIM_CCMR1_CC2S;
 80052e4:	4028      	ands	r0, r5
  tmpccmrx |= (OC_Config->OCMode << 8U);
 80052e6:	680d      	ldr	r5, [r1, #0]
 80052e8:	ea40 2005 	orr.w	r0, r0, r5, lsl #8
  tmpccer |= (OC_Config->OCPolarity << 4U);
 80052ec:	688d      	ldr	r5, [r1, #8]
 80052ee:	ea42 1205 	orr.w	r2, r2, r5, lsl #4
  if (IS_TIM_CCXN_INSTANCE(TIMx, TIM_CHANNEL_2))
 80052f2:	4d6f      	ldr	r5, [pc, #444]	@ (80054b0 <HAL_TIM_PWM_ConfigChannel+0x2f0>)
 80052f4:	42ab      	cmp	r3, r5
 80052f6:	f000 80bb 	beq.w	8005470 <HAL_TIM_PWM_ConfigChannel+0x2b0>
 80052fa:	f505 6580 	add.w	r5, r5, #1024	@ 0x400
 80052fe:	42ab      	cmp	r3, r5
 8005300:	f000 80b6 	beq.w	8005470 <HAL_TIM_PWM_ConfigChannel+0x2b0>
  TIMx->CR2 = tmpcr2;
 8005304:	605c      	str	r4, [r3, #4]
  TIMx->CCMR1 = tmpccmrx;
 8005306:	6198      	str	r0, [r3, #24]
  TIMx->CCR2 = OC_Config->Pulse;
 8005308:	6848      	ldr	r0, [r1, #4]
      htim->Instance->CCMR1 |= sConfig->OCFastMode << 8U;
 800530a:	6909      	ldr	r1, [r1, #16]
  TIMx->CCR2 = OC_Config->Pulse;
 800530c:	6398      	str	r0, [r3, #56]	@ 0x38
  TIMx->CCER = tmpccer;
 800530e:	621a      	str	r2, [r3, #32]
      htim->Instance->CCMR1 |= TIM_CCMR1_OC2PE;
 8005310:	699a      	ldr	r2, [r3, #24]
 8005312:	f442 6200 	orr.w	r2, r2, #2048	@ 0x800
 8005316:	619a      	str	r2, [r3, #24]
      htim->Instance->CCMR1 &= ~TIM_CCMR1_OC2FE;
 8005318:	699a      	ldr	r2, [r3, #24]
 800531a:	f422 6280 	bic.w	r2, r2, #1024	@ 0x400
 800531e:	619a      	str	r2, [r3, #24]
      htim->Instance->CCMR1 |= sConfig->OCFastMode << 8U;
 8005320:	699a      	ldr	r2, [r3, #24]
 8005322:	ea42 2201 	orr.w	r2, r2, r1, lsl #8
 8005326:	619a      	str	r2, [r3, #24]
      break;
 8005328:	e7a0      	b.n	800526c <HAL_TIM_PWM_ConfigChannel+0xac>
      TIM_OC4_SetConfig(htim->Instance, sConfig);
 800532a:	6803      	ldr	r3, [r0, #0]
  tmpccmrx &= ~TIM_CCMR2_CC4S;
 800532c:	4862      	ldr	r0, [pc, #392]	@ (80054b8 <HAL_TIM_PWM_ConfigChannel+0x2f8>)
  TIMx->CCER &= ~TIM_CCER_CC4E;
 800532e:	6a1a      	ldr	r2, [r3, #32]
 8005330:	f422 5280 	bic.w	r2, r2, #4096	@ 0x1000
 8005334:	621a      	str	r2, [r3, #32]
  tmpccer = TIMx->CCER;
 8005336:	6a1a      	ldr	r2, [r3, #32]
  tmpcr2 =  TIMx->CR2;
 8005338:	685c      	ldr	r4, [r3, #4]
  tmpccmrx = TIMx->CCMR2;
 800533a:	69dd      	ldr	r5, [r3, #28]
  tmpccer &= ~TIM_CCER_CC4P;
 800533c:	f422 5200 	bic.w	r2, r2, #8192	@ 0x2000
  tmpccmrx &= ~TIM_CCMR2_CC4S;
 8005340:	4028      	ands	r0, r5
  tmpccmrx |= (OC_Config->OCMode << 8U);
 8005342:	680d      	ldr	r5, [r1, #0]
 8005344:	ea40 2005 	orr.w	r0, r0, r5, lsl #8
  tmpccer |= (OC_Config->OCPolarity << 12U);
 8005348:	688d      	ldr	r5, [r1, #8]
 800534a:	ea42 3205 	orr.w	r2, r2, r5, lsl #12
  if (IS_TIM_BREAK_INSTANCE(TIMx))
 800534e:	4d58      	ldr	r5, [pc, #352]	@ (80054b0 <HAL_TIM_PWM_ConfigChannel+0x2f0>)
 8005350:	42ab      	cmp	r3, r5
 8005352:	f000 8087 	beq.w	8005464 <HAL_TIM_PWM_ConfigChannel+0x2a4>
 8005356:	f505 6580 	add.w	r5, r5, #1024	@ 0x400
 800535a:	42ab      	cmp	r3, r5
 800535c:	f000 8082 	beq.w	8005464 <HAL_TIM_PWM_ConfigChannel+0x2a4>
  TIMx->CR2 = tmpcr2;
 8005360:	605c      	str	r4, [r3, #4]
  TIMx->CCMR2 = tmpccmrx;
 8005362:	61d8      	str	r0, [r3, #28]
  TIMx->CCR4 = OC_Config->Pulse;
 8005364:	6848      	ldr	r0, [r1, #4]
      htim->Instance->CCMR2 |= sConfig->OCFastMode << 8U;
 8005366:	6909      	ldr	r1, [r1, #16]
  TIMx->CCR4 = OC_Config->Pulse;
 8005368:	6418      	str	r0, [r3, #64]	@ 0x40
  TIMx->CCER = tmpccer;
 800536a:	621a      	str	r2, [r3, #32]
      htim->Instance->CCMR2 |= TIM_CCMR2_OC4PE;
 800536c:	69da      	ldr	r2, [r3, #28]
 800536e:	f442 6200 	orr.w	r2, r2, #2048	@ 0x800
 8005372:	61da      	str	r2, [r3, #28]
      htim->Instance->CCMR2 &= ~TIM_CCMR2_OC4FE;
 8005374:	69da      	ldr	r2, [r3, #28]
 8005376:	f422 6280 	bic.w	r2, r2, #1024	@ 0x400
 800537a:	61da      	str	r2, [r3, #28]
      htim->Instance->CCMR2 |= sConfig->OCFastMode << 8U;
 800537c:	69da      	ldr	r2, [r3, #28]
 800537e:	ea42 2201 	orr.w	r2, r2, r1, lsl #8
 8005382:	61da      	str	r2, [r3, #28]
      break;
 8005384:	e772      	b.n	800526c <HAL_TIM_PWM_ConfigChannel+0xac>
      TIM_OC3_SetConfig(htim->Instance, sConfig);
 8005386:	6803      	ldr	r3, [r0, #0]
  tmpccmrx &= ~TIM_CCMR2_CC3S;
 8005388:	484a      	ldr	r0, [pc, #296]	@ (80054b4 <HAL_TIM_PWM_ConfigChannel+0x2f4>)
  TIMx->CCER &= ~TIM_CCER_CC3E;
 800538a:	6a1a      	ldr	r2, [r3, #32]
 800538c:	f422 7280 	bic.w	r2, r2, #256	@ 0x100
 8005390:	621a      	str	r2, [r3, #32]
  tmpccer = TIMx->CCER;
 8005392:	6a1a      	ldr	r2, [r3, #32]
  tmpcr2 =  TIMx->CR2;
 8005394:	685c      	ldr	r4, [r3, #4]
  tmpccmrx = TIMx->CCMR2;
 8005396:	69dd      	ldr	r5, [r3, #28]
  tmpccer &= ~TIM_CCER_CC3P;
 8005398:	f422 7200 	bic.w	r2, r2, #512	@ 0x200
  tmpccmrx &= ~TIM_CCMR2_CC3S;
 800539c:	4028      	ands	r0, r5
  tmpccmrx |= OC_Config->OCMode;
 800539e:	680d      	ldr	r5, [r1, #0]
 80053a0:	4328      	orrs	r0, r5
  tmpccer |= (OC_Config->OCPolarity << 8U);
 80053a2:	688d      	ldr	r5, [r1, #8]
 80053a4:	ea42 2205 	orr.w	r2, r2, r5, lsl #8
  if (IS_TIM_CCXN_INSTANCE(TIMx, TIM_CHANNEL_3))
 80053a8:	4d41      	ldr	r5, [pc, #260]	@ (80054b0 <HAL_TIM_PWM_ConfigChannel+0x2f0>)
 80053aa:	42ab      	cmp	r3, r5
 80053ac:	d06f      	beq.n	800548e <HAL_TIM_PWM_ConfigChannel+0x2ce>
 80053ae:	f505 6580 	add.w	r5, r5, #1024	@ 0x400
 80053b2:	42ab      	cmp	r3, r5
 80053b4:	d06b      	beq.n	800548e <HAL_TIM_PWM_ConfigChannel+0x2ce>
  TIMx->CR2 = tmpcr2;
 80053b6:	605c      	str	r4, [r3, #4]
  TIMx->CCMR2 = tmpccmrx;
 80053b8:	61d8      	str	r0, [r3, #28]
  TIMx->CCR3 = OC_Config->Pulse;
 80053ba:	6848      	ldr	r0, [r1, #4]
      htim->Instance->CCMR2 |= sConfig->OCFastMode;
 80053bc:	6909      	ldr	r1, [r1, #16]
  TIMx->CCR3 = OC_Config->Pulse;
 80053be:	63d8      	str	r0, [r3, #60]	@ 0x3c
  TIMx->CCER = tmpccer;
 80053c0:	621a      	str	r2, [r3, #32]
      htim->Instance->CCMR2 |= TIM_CCMR2_OC3PE;
 80053c2:	69da      	ldr	r2, [r3, #28]
 80053c4:	f042 0208 	orr.w	r2, r2, #8
 80053c8:	61da      	str	r2, [r3, #28]
      htim->Instance->CCMR2 &= ~TIM_CCMR2_OC3FE;
 80053ca:	69da      	ldr	r2, [r3, #28]
 80053cc:	f022 0204 	bic.w	r2, r2, #4
 80053d0:	61da      	str	r2, [r3, #28]
      htim->Instance->CCMR2 |= sConfig->OCFastMode;
 80053d2:	69da      	ldr	r2, [r3, #28]
 80053d4:	430a      	orrs	r2, r1
 80053d6:	61da      	str	r2, [r3, #28]
      break;
 80053d8:	e748      	b.n	800526c <HAL_TIM_PWM_ConfigChannel+0xac>
      TIM_OC5_SetConfig(htim->Instance, sConfig);
 80053da:	6803      	ldr	r3, [r0, #0]
  tmpccmrx &= ~(TIM_CCMR3_OC5M);
 80053dc:	4837      	ldr	r0, [pc, #220]	@ (80054bc <HAL_TIM_PWM_ConfigChannel+0x2fc>)
  TIMx->CCER &= ~TIM_CCER_CC5E;
 80053de:	6a1a      	ldr	r2, [r3, #32]
 80053e0:	f422 3280 	bic.w	r2, r2, #65536	@ 0x10000
 80053e4:	621a      	str	r2, [r3, #32]
  tmpccer = TIMx->CCER;
 80053e6:	6a1a      	ldr	r2, [r3, #32]
  tmpcr2 =  TIMx->CR2;
 80053e8:	685c      	ldr	r4, [r3, #4]
  tmpccmrx = TIMx->CCMR3;
 80053ea:	6d5d      	ldr	r5, [r3, #84]	@ 0x54
  tmpccer &= ~TIM_CCER_CC5P;
 80053ec:	f422 3200 	bic.w	r2, r2, #131072	@ 0x20000
  tmpccmrx &= ~(TIM_CCMR3_OC5M);
 80053f0:	4028      	ands	r0, r5
  tmpccmrx |= OC_Config->OCMode;
 80053f2:	680d      	ldr	r5, [r1, #0]
 80053f4:	4328      	orrs	r0, r5
  tmpccer |= (OC_Config->OCPolarity << 16U);
 80053f6:	688d      	ldr	r5, [r1, #8]
 80053f8:	ea42 4205 	orr.w	r2, r2, r5, lsl #16
  if (IS_TIM_BREAK_INSTANCE(TIMx))
 80053fc:	4d2c      	ldr	r5, [pc, #176]	@ (80054b0 <HAL_TIM_PWM_ConfigChannel+0x2f0>)
 80053fe:	42ab      	cmp	r3, r5
 8005400:	d01d      	beq.n	800543e <HAL_TIM_PWM_ConfigChannel+0x27e>
 8005402:	f505 6580 	add.w	r5, r5, #1024	@ 0x400
 8005406:	42ab      	cmp	r3, r5
 8005408:	d019      	beq.n	800543e <HAL_TIM_PWM_ConfigChannel+0x27e>
  TIMx->CR2 = tmpcr2;
 800540a:	605c      	str	r4, [r3, #4]
  TIMx->CCMR3 = tmpccmrx;
 800540c:	6558      	str	r0, [r3, #84]	@ 0x54
  TIMx->CCR5 = OC_Config->Pulse;
 800540e:	6848      	ldr	r0, [r1, #4]
      htim->Instance->CCMR3 |= sConfig->OCFastMode;
 8005410:	6909      	ldr	r1, [r1, #16]
  TIMx->CCR5 = OC_Config->Pulse;
 8005412:	6598      	str	r0, [r3, #88]	@ 0x58
  TIMx->CCER = tmpccer;
 8005414:	621a      	str	r2, [r3, #32]
      htim->Instance->CCMR3 |= TIM_CCMR3_OC5PE;
 8005416:	6d5a      	ldr	r2, [r3, #84]	@ 0x54
 8005418:	f042 0208 	orr.w	r2, r2, #8
 800541c:	655a      	str	r2, [r3, #84]	@ 0x54
      htim->Instance->CCMR3 &= ~TIM_CCMR3_OC5FE;
 800541e:	6d5a      	ldr	r2, [r3, #84]	@ 0x54
 8005420:	f022 0204 	bic.w	r2, r2, #4
 8005424:	655a      	str	r2, [r3, #84]	@ 0x54
      htim->Instance->CCMR3 |= sConfig->OCFastMode;
 8005426:	6d5a      	ldr	r2, [r3, #84]	@ 0x54
 8005428:	430a      	orrs	r2, r1
 800542a:	655a      	str	r2, [r3, #84]	@ 0x54
      break;
 800542c:	e71e      	b.n	800526c <HAL_TIM_PWM_ConfigChannel+0xac>
  __HAL_LOCK(htim);
 800542e:	2002      	movs	r0, #2
}
 8005430:	4770      	bx	lr
    tmpcr2 &= ~TIM_CR2_OIS6;
 8005432:	f424 2480 	bic.w	r4, r4, #262144	@ 0x40000
    tmpcr2 |= (OC_Config->OCIdleState << 10U);
 8005436:	694d      	ldr	r5, [r1, #20]
 8005438:	ea44 2485 	orr.w	r4, r4, r5, lsl #10
 800543c:	e704      	b.n	8005248 <HAL_TIM_PWM_ConfigChannel+0x88>
    tmpcr2 &= ~TIM_CR2_OIS5;
 800543e:	f424 3480 	bic.w	r4, r4, #65536	@ 0x10000
    tmpcr2 |= (OC_Config->OCIdleState << 8U);
 8005442:	694d      	ldr	r5, [r1, #20]
 8005444:	ea44 2405 	orr.w	r4, r4, r5, lsl #8
 8005448:	e7df      	b.n	800540a <HAL_TIM_PWM_ConfigChannel+0x24a>
    tmpccer |= OC_Config->OCNPolarity;
 800544a:	68cd      	ldr	r5, [r1, #12]
    tmpccer &= ~TIM_CCER_CC1NP;
 800544c:	f022 0208 	bic.w	r2, r2, #8
    tmpcr2 &= ~TIM_CR2_OIS1N;
 8005450:	f424 7440 	bic.w	r4, r4, #768	@ 0x300
    tmpccer |= OC_Config->OCNPolarity;
 8005454:	432a      	orrs	r2, r5
    tmpcr2 |= OC_Config->OCNIdleState;
 8005456:	e9d1 5605 	ldrd	r5, r6, [r1, #20]
    tmpccer &= ~TIM_CCER_CC1NE;
 800545a:	f022 0204 	bic.w	r2, r2, #4
    tmpcr2 |= OC_Config->OCNIdleState;
 800545e:	4335      	orrs	r5, r6
 8005460:	432c      	orrs	r4, r5
 8005462:	e722      	b.n	80052aa <HAL_TIM_PWM_ConfigChannel+0xea>
    tmpcr2 &= ~TIM_CR2_OIS4;
 8005464:	f424 4480 	bic.w	r4, r4, #16384	@ 0x4000
    tmpcr2 |= (OC_Config->OCIdleState << 6U);
 8005468:	694d      	ldr	r5, [r1, #20]
 800546a:	ea44 1485 	orr.w	r4, r4, r5, lsl #6
 800546e:	e777      	b.n	8005360 <HAL_TIM_PWM_ConfigChannel+0x1a0>
    tmpccer |= (OC_Config->OCNPolarity << 4U);
 8005470:	68cd      	ldr	r5, [r1, #12]
    tmpccer &= ~TIM_CCER_CC2NP;
 8005472:	f022 0280 	bic.w	r2, r2, #128	@ 0x80
    tmpcr2 &= ~TIM_CR2_OIS2N;
 8005476:	f424 6440 	bic.w	r4, r4, #3072	@ 0xc00
    tmpccer |= (OC_Config->OCNPolarity << 4U);
 800547a:	ea42 1205 	orr.w	r2, r2, r5, lsl #4
    tmpcr2 |= (OC_Config->OCNIdleState << 2U);
 800547e:	e9d1 5605 	ldrd	r5, r6, [r1, #20]
    tmpccer &= ~TIM_CCER_CC2NE;
 8005482:	f022 0240 	bic.w	r2, r2, #64	@ 0x40
    tmpcr2 |= (OC_Config->OCNIdleState << 2U);
 8005486:	4335      	orrs	r5, r6
 8005488:	ea44 0485 	orr.w	r4, r4, r5, lsl #2
 800548c:	e73a      	b.n	8005304 <HAL_TIM_PWM_ConfigChannel+0x144>
    tmpccer |= (OC_Config->OCNPolarity << 8U);
 800548e:	68cd      	ldr	r5, [r1, #12]
    tmpccer &= ~TIM_CCER_CC3NP;
 8005490:	f422 6200 	bic.w	r2, r2, #2048	@ 0x800
    tmpcr2 &= ~TIM_CR2_OIS3N;
 8005494:	f424 5440 	bic.w	r4, r4, #12288	@ 0x3000
    tmpccer |= (OC_Config->OCNPolarity << 8U);
 8005498:	ea42 2205 	orr.w	r2, r2, r5, lsl #8
    tmpcr2 |= (OC_Config->OCNIdleState << 4U);
 800549c:	e9d1 5605 	ldrd	r5, r6, [r1, #20]
    tmpccer &= ~TIM_CCER_CC3NE;
 80054a0:	f422 6280 	bic.w	r2, r2, #1024	@ 0x400
    tmpcr2 |= (OC_Config->OCNIdleState << 4U);
 80054a4:	4335      	orrs	r5, r6
 80054a6:	ea44 1405 	orr.w	r4, r4, r5, lsl #4
 80054aa:	e784      	b.n	80053b6 <HAL_TIM_PWM_ConfigChannel+0x1f6>
 80054ac:	feff8fff 	.word	0xfeff8fff
 80054b0:	40010000 	.word	0x40010000
 80054b4:	fffeff8c 	.word	0xfffeff8c
 80054b8:	feff8cff 	.word	0xfeff8cff
 80054bc:	fffeff8f 	.word	0xfffeff8f

080054c0 <HAL_TIM_ConfigClockSource>:
  __HAL_LOCK(htim);
 80054c0:	f890 303c 	ldrb.w	r3, [r0, #60]	@ 0x3c
 80054c4:	2b01      	cmp	r3, #1
 80054c6:	d06f      	beq.n	80055a8 <HAL_TIM_ConfigClockSource+0xe8>
 80054c8:	4602      	mov	r2, r0
  htim->State = HAL_TIM_STATE_BUSY;
 80054ca:	2302      	movs	r3, #2
{
 80054cc:	b430      	push	{r4, r5}
  tmpsmcr = htim->Instance->SMCR;
 80054ce:	6804      	ldr	r4, [r0, #0]
  __HAL_LOCK(htim);
 80054d0:	2001      	movs	r0, #1
  htim->State = HAL_TIM_STATE_BUSY;
 80054d2:	f882 303d 	strb.w	r3, [r2, #61]	@ 0x3d
  __HAL_LOCK(htim);
 80054d6:	f882 003c 	strb.w	r0, [r2, #60]	@ 0x3c
  tmpsmcr &= ~(TIM_SMCR_ETF | TIM_SMCR_ETPS | TIM_SMCR_ECE | TIM_SMCR_ETP);
 80054da:	4b4d      	ldr	r3, [pc, #308]	@ (8005610 <HAL_TIM_ConfigClockSource+0x150>)
  tmpsmcr = htim->Instance->SMCR;
 80054dc:	68a5      	ldr	r5, [r4, #8]
  tmpsmcr &= ~(TIM_SMCR_ETF | TIM_SMCR_ETPS | TIM_SMCR_ECE | TIM_SMCR_ETP);
 80054de:	402b      	ands	r3, r5
  htim->Instance->SMCR = tmpsmcr;
 80054e0:	60a3      	str	r3, [r4, #8]
  switch (sClockSourceConfig->ClockSource)
 80054e2:	680b      	ldr	r3, [r1, #0]
 80054e4:	2b60      	cmp	r3, #96	@ 0x60
 80054e6:	d061      	beq.n	80055ac <HAL_TIM_ConfigClockSource+0xec>
 80054e8:	d824      	bhi.n	8005534 <HAL_TIM_ConfigClockSource+0x74>
 80054ea:	2b40      	cmp	r3, #64	@ 0x40
 80054ec:	d077      	beq.n	80055de <HAL_TIM_ConfigClockSource+0x11e>
 80054ee:	d94a      	bls.n	8005586 <HAL_TIM_ConfigClockSource+0xc6>
 80054f0:	2b50      	cmp	r3, #80	@ 0x50
 80054f2:	d117      	bne.n	8005524 <HAL_TIM_ConfigClockSource+0x64>
                               sClockSourceConfig->ClockPolarity,
 80054f4:	684b      	ldr	r3, [r1, #4]
                               sClockSourceConfig->ClockFilter);
 80054f6:	68c8      	ldr	r0, [r1, #12]
  tmpccer = TIMx->CCER;
 80054f8:	6a21      	ldr	r1, [r4, #32]
  tmpccer &= ~(TIM_CCER_CC1P | TIM_CCER_CC1NP);
 80054fa:	f021 010a 	bic.w	r1, r1, #10
  tmpccer |= TIM_ICPolarity;
 80054fe:	4319      	orrs	r1, r3
  TIMx->CCER &= ~TIM_CCER_CC1E;
 8005500:	6a23      	ldr	r3, [r4, #32]
 8005502:	f023 0301 	bic.w	r3, r3, #1
 8005506:	6223      	str	r3, [r4, #32]
  tmpccmr1 = TIMx->CCMR1;
 8005508:	69a3      	ldr	r3, [r4, #24]
  tmpccmr1 &= ~TIM_CCMR1_IC1F;
 800550a:	f023 03f0 	bic.w	r3, r3, #240	@ 0xf0
  tmpccmr1 |= (TIM_ICFilter << 4U);
 800550e:	ea43 1300 	orr.w	r3, r3, r0, lsl #4
  TIMx->CCMR1 = tmpccmr1;
 8005512:	61a3      	str	r3, [r4, #24]
  TIMx->CCER = tmpccer;
 8005514:	6221      	str	r1, [r4, #32]
static void TIM_ITRx_SetConfig(TIM_TypeDef *TIMx, uint32_t InputTriggerSource)
{
  uint32_t tmpsmcr;

  /* Get the TIMx SMCR register value */
  tmpsmcr = TIMx->SMCR;
 8005516:	68a3      	ldr	r3, [r4, #8]
  /* Reset the TS Bits */
  tmpsmcr &= ~TIM_SMCR_TS;
 8005518:	f023 0370 	bic.w	r3, r3, #112	@ 0x70
  /* Set the Input Trigger source and the slave mode*/
  tmpsmcr |= (InputTriggerSource | TIM_SLAVEMODE_EXTERNAL1);
 800551c:	f043 0357 	orr.w	r3, r3, #87	@ 0x57
  /* Write to TIMx SMCR */
  TIMx->SMCR = tmpsmcr;
 8005520:	60a3      	str	r3, [r4, #8]
  HAL_StatusTypeDef status = HAL_OK;
 8005522:	2000      	movs	r0, #0
  htim->State = HAL_TIM_STATE_READY;
 8005524:	2101      	movs	r1, #1
  __HAL_UNLOCK(htim);
 8005526:	2300      	movs	r3, #0
  htim->State = HAL_TIM_STATE_READY;
 8005528:	f882 103d 	strb.w	r1, [r2, #61]	@ 0x3d
  __HAL_UNLOCK(htim);
 800552c:	f882 303c 	strb.w	r3, [r2, #60]	@ 0x3c
}
 8005530:	bc30      	pop	{r4, r5}
 8005532:	4770      	bx	lr
  switch (sClockSourceConfig->ClockSource)
 8005534:	f5b3 5f80 	cmp.w	r3, #4096	@ 0x1000
 8005538:	d0f3      	beq.n	8005522 <HAL_TIM_ConfigClockSource+0x62>
 800553a:	f5b3 5f00 	cmp.w	r3, #8192	@ 0x2000
 800553e:	d110      	bne.n	8005562 <HAL_TIM_ConfigClockSource+0xa2>
void TIM_ETR_SetConfig(TIM_TypeDef *TIMx, uint32_t TIM_ExtTRGPrescaler,
                       uint32_t TIM_ExtTRGPolarity, uint32_t ExtTRGFilter)
{
  uint32_t tmpsmcr;

  tmpsmcr = TIMx->SMCR;
 8005540:	68a0      	ldr	r0, [r4, #8]

  /* Reset the ETR Bits */
  tmpsmcr &= ~(TIM_SMCR_ETF | TIM_SMCR_ETPS | TIM_SMCR_ECE | TIM_SMCR_ETP);

  /* Set the Prescaler, the Filter value and the Polarity */
  tmpsmcr |= (uint32_t)(TIM_ExtTRGPrescaler | (TIM_ExtTRGPolarity | (ExtTRGFilter << 8U)));
 8005542:	e9d1 5301 	ldrd	r5, r3, [r1, #4]
 8005546:	432b      	orrs	r3, r5
 8005548:	68cd      	ldr	r5, [r1, #12]
  tmpsmcr &= ~(TIM_SMCR_ETF | TIM_SMCR_ETPS | TIM_SMCR_ECE | TIM_SMCR_ETP);
 800554a:	f420 417f 	bic.w	r1, r0, #65280	@ 0xff00
  HAL_StatusTypeDef status = HAL_OK;
 800554e:	2000      	movs	r0, #0
  tmpsmcr |= (uint32_t)(TIM_ExtTRGPrescaler | (TIM_ExtTRGPolarity | (ExtTRGFilter << 8U)));
 8005550:	ea43 2305 	orr.w	r3, r3, r5, lsl #8
 8005554:	430b      	orrs	r3, r1

  /* Write to TIMx SMCR */
  TIMx->SMCR = tmpsmcr;
 8005556:	60a3      	str	r3, [r4, #8]
      htim->Instance->SMCR |= TIM_SMCR_ECE;
 8005558:	68a3      	ldr	r3, [r4, #8]
 800555a:	f443 4380 	orr.w	r3, r3, #16384	@ 0x4000
 800555e:	60a3      	str	r3, [r4, #8]
      break;
 8005560:	e7e0      	b.n	8005524 <HAL_TIM_ConfigClockSource+0x64>
  switch (sClockSourceConfig->ClockSource)
 8005562:	2b70      	cmp	r3, #112	@ 0x70
 8005564:	d1de      	bne.n	8005524 <HAL_TIM_ConfigClockSource+0x64>
  tmpsmcr = TIMx->SMCR;
 8005566:	68a0      	ldr	r0, [r4, #8]
  tmpsmcr |= (uint32_t)(TIM_ExtTRGPrescaler | (TIM_ExtTRGPolarity | (ExtTRGFilter << 8U)));
 8005568:	e9d1 5301 	ldrd	r5, r3, [r1, #4]
 800556c:	432b      	orrs	r3, r5
 800556e:	68cd      	ldr	r5, [r1, #12]
  tmpsmcr &= ~(TIM_SMCR_ETF | TIM_SMCR_ETPS | TIM_SMCR_ECE | TIM_SMCR_ETP);
 8005570:	f420 417f 	bic.w	r1, r0, #65280	@ 0xff00
  tmpsmcr |= (uint32_t)(TIM_ExtTRGPrescaler | (TIM_ExtTRGPolarity | (ExtTRGFilter << 8U)));
 8005574:	ea43 2305 	orr.w	r3, r3, r5, lsl #8
 8005578:	430b      	orrs	r3, r1
  TIMx->SMCR = tmpsmcr;
 800557a:	60a3      	str	r3, [r4, #8]
      tmpsmcr = htim->Instance->SMCR;
 800557c:	68a3      	ldr	r3, [r4, #8]
      tmpsmcr |= (TIM_SLAVEMODE_EXTERNAL1 | TIM_CLOCKSOURCE_ETRMODE1);
 800557e:	f043 0377 	orr.w	r3, r3, #119	@ 0x77
      htim->Instance->SMCR = tmpsmcr;
 8005582:	60a3      	str	r3, [r4, #8]
      break;
 8005584:	e7cd      	b.n	8005522 <HAL_TIM_ConfigClockSource+0x62>
  switch (sClockSourceConfig->ClockSource)
 8005586:	2b20      	cmp	r3, #32
 8005588:	d002      	beq.n	8005590 <HAL_TIM_ConfigClockSource+0xd0>
 800558a:	d909      	bls.n	80055a0 <HAL_TIM_ConfigClockSource+0xe0>
 800558c:	2b30      	cmp	r3, #48	@ 0x30
 800558e:	d1c9      	bne.n	8005524 <HAL_TIM_ConfigClockSource+0x64>
  tmpsmcr = TIMx->SMCR;
 8005590:	68a1      	ldr	r1, [r4, #8]
  tmpsmcr &= ~TIM_SMCR_TS;
 8005592:	f021 0170 	bic.w	r1, r1, #112	@ 0x70
  tmpsmcr |= (InputTriggerSource | TIM_SLAVEMODE_EXTERNAL1);
 8005596:	430b      	orrs	r3, r1
 8005598:	f043 0307 	orr.w	r3, r3, #7
  TIMx->SMCR = tmpsmcr;
 800559c:	60a3      	str	r3, [r4, #8]
}
 800559e:	e7c0      	b.n	8005522 <HAL_TIM_ConfigClockSource+0x62>
  switch (sClockSourceConfig->ClockSource)
 80055a0:	f033 0110 	bics.w	r1, r3, #16
 80055a4:	d1be      	bne.n	8005524 <HAL_TIM_ConfigClockSource+0x64>
 80055a6:	e7f3      	b.n	8005590 <HAL_TIM_ConfigClockSource+0xd0>
  __HAL_LOCK(htim);
 80055a8:	2002      	movs	r0, #2
}
 80055aa:	4770      	bx	lr
  TIMx->CCER &= ~TIM_CCER_CC2E;
 80055ac:	6a23      	ldr	r3, [r4, #32]
                               sClockSourceConfig->ClockPolarity,
 80055ae:	6848      	ldr	r0, [r1, #4]
  TIMx->CCER &= ~TIM_CCER_CC2E;
 80055b0:	f023 0310 	bic.w	r3, r3, #16
                               sClockSourceConfig->ClockFilter);
 80055b4:	68cd      	ldr	r5, [r1, #12]
  TIMx->CCER &= ~TIM_CCER_CC2E;
 80055b6:	6223      	str	r3, [r4, #32]
  tmpccmr1 = TIMx->CCMR1;
 80055b8:	69a1      	ldr	r1, [r4, #24]
  tmpccer = TIMx->CCER;
 80055ba:	6a23      	ldr	r3, [r4, #32]
  tmpccmr1 &= ~TIM_CCMR1_IC2F;
 80055bc:	f421 4170 	bic.w	r1, r1, #61440	@ 0xf000
  tmpccer &= ~(TIM_CCER_CC2P | TIM_CCER_CC2NP);
 80055c0:	f023 03a0 	bic.w	r3, r3, #160	@ 0xa0
  tmpccmr1 |= (TIM_ICFilter << 12U);
 80055c4:	ea41 3105 	orr.w	r1, r1, r5, lsl #12
  tmpccer |= (TIM_ICPolarity << 4U);
 80055c8:	ea43 1300 	orr.w	r3, r3, r0, lsl #4
  TIMx->CCMR1 = tmpccmr1 ;
 80055cc:	61a1      	str	r1, [r4, #24]
  TIMx->CCER = tmpccer;
 80055ce:	6223      	str	r3, [r4, #32]
  tmpsmcr = TIMx->SMCR;
 80055d0:	68a3      	ldr	r3, [r4, #8]
  tmpsmcr &= ~TIM_SMCR_TS;
 80055d2:	f023 0370 	bic.w	r3, r3, #112	@ 0x70
  tmpsmcr |= (InputTriggerSource | TIM_SLAVEMODE_EXTERNAL1);
 80055d6:	f043 0367 	orr.w	r3, r3, #103	@ 0x67
  TIMx->SMCR = tmpsmcr;
 80055da:	60a3      	str	r3, [r4, #8]
}
 80055dc:	e7a1      	b.n	8005522 <HAL_TIM_ConfigClockSource+0x62>
                               sClockSourceConfig->ClockPolarity,
 80055de:	684b      	ldr	r3, [r1, #4]
                               sClockSourceConfig->ClockFilter);
 80055e0:	68c8      	ldr	r0, [r1, #12]
  tmpccer = TIMx->CCER;
 80055e2:	6a21      	ldr	r1, [r4, #32]
  tmpccer &= ~(TIM_CCER_CC1P | TIM_CCER_CC1NP);
 80055e4:	f021 010a 	bic.w	r1, r1, #10
  tmpccer |= TIM_ICPolarity;
 80055e8:	4319      	orrs	r1, r3
  TIMx->CCER &= ~TIM_CCER_CC1E;
 80055ea:	6a23      	ldr	r3, [r4, #32]
 80055ec:	f023 0301 	bic.w	r3, r3, #1
 80055f0:	6223      	str	r3, [r4, #32]
  tmpccmr1 = TIMx->CCMR1;
 80055f2:	69a3      	ldr	r3, [r4, #24]
  tmpccmr1 &= ~TIM_CCMR1_IC1F;
 80055f4:	f023 03f0 	bic.w	r3, r3, #240	@ 0xf0
  tmpccmr1 |= (TIM_ICFilter << 4U);
 80055f8:	ea43 1300 	orr.w	r3, r3, r0, lsl #4
  TIMx->CCMR1 = tmpccmr1;
 80055fc:	61a3      	str	r3, [r4, #24]
  TIMx->CCER = tmpccer;
 80055fe:	6221      	str	r1, [r4, #32]
  tmpsmcr = TIMx->SMCR;
 8005600:	68a3      	ldr	r3, [r4, #8]
  tmpsmcr &= ~TIM_SMCR_TS;
 8005602:	f023 0370 	bic.w	r3, r3, #112	@ 0x70
  tmpsmcr |= (InputTriggerSource | TIM_SLAVEMODE_EXTERNAL1);
 8005606:	f043 0347 	orr.w	r3, r3, #71	@ 0x47
  TIMx->SMCR = tmpsmcr;
 800560a:	60a3      	str	r3, [r4, #8]
}
 800560c:	e789      	b.n	8005522 <HAL_TIM_ConfigClockSource+0x62>
 800560e:	bf00      	nop
 8005610:	fffe0088 	.word	0xfffe0088

08005614 <HAL_TIM_PeriodElapsedCallback>:
__weak void HAL_TIM_PeriodElapsedCallback(TIM_HandleTypeDef *htim)
 8005614:	4770      	bx	lr
 8005616:	bf00      	nop

08005618 <HAL_TIM_OC_DelayElapsedCallback>:
__weak void HAL_TIM_OC_DelayElapsedCallback(TIM_HandleTypeDef *htim)
 8005618:	4770      	bx	lr
 800561a:	bf00      	nop

0800561c <HAL_TIM_IC_CaptureCallback>:
__weak void HAL_TIM_IC_CaptureCallback(TIM_HandleTypeDef *htim)
 800561c:	4770      	bx	lr
 800561e:	bf00      	nop

08005620 <HAL_TIM_PWM_PulseFinishedCallback>:
__weak void HAL_TIM_PWM_PulseFinishedCallback(TIM_HandleTypeDef *htim)
 8005620:	4770      	bx	lr
 8005622:	bf00      	nop

08005624 <HAL_TIM_TriggerCallback>:
__weak void HAL_TIM_TriggerCallback(TIM_HandleTypeDef *htim)
 8005624:	4770      	bx	lr
 8005626:	bf00      	nop

08005628 <HAL_TIM_IRQHandler>:
  if (__HAL_TIM_GET_FLAG(htim, TIM_FLAG_CC1) != RESET)
 8005628:	6803      	ldr	r3, [r0, #0]
 800562a:	691a      	ldr	r2, [r3, #16]
 800562c:	0791      	lsls	r1, r2, #30
{
 800562e:	b510      	push	{r4, lr}
 8005630:	4604      	mov	r4, r0
  if (__HAL_TIM_GET_FLAG(htim, TIM_FLAG_CC1) != RESET)
 8005632:	d502      	bpl.n	800563a <HAL_TIM_IRQHandler+0x12>
    if (__HAL_TIM_GET_IT_SOURCE(htim, TIM_IT_CC1) != RESET)
 8005634:	68da      	ldr	r2, [r3, #12]
 8005636:	0792      	lsls	r2, r2, #30
 8005638:	d468      	bmi.n	800570c <HAL_TIM_IRQHandler+0xe4>
  if (__HAL_TIM_GET_FLAG(htim, TIM_FLAG_CC2) != RESET)
 800563a:	691a      	ldr	r2, [r3, #16]
 800563c:	0752      	lsls	r2, r2, #29
 800563e:	d502      	bpl.n	8005646 <HAL_TIM_IRQHandler+0x1e>
    if (__HAL_TIM_GET_IT_SOURCE(htim, TIM_IT_CC2) != RESET)
 8005640:	68da      	ldr	r2, [r3, #12]
 8005642:	0750      	lsls	r0, r2, #29
 8005644:	d44f      	bmi.n	80056e6 <HAL_TIM_IRQHandler+0xbe>
  if (__HAL_TIM_GET_FLAG(htim, TIM_FLAG_CC3) != RESET)
 8005646:	691a      	ldr	r2, [r3, #16]
 8005648:	0711      	lsls	r1, r2, #28
 800564a:	d502      	bpl.n	8005652 <HAL_TIM_IRQHandler+0x2a>
    if (__HAL_TIM_GET_IT_SOURCE(htim, TIM_IT_CC3) != RESET)
 800564c:	68da      	ldr	r2, [r3, #12]
 800564e:	0712      	lsls	r2, r2, #28
 8005650:	d437      	bmi.n	80056c2 <HAL_TIM_IRQHandler+0x9a>
  if (__HAL_TIM_GET_FLAG(htim, TIM_FLAG_CC4) != RESET)
 8005652:	691a      	ldr	r2, [r3, #16]
 8005654:	06d0      	lsls	r0, r2, #27
 8005656:	d502      	bpl.n	800565e <HAL_TIM_IRQHandler+0x36>
    if (__HAL_TIM_GET_IT_SOURCE(htim, TIM_IT_CC4) != RESET)
 8005658:	68da      	ldr	r2, [r3, #12]
 800565a:	06d1      	lsls	r1, r2, #27
 800565c:	d41e      	bmi.n	800569c <HAL_TIM_IRQHandler+0x74>
  if (__HAL_TIM_GET_FLAG(htim, TIM_FLAG_UPDATE) != RESET)
 800565e:	691a      	ldr	r2, [r3, #16]
 8005660:	07d2      	lsls	r2, r2, #31
 8005662:	d502      	bpl.n	800566a <HAL_TIM_IRQHandler+0x42>
    if (__HAL_TIM_GET_IT_SOURCE(htim, TIM_IT_UPDATE) != RESET)
 8005664:	68da      	ldr	r2, [r3, #12]
 8005666:	07d0      	lsls	r0, r2, #31
 8005668:	d469      	bmi.n	800573e <HAL_TIM_IRQHandler+0x116>
  if (__HAL_TIM_GET_FLAG(htim, TIM_FLAG_BREAK) != RESET)
 800566a:	691a      	ldr	r2, [r3, #16]
 800566c:	0611      	lsls	r1, r2, #24
 800566e:	d502      	bpl.n	8005676 <HAL_TIM_IRQHandler+0x4e>
    if (__HAL_TIM_GET_IT_SOURCE(htim, TIM_IT_BREAK) != RESET)
 8005670:	68da      	ldr	r2, [r3, #12]
 8005672:	0612      	lsls	r2, r2, #24
 8005674:	d46b      	bmi.n	800574e <HAL_TIM_IRQHandler+0x126>
  if (__HAL_TIM_GET_FLAG(htim, TIM_FLAG_BREAK2) != RESET)
 8005676:	691a      	ldr	r2, [r3, #16]
 8005678:	05d0      	lsls	r0, r2, #23
 800567a:	d502      	bpl.n	8005682 <HAL_TIM_IRQHandler+0x5a>
    if (__HAL_TIM_GET_IT_SOURCE(htim, TIM_IT_BREAK) != RESET)
 800567c:	68da      	ldr	r2, [r3, #12]
 800567e:	0611      	lsls	r1, r2, #24
 8005680:	d46d      	bmi.n	800575e <HAL_TIM_IRQHandler+0x136>
  if (__HAL_TIM_GET_FLAG(htim, TIM_FLAG_TRIGGER) != RESET)
 8005682:	691a      	ldr	r2, [r3, #16]
 8005684:	0652      	lsls	r2, r2, #25
 8005686:	d502      	bpl.n	800568e <HAL_TIM_IRQHandler+0x66>
    if (__HAL_TIM_GET_IT_SOURCE(htim, TIM_IT_TRIGGER) != RESET)
 8005688:	68da      	ldr	r2, [r3, #12]
 800568a:	0650      	lsls	r0, r2, #25
 800568c:	d46f      	bmi.n	800576e <HAL_TIM_IRQHandler+0x146>
  if (__HAL_TIM_GET_FLAG(htim, TIM_FLAG_COM) != RESET)
 800568e:	691a      	ldr	r2, [r3, #16]
 8005690:	0691      	lsls	r1, r2, #26
 8005692:	d502      	bpl.n	800569a <HAL_TIM_IRQHandler+0x72>
    if (__HAL_TIM_GET_IT_SOURCE(htim, TIM_IT_COM) != RESET)
 8005694:	68da      	ldr	r2, [r3, #12]
 8005696:	0692      	lsls	r2, r2, #26
 8005698:	d449      	bmi.n	800572e <HAL_TIM_IRQHandler+0x106>
}
 800569a:	bd10      	pop	{r4, pc}
      __HAL_TIM_CLEAR_IT(htim, TIM_IT_CC4);
 800569c:	f06f 0110 	mvn.w	r1, #16
      htim->Channel = HAL_TIM_ACTIVE_CHANNEL_4;
 80056a0:	2208      	movs	r2, #8
        HAL_TIM_IC_CaptureCallback(htim);
 80056a2:	4620      	mov	r0, r4
      __HAL_TIM_CLEAR_IT(htim, TIM_IT_CC4);
 80056a4:	6119      	str	r1, [r3, #16]
      htim->Channel = HAL_TIM_ACTIVE_CHANNEL_4;
 80056a6:	7722      	strb	r2, [r4, #28]
      if ((htim->Instance->CCMR2 & TIM_CCMR2_CC4S) != 0x00U)
 80056a8:	69db      	ldr	r3, [r3, #28]
 80056aa:	f413 7f40 	tst.w	r3, #768	@ 0x300
 80056ae:	d16f      	bne.n	8005790 <HAL_TIM_IRQHandler+0x168>
        HAL_TIM_OC_DelayElapsedCallback(htim);
 80056b0:	f7ff ffb2 	bl	8005618 <HAL_TIM_OC_DelayElapsedCallback>
        HAL_TIM_PWM_PulseFinishedCallback(htim);
 80056b4:	4620      	mov	r0, r4
 80056b6:	f7ff ffb3 	bl	8005620 <HAL_TIM_PWM_PulseFinishedCallback>
      htim->Channel = HAL_TIM_ACTIVE_CHANNEL_CLEARED;
 80056ba:	2200      	movs	r2, #0
  if (__HAL_TIM_GET_FLAG(htim, TIM_FLAG_UPDATE) != RESET)
 80056bc:	6823      	ldr	r3, [r4, #0]
      htim->Channel = HAL_TIM_ACTIVE_CHANNEL_CLEARED;
 80056be:	7722      	strb	r2, [r4, #28]
 80056c0:	e7cd      	b.n	800565e <HAL_TIM_IRQHandler+0x36>
      __HAL_TIM_CLEAR_IT(htim, TIM_IT_CC3);
 80056c2:	f06f 0108 	mvn.w	r1, #8
      htim->Channel = HAL_TIM_ACTIVE_CHANNEL_3;
 80056c6:	2204      	movs	r2, #4
        HAL_TIM_IC_CaptureCallback(htim);
 80056c8:	4620      	mov	r0, r4
      __HAL_TIM_CLEAR_IT(htim, TIM_IT_CC3);
 80056ca:	6119      	str	r1, [r3, #16]
      htim->Channel = HAL_TIM_ACTIVE_CHANNEL_3;
 80056cc:	7722      	strb	r2, [r4, #28]
      if ((htim->Instance->CCMR2 & TIM_CCMR2_CC3S) != 0x00U)
 80056ce:	69db      	ldr	r3, [r3, #28]
 80056d0:	079b      	lsls	r3, r3, #30
 80056d2:	d15a      	bne.n	800578a <HAL_TIM_IRQHandler+0x162>
        HAL_TIM_OC_DelayElapsedCallback(htim);
 80056d4:	f7ff ffa0 	bl	8005618 <HAL_TIM_OC_DelayElapsedCallback>
        HAL_TIM_PWM_PulseFinishedCallback(htim);
 80056d8:	4620      	mov	r0, r4
 80056da:	f7ff ffa1 	bl	8005620 <HAL_TIM_PWM_PulseFinishedCallback>
      htim->Channel = HAL_TIM_ACTIVE_CHANNEL_CLEARED;
 80056de:	2200      	movs	r2, #0
  if (__HAL_TIM_GET_FLAG(htim, TIM_FLAG_CC4) != RESET)
 80056e0:	6823      	ldr	r3, [r4, #0]
      htim->Channel = HAL_TIM_ACTIVE_CHANNEL_CLEARED;
 80056e2:	7722      	strb	r2, [r4, #28]
 80056e4:	e7b5      	b.n	8005652 <HAL_TIM_IRQHandler+0x2a>
      __HAL_TIM_CLEAR_IT(htim, TIM_IT_CC2);
 80056e6:	f06f 0104 	mvn.w	r1, #4
      htim->Channel = HAL_TIM_ACTIVE_CHANNEL_2;
 80056ea:	2202      	movs	r2, #2
        HAL_TIM_IC_CaptureCallback(htim);
 80056ec:	4620      	mov	r0, r4
      __HAL_TIM_CLEAR_IT(htim, TIM_IT_CC2);
 80056ee:	6119      	str	r1, [r3, #16]
      htim->Channel = HAL_TIM_ACTIVE_CHANNEL_2;
 80056f0:	7722      	strb	r2, [r4, #28]
      if ((htim->Instance->CCMR1 & TIM_CCMR1_CC2S) != 0x00U)
 80056f2:	699b      	ldr	r3, [r3, #24]
 80056f4:	f413 7f40 	tst.w	r3, #768	@ 0x300
 80056f8:	d144      	bne.n	8005784 <HAL_TIM_IRQHandler+0x15c>
        HAL_TIM_OC_DelayElapsedCallback(htim);
 80056fa:	f7ff ff8d 	bl	8005618 <HAL_TIM_OC_DelayElapsedCallback>
        HAL_TIM_PWM_PulseFinishedCallback(htim);
 80056fe:	4620      	mov	r0, r4
 8005700:	f7ff ff8e 	bl	8005620 <HAL_TIM_PWM_PulseFinishedCallback>
      htim->Channel = HAL_TIM_ACTIVE_CHANNEL_CLEARED;
 8005704:	2200      	movs	r2, #0
  if (__HAL_TIM_GET_FLAG(htim, TIM_FLAG_CC3) != RESET)
 8005706:	6823      	ldr	r3, [r4, #0]
      htim->Channel = HAL_TIM_ACTIVE_CHANNEL_CLEARED;
 8005708:	7722      	strb	r2, [r4, #28]
 800570a:	e79c      	b.n	8005646 <HAL_TIM_IRQHandler+0x1e>
        __HAL_TIM_CLEAR_IT(htim, TIM_IT_CC1);
 800570c:	f06f 0102 	mvn.w	r1, #2
        htim->Channel = HAL_TIM_ACTIVE_CHANNEL_1;
 8005710:	2201      	movs	r2, #1
        __HAL_TIM_CLEAR_IT(htim, TIM_IT_CC1);
 8005712:	6119      	str	r1, [r3, #16]
        htim->Channel = HAL_TIM_ACTIVE_CHANNEL_1;
 8005714:	7702      	strb	r2, [r0, #28]
        if ((htim->Instance->CCMR1 & TIM_CCMR1_CC1S) != 0x00U)
 8005716:	699b      	ldr	r3, [r3, #24]
 8005718:	0799      	lsls	r1, r3, #30
 800571a:	d130      	bne.n	800577e <HAL_TIM_IRQHandler+0x156>
          HAL_TIM_OC_DelayElapsedCallback(htim);
 800571c:	f7ff ff7c 	bl	8005618 <HAL_TIM_OC_DelayElapsedCallback>
          HAL_TIM_PWM_PulseFinishedCallback(htim);
 8005720:	4620      	mov	r0, r4
 8005722:	f7ff ff7d 	bl	8005620 <HAL_TIM_PWM_PulseFinishedCallback>
        htim->Channel = HAL_TIM_ACTIVE_CHANNEL_CLEARED;
 8005726:	2200      	movs	r2, #0
  if (__HAL_TIM_GET_FLAG(htim, TIM_FLAG_CC2) != RESET)
 8005728:	6823      	ldr	r3, [r4, #0]
        htim->Channel = HAL_TIM_ACTIVE_CHANNEL_CLEARED;
 800572a:	7722      	strb	r2, [r4, #28]
 800572c:	e785      	b.n	800563a <HAL_TIM_IRQHandler+0x12>
      __HAL_TIM_CLEAR_IT(htim, TIM_FLAG_COM);
 800572e:	f06f 0220 	mvn.w	r2, #32
      HAL_TIMEx_CommutCallback(htim);
 8005732:	4620      	mov	r0, r4
      __HAL_TIM_CLEAR_IT(htim, TIM_FLAG_COM);
 8005734:	611a      	str	r2, [r3, #16]
}
 8005736:	e8bd 4010 	ldmia.w	sp!, {r4, lr}
      HAL_TIMEx_CommutCallback(htim);
 800573a:	f000 b8cd 	b.w	80058d8 <HAL_TIMEx_CommutCallback>
      __HAL_TIM_CLEAR_IT(htim, TIM_IT_UPDATE);
 800573e:	f06f 0201 	mvn.w	r2, #1
      HAL_TIM_PeriodElapsedCallback(htim);
 8005742:	4620      	mov	r0, r4
      __HAL_TIM_CLEAR_IT(htim, TIM_IT_UPDATE);
 8005744:	611a      	str	r2, [r3, #16]
      HAL_TIM_PeriodElapsedCallback(htim);
 8005746:	f7ff ff65 	bl	8005614 <HAL_TIM_PeriodElapsedCallback>
  if (__HAL_TIM_GET_FLAG(htim, TIM_FLAG_BREAK) != RESET)
 800574a:	6823      	ldr	r3, [r4, #0]
 800574c:	e78d      	b.n	800566a <HAL_TIM_IRQHandler+0x42>
      __HAL_TIM_CLEAR_IT(htim, TIM_IT_BREAK);
 800574e:	f06f 0280 	mvn.w	r2, #128	@ 0x80
      HAL_TIMEx_BreakCallback(htim);
 8005752:	4620      	mov	r0, r4
      __HAL_TIM_CLEAR_IT(htim, TIM_IT_BREAK);
 8005754:	611a      	str	r2, [r3, #16]
      HAL_TIMEx_BreakCallback(htim);
 8005756:	f000 f8c1 	bl	80058dc <HAL_TIMEx_BreakCallback>
  if (__HAL_TIM_GET_FLAG(htim, TIM_FLAG_BREAK2) != RESET)
 800575a:	6823      	ldr	r3, [r4, #0]
 800575c:	e78b      	b.n	8005676 <HAL_TIM_IRQHandler+0x4e>
      __HAL_TIM_CLEAR_FLAG(htim, TIM_FLAG_BREAK2);
 800575e:	f46f 7280 	mvn.w	r2, #256	@ 0x100
      HAL_TIMEx_Break2Callback(htim);
 8005762:	4620      	mov	r0, r4
      __HAL_TIM_CLEAR_FLAG(htim, TIM_FLAG_BREAK2);
 8005764:	611a      	str	r2, [r3, #16]
      HAL_TIMEx_Break2Callback(htim);
 8005766:	f000 f8bb 	bl	80058e0 <HAL_TIMEx_Break2Callback>
  if (__HAL_TIM_GET_FLAG(htim, TIM_FLAG_TRIGGER) != RESET)
 800576a:	6823      	ldr	r3, [r4, #0]
 800576c:	e789      	b.n	8005682 <HAL_TIM_IRQHandler+0x5a>
      __HAL_TIM_CLEAR_IT(htim, TIM_IT_TRIGGER);
 800576e:	f06f 0240 	mvn.w	r2, #64	@ 0x40
      HAL_TIM_TriggerCallback(htim);
 8005772:	4620      	mov	r0, r4
      __HAL_TIM_CLEAR_IT(htim, TIM_IT_TRIGGER);
 8005774:	611a      	str	r2, [r3, #16]
      HAL_TIM_TriggerCallback(htim);
 8005776:	f7ff ff55 	bl	8005624 <HAL_TIM_TriggerCallback>
  if (__HAL_TIM_GET_FLAG(htim, TIM_FLAG_COM) != RESET)
 800577a:	6823      	ldr	r3, [r4, #0]
 800577c:	e787      	b.n	800568e <HAL_TIM_IRQHandler+0x66>
          HAL_TIM_IC_CaptureCallback(htim);
 800577e:	f7ff ff4d 	bl	800561c <HAL_TIM_IC_CaptureCallback>
 8005782:	e7d0      	b.n	8005726 <HAL_TIM_IRQHandler+0xfe>
        HAL_TIM_IC_CaptureCallback(htim);
 8005784:	f7ff ff4a 	bl	800561c <HAL_TIM_IC_CaptureCallback>
 8005788:	e7bc      	b.n	8005704 <HAL_TIM_IRQHandler+0xdc>
        HAL_TIM_IC_CaptureCallback(htim);
 800578a:	f7ff ff47 	bl	800561c <HAL_TIM_IC_CaptureCallback>
 800578e:	e7a6      	b.n	80056de <HAL_TIM_IRQHandler+0xb6>
        HAL_TIM_IC_CaptureCallback(htim);
 8005790:	f7ff ff44 	bl	800561c <HAL_TIM_IC_CaptureCallback>
 8005794:	e791      	b.n	80056ba <HAL_TIM_IRQHandler+0x92>
 8005796:	bf00      	nop

08005798 <HAL_TIMEx_MasterConfigSynchronization>:
  assert_param(IS_TIM_MASTER_INSTANCE(htim->Instance));
  assert_param(IS_TIM_TRGO_SOURCE(sMasterConfig->MasterOutputTrigger));
  assert_param(IS_TIM_MSM_STATE(sMasterConfig->MasterSlaveMode));

  /* Check input state */
  __HAL_LOCK(htim);
 8005798:	f890 303c 	ldrb.w	r3, [r0, #60]	@ 0x3c
 800579c:	2b01      	cmp	r3, #1
 800579e:	d04b      	beq.n	8005838 <HAL_TIMEx_MasterConfigSynchronization+0xa0>

  /* Change the handler state */
  htim->State = HAL_TIM_STATE_BUSY;

  /* Get the TIMx CR2 register value */
  tmpcr2 = htim->Instance->CR2;
 80057a0:	6803      	ldr	r3, [r0, #0]
 80057a2:	4602      	mov	r2, r0
  htim->State = HAL_TIM_STATE_BUSY;
 80057a4:	2002      	movs	r0, #2
{
 80057a6:	b430      	push	{r4, r5}

  /* Get the TIMx SMCR register value */
  tmpsmcr = htim->Instance->SMCR;

  /* If the timer supports ADC synchronization through TRGO2, set the master mode selection 2 */
  if (IS_TIM_TRGO2_INSTANCE(htim->Instance))
 80057a8:	4d24      	ldr	r5, [pc, #144]	@ (800583c <HAL_TIMEx_MasterConfigSynchronization+0xa4>)
  htim->State = HAL_TIM_STATE_BUSY;
 80057aa:	f882 003d 	strb.w	r0, [r2, #61]	@ 0x3d
  if (IS_TIM_TRGO2_INSTANCE(htim->Instance))
 80057ae:	42ab      	cmp	r3, r5
  tmpcr2 = htim->Instance->CR2;
 80057b0:	6858      	ldr	r0, [r3, #4]
  tmpsmcr = htim->Instance->SMCR;
 80057b2:	689c      	ldr	r4, [r3, #8]
  if (IS_TIM_TRGO2_INSTANCE(htim->Instance))
 80057b4:	d029      	beq.n	800580a <HAL_TIMEx_MasterConfigSynchronization+0x72>
 80057b6:	f505 6580 	add.w	r5, r5, #1024	@ 0x400
 80057ba:	42ab      	cmp	r3, r5
 80057bc:	d025      	beq.n	800580a <HAL_TIMEx_MasterConfigSynchronization+0x72>
  tmpcr2 |=  sMasterConfig->MasterOutputTrigger;

  /* Update TIMx CR2 */
  htim->Instance->CR2 = tmpcr2;

  if (IS_TIM_SLAVE_INSTANCE(htim->Instance))
 80057be:	4d20      	ldr	r5, [pc, #128]	@ (8005840 <HAL_TIMEx_MasterConfigSynchronization+0xa8>)
  tmpcr2 &= ~TIM_CR2_MMS;
 80057c0:	f020 0070 	bic.w	r0, r0, #112	@ 0x70
  if (IS_TIM_SLAVE_INSTANCE(htim->Instance))
 80057c4:	42ab      	cmp	r3, r5
 80057c6:	bf18      	it	ne
 80057c8:	f1b3 4f80 	cmpne.w	r3, #1073741824	@ 0x40000000
 80057cc:	f505 6580 	add.w	r5, r5, #1024	@ 0x400
 80057d0:	bf0c      	ite	eq
 80057d2:	f04f 0c01 	moveq.w	ip, #1
 80057d6:	f04f 0c00 	movne.w	ip, #0
 80057da:	42ab      	cmp	r3, r5
 80057dc:	bf08      	it	eq
 80057de:	f04c 0c01 	orreq.w	ip, ip, #1
 80057e2:	f505 6580 	add.w	r5, r5, #1024	@ 0x400
 80057e6:	42ab      	cmp	r3, r5
 80057e8:	bf08      	it	eq
 80057ea:	f04c 0c01 	orreq.w	ip, ip, #1
  tmpcr2 |=  sMasterConfig->MasterOutputTrigger;
 80057ee:	680d      	ldr	r5, [r1, #0]
 80057f0:	4328      	orrs	r0, r5
  if (IS_TIM_SLAVE_INSTANCE(htim->Instance))
 80057f2:	4d14      	ldr	r5, [pc, #80]	@ (8005844 <HAL_TIMEx_MasterConfigSynchronization+0xac>)
  htim->Instance->CR2 = tmpcr2;
 80057f4:	6058      	str	r0, [r3, #4]
  if (IS_TIM_SLAVE_INSTANCE(htim->Instance))
 80057f6:	42ab      	cmp	r3, r5
 80057f8:	bf14      	ite	ne
 80057fa:	4660      	movne	r0, ip
 80057fc:	f04c 0001 	orreq.w	r0, ip, #1
 8005800:	b960      	cbnz	r0, 800581c <HAL_TIMEx_MasterConfigSynchronization+0x84>
 8005802:	4811      	ldr	r0, [pc, #68]	@ (8005848 <HAL_TIMEx_MasterConfigSynchronization+0xb0>)
 8005804:	4283      	cmp	r3, r0
 8005806:	d009      	beq.n	800581c <HAL_TIMEx_MasterConfigSynchronization+0x84>
 8005808:	e00d      	b.n	8005826 <HAL_TIMEx_MasterConfigSynchronization+0x8e>
    tmpcr2 |= sMasterConfig->MasterOutputTrigger2;
 800580a:	684d      	ldr	r5, [r1, #4]
    tmpcr2 &= ~TIM_CR2_MMS2;
 800580c:	f420 0070 	bic.w	r0, r0, #15728640	@ 0xf00000
    tmpcr2 |= sMasterConfig->MasterOutputTrigger2;
 8005810:	4328      	orrs	r0, r5
  tmpcr2 |=  sMasterConfig->MasterOutputTrigger;
 8005812:	680d      	ldr	r5, [r1, #0]
  tmpcr2 &= ~TIM_CR2_MMS;
 8005814:	f020 0070 	bic.w	r0, r0, #112	@ 0x70
  tmpcr2 |=  sMasterConfig->MasterOutputTrigger;
 8005818:	4328      	orrs	r0, r5
  htim->Instance->CR2 = tmpcr2;
 800581a:	6058      	str	r0, [r3, #4]
  {
    /* Reset the MSM Bit */
    tmpsmcr &= ~TIM_SMCR_MSM;
    /* Set master mode */
    tmpsmcr |= sMasterConfig->MasterSlaveMode;
 800581c:	6889      	ldr	r1, [r1, #8]
    tmpsmcr &= ~TIM_SMCR_MSM;
 800581e:	f024 0480 	bic.w	r4, r4, #128	@ 0x80
    tmpsmcr |= sMasterConfig->MasterSlaveMode;
 8005822:	430c      	orrs	r4, r1

    /* Update TIMx SMCR */
    htim->Instance->SMCR = tmpsmcr;
 8005824:	609c      	str	r4, [r3, #8]
  }

  /* Change the htim state */
  htim->State = HAL_TIM_STATE_READY;

  __HAL_UNLOCK(htim);
 8005826:	2300      	movs	r3, #0
  htim->State = HAL_TIM_STATE_READY;
 8005828:	2101      	movs	r1, #1

  return HAL_OK;
 800582a:	4618      	mov	r0, r3
  htim->State = HAL_TIM_STATE_READY;
 800582c:	f882 103d 	strb.w	r1, [r2, #61]	@ 0x3d
  __HAL_UNLOCK(htim);
 8005830:	f882 303c 	strb.w	r3, [r2, #60]	@ 0x3c
}
 8005834:	bc30      	pop	{r4, r5}
 8005836:	4770      	bx	lr
  __HAL_LOCK(htim);
 8005838:	2002      	movs	r0, #2
}
 800583a:	4770      	bx	lr
 800583c:	40010000 	.word	0x40010000
 8005840:	40000400 	.word	0x40000400
 8005844:	40014000 	.word	0x40014000
 8005848:	40001800 	.word	0x40001800

0800584c <HAL_TIMEx_ConfigBreakDeadTime>:
  assert_param(IS_TIM_BREAK_POLARITY(sBreakDeadTimeConfig->BreakPolarity));
  assert_param(IS_TIM_BREAK_FILTER(sBreakDeadTimeConfig->BreakFilter));
  assert_param(IS_TIM_AUTOMATIC_OUTPUT_STATE(sBreakDeadTimeConfig->AutomaticOutput));

  /* Check input state */
  __HAL_LOCK(htim);
 800584c:	f890 303c 	ldrb.w	r3, [r0, #60]	@ 0x3c
 8005850:	2b01      	cmp	r3, #1
 8005852:	d03d      	beq.n	80058d0 <HAL_TIMEx_ConfigBreakDeadTime+0x84>
     the OSSI State, the dead time value and the Automatic Output Enable Bit */

  /* Set the BDTR bits */
  MODIFY_REG(tmpbdtr, TIM_BDTR_DTG, sBreakDeadTimeConfig->DeadTime);
  MODIFY_REG(tmpbdtr, TIM_BDTR_LOCK, sBreakDeadTimeConfig->LockLevel);
  MODIFY_REG(tmpbdtr, TIM_BDTR_OSSI, sBreakDeadTimeConfig->OffStateIDLEMode);
 8005854:	4602      	mov	r2, r0
 8005856:	6848      	ldr	r0, [r1, #4]
{
 8005858:	b410      	push	{r4}
  MODIFY_REG(tmpbdtr, TIM_BDTR_LOCK, sBreakDeadTimeConfig->LockLevel);
 800585a:	e9d1 4302 	ldrd	r4, r3, [r1, #8]
 800585e:	f423 7340 	bic.w	r3, r3, #768	@ 0x300
 8005862:	4323      	orrs	r3, r4
  MODIFY_REG(tmpbdtr, TIM_BDTR_OSSR, sBreakDeadTimeConfig->OffStateRunMode);
 8005864:	680c      	ldr	r4, [r1, #0]
  MODIFY_REG(tmpbdtr, TIM_BDTR_OSSI, sBreakDeadTimeConfig->OffStateIDLEMode);
 8005866:	f423 6380 	bic.w	r3, r3, #1024	@ 0x400
 800586a:	4303      	orrs	r3, r0
  MODIFY_REG(tmpbdtr, TIM_BDTR_BKE, sBreakDeadTimeConfig->BreakState);
 800586c:	6908      	ldr	r0, [r1, #16]
  MODIFY_REG(tmpbdtr, TIM_BDTR_OSSR, sBreakDeadTimeConfig->OffStateRunMode);
 800586e:	f423 6300 	bic.w	r3, r3, #2048	@ 0x800
 8005872:	4323      	orrs	r3, r4
  MODIFY_REG(tmpbdtr, TIM_BDTR_BKP, sBreakDeadTimeConfig->BreakPolarity);
 8005874:	694c      	ldr	r4, [r1, #20]
  MODIFY_REG(tmpbdtr, TIM_BDTR_BKE, sBreakDeadTimeConfig->BreakState);
 8005876:	f423 5380 	bic.w	r3, r3, #4096	@ 0x1000
 800587a:	4303      	orrs	r3, r0
  MODIFY_REG(tmpbdtr, TIM_BDTR_AOE, sBreakDeadTimeConfig->AutomaticOutput);
 800587c:	6a88      	ldr	r0, [r1, #40]	@ 0x28
  MODIFY_REG(tmpbdtr, TIM_BDTR_BKP, sBreakDeadTimeConfig->BreakPolarity);
 800587e:	f423 5300 	bic.w	r3, r3, #8192	@ 0x2000
 8005882:	4323      	orrs	r3, r4
  MODIFY_REG(tmpbdtr, TIM_BDTR_BKF, (sBreakDeadTimeConfig->BreakFilter << TIM_BDTR_BKF_Pos));
 8005884:	698c      	ldr	r4, [r1, #24]
  MODIFY_REG(tmpbdtr, TIM_BDTR_AOE, sBreakDeadTimeConfig->AutomaticOutput);
 8005886:	f423 4380 	bic.w	r3, r3, #16384	@ 0x4000
 800588a:	4303      	orrs	r3, r0

  if (IS_TIM_BKIN2_INSTANCE(htim->Instance))
 800588c:	6810      	ldr	r0, [r2, #0]
  MODIFY_REG(tmpbdtr, TIM_BDTR_BKF, (sBreakDeadTimeConfig->BreakFilter << TIM_BDTR_BKF_Pos));
 800588e:	f423 2370 	bic.w	r3, r3, #983040	@ 0xf0000
 8005892:	ea43 4304 	orr.w	r3, r3, r4, lsl #16
  if (IS_TIM_BKIN2_INSTANCE(htim->Instance))
 8005896:	4c0f      	ldr	r4, [pc, #60]	@ (80058d4 <HAL_TIMEx_ConfigBreakDeadTime+0x88>)
 8005898:	42a0      	cmp	r0, r4
 800589a:	d00b      	beq.n	80058b4 <HAL_TIMEx_ConfigBreakDeadTime+0x68>
 800589c:	f504 6480 	add.w	r4, r4, #1024	@ 0x400
 80058a0:	42a0      	cmp	r0, r4
 80058a2:	d007      	beq.n	80058b4 <HAL_TIMEx_ConfigBreakDeadTime+0x68>
  }

  /* Set TIMx_BDTR */
  htim->Instance->BDTR = tmpbdtr;

  __HAL_UNLOCK(htim);
 80058a4:	2100      	movs	r1, #0
  htim->Instance->BDTR = tmpbdtr;
 80058a6:	6443      	str	r3, [r0, #68]	@ 0x44
  __HAL_UNLOCK(htim);
 80058a8:	f882 103c 	strb.w	r1, [r2, #60]	@ 0x3c

  return HAL_OK;
 80058ac:	4608      	mov	r0, r1
}
 80058ae:	f85d 4b04 	ldr.w	r4, [sp], #4
 80058b2:	4770      	bx	lr
    MODIFY_REG(tmpbdtr, TIM_BDTR_BK2F, (sBreakDeadTimeConfig->Break2Filter << TIM_BDTR_BK2F_Pos));
 80058b4:	6a4c      	ldr	r4, [r1, #36]	@ 0x24
 80058b6:	f423 0370 	bic.w	r3, r3, #15728640	@ 0xf00000
 80058ba:	ea43 5304 	orr.w	r3, r3, r4, lsl #20
    MODIFY_REG(tmpbdtr, TIM_BDTR_BK2P, sBreakDeadTimeConfig->Break2Polarity);
 80058be:	e9d1 4107 	ldrd	r4, r1, [r1, #28]
    MODIFY_REG(tmpbdtr, TIM_BDTR_BK2E, sBreakDeadTimeConfig->Break2State);
 80058c2:	f023 7380 	bic.w	r3, r3, #16777216	@ 0x1000000
 80058c6:	4323      	orrs	r3, r4
    MODIFY_REG(tmpbdtr, TIM_BDTR_BK2P, sBreakDeadTimeConfig->Break2Polarity);
 80058c8:	f023 7300 	bic.w	r3, r3, #33554432	@ 0x2000000
 80058cc:	430b      	orrs	r3, r1
 80058ce:	e7e9      	b.n	80058a4 <HAL_TIMEx_ConfigBreakDeadTime+0x58>
  __HAL_LOCK(htim);
 80058d0:	2002      	movs	r0, #2
}
 80058d2:	4770      	bx	lr
 80058d4:	40010000 	.word	0x40010000

080058d8 <HAL_TIMEx_CommutCallback>:
/**
  * @brief  Hall commutation changed callback in non-blocking mode
  * @param  htim TIM handle
  * @retval None
  */
__weak void HAL_TIMEx_CommutCallback(TIM_HandleTypeDef *htim)
 80058d8:	4770      	bx	lr
 80058da:	bf00      	nop

080058dc <HAL_TIMEx_BreakCallback>:
/**
  * @brief  Hall Break detection callback in non-blocking mode
  * @param  htim TIM handle
  * @retval None
  */
__weak void HAL_TIMEx_BreakCallback(TIM_HandleTypeDef *htim)
 80058dc:	4770      	bx	lr
 80058de:	bf00      	nop

080058e0 <HAL_TIMEx_Break2Callback>:
/**
  * @brief  Hall Break2 detection callback in non blocking mode
  * @param  htim: TIM handle
  * @retval None
  */
__weak void HAL_TIMEx_Break2Callback(TIM_HandleTypeDef *htim)
 80058e0:	4770      	bx	lr
 80058e2:	bf00      	nop

080058e4 <memset>:
 80058e4:	4402      	add	r2, r0
 80058e6:	4603      	mov	r3, r0
 80058e8:	4293      	cmp	r3, r2
 80058ea:	d100      	bne.n	80058ee <memset+0xa>
 80058ec:	4770      	bx	lr
 80058ee:	f803 1b01 	strb.w	r1, [r3], #1
 80058f2:	e7f9      	b.n	80058e8 <memset+0x4>

080058f4 <__errno>:
 80058f4:	4b01      	ldr	r3, [pc, #4]	@ (80058fc <__errno+0x8>)
 80058f6:	6818      	ldr	r0, [r3, #0]
 80058f8:	4770      	bx	lr
 80058fa:	bf00      	nop
 80058fc:	20000174 	.word	0x20000174

08005900 <__libc_init_array>:
 8005900:	b570      	push	{r4, r5, r6, lr}
 8005902:	4d0d      	ldr	r5, [pc, #52]	@ (8005938 <__libc_init_array+0x38>)
 8005904:	4c0d      	ldr	r4, [pc, #52]	@ (800593c <__libc_init_array+0x3c>)
 8005906:	1b64      	subs	r4, r4, r5
 8005908:	10a4      	asrs	r4, r4, #2
 800590a:	2600      	movs	r6, #0
 800590c:	42a6      	cmp	r6, r4
 800590e:	d109      	bne.n	8005924 <__libc_init_array+0x24>
 8005910:	4d0b      	ldr	r5, [pc, #44]	@ (8005940 <__libc_init_array+0x40>)
 8005912:	4c0c      	ldr	r4, [pc, #48]	@ (8005944 <__libc_init_array+0x44>)
 8005914:	f000 fae8 	bl	8005ee8 <_init>
 8005918:	1b64      	subs	r4, r4, r5
 800591a:	10a4      	asrs	r4, r4, #2
 800591c:	2600      	movs	r6, #0
 800591e:	42a6      	cmp	r6, r4
 8005920:	d105      	bne.n	800592e <__libc_init_array+0x2e>
 8005922:	bd70      	pop	{r4, r5, r6, pc}
 8005924:	f855 3b04 	ldr.w	r3, [r5], #4
 8005928:	4798      	blx	r3
 800592a:	3601      	adds	r6, #1
 800592c:	e7ee      	b.n	800590c <__libc_init_array+0xc>
 800592e:	f855 3b04 	ldr.w	r3, [r5], #4
 8005932:	4798      	blx	r3
 8005934:	3601      	adds	r6, #1
 8005936:	e7f2      	b.n	800591e <__libc_init_array+0x1e>
 8005938:	0800e5e0 	.word	0x0800e5e0
 800593c:	0800e5e0 	.word	0x0800e5e0
 8005940:	0800e5e0 	.word	0x0800e5e0
 8005944:	0800e5e4 	.word	0x0800e5e4

08005948 <asinf>:
 8005948:	b508      	push	{r3, lr}
 800594a:	ed2d 8b02 	vpush	{d8}
 800594e:	eeb0 8a40 	vmov.f32	s16, s0
 8005952:	f000 f9df 	bl	8005d14 <__ieee754_asinf>
 8005956:	eeb4 8a48 	vcmp.f32	s16, s16
 800595a:	eef1 fa10 	vmrs	APSR_nzcv, fpscr
 800595e:	eef0 8a40 	vmov.f32	s17, s0
 8005962:	d615      	bvs.n	8005990 <asinf+0x48>
 8005964:	eeb0 0a48 	vmov.f32	s0, s16
 8005968:	f000 f81a 	bl	80059a0 <fabsf>
 800596c:	eef7 7a00 	vmov.f32	s15, #112	@ 0x3f800000  1.0
 8005970:	eeb4 0ae7 	vcmpe.f32	s0, s15
 8005974:	eef1 fa10 	vmrs	APSR_nzcv, fpscr
 8005978:	dd0a      	ble.n	8005990 <asinf+0x48>
 800597a:	f7ff ffbb 	bl	80058f4 <__errno>
 800597e:	ecbd 8b02 	vpop	{d8}
 8005982:	2321      	movs	r3, #33	@ 0x21
 8005984:	6003      	str	r3, [r0, #0]
 8005986:	e8bd 4008 	ldmia.w	sp!, {r3, lr}
 800598a:	4804      	ldr	r0, [pc, #16]	@ (800599c <asinf+0x54>)
 800598c:	f000 b810 	b.w	80059b0 <nanf>
 8005990:	eeb0 0a68 	vmov.f32	s0, s17
 8005994:	ecbd 8b02 	vpop	{d8}
 8005998:	bd08      	pop	{r3, pc}
 800599a:	bf00      	nop
 800599c:	0800e494 	.word	0x0800e494

080059a0 <fabsf>:
 80059a0:	ee10 3a10 	vmov	r3, s0
 80059a4:	f023 4300 	bic.w	r3, r3, #2147483648	@ 0x80000000
 80059a8:	ee00 3a10 	vmov	s0, r3
 80059ac:	4770      	bx	lr
	...

080059b0 <nanf>:
 80059b0:	ed9f 0a01 	vldr	s0, [pc, #4]	@ 80059b8 <nanf+0x8>
 80059b4:	4770      	bx	lr
 80059b6:	bf00      	nop
 80059b8:	7fc00000 	.word	0x7fc00000

080059bc <sinf_poly>:
 80059bc:	07cb      	lsls	r3, r1, #31
 80059be:	d412      	bmi.n	80059e6 <sinf_poly+0x2a>
 80059c0:	ee21 5b00 	vmul.f64	d5, d1, d0
 80059c4:	ed90 6b1a 	vldr	d6, [r0, #104]	@ 0x68
 80059c8:	ed90 7b18 	vldr	d7, [r0, #96]	@ 0x60
 80059cc:	eea6 7b01 	vfma.f64	d7, d6, d1
 80059d0:	ed90 6b16 	vldr	d6, [r0, #88]	@ 0x58
 80059d4:	ee21 1b05 	vmul.f64	d1, d1, d5
 80059d8:	eea6 0b05 	vfma.f64	d0, d6, d5
 80059dc:	eea7 0b01 	vfma.f64	d0, d7, d1
 80059e0:	eeb7 0bc0 	vcvt.f32.f64	s0, d0
 80059e4:	4770      	bx	lr
 80059e6:	ed90 6b14 	vldr	d6, [r0, #80]	@ 0x50
 80059ea:	ee21 5b01 	vmul.f64	d5, d1, d1
 80059ee:	ed90 7b12 	vldr	d7, [r0, #72]	@ 0x48
 80059f2:	ed90 0b0c 	vldr	d0, [r0, #48]	@ 0x30
 80059f6:	eea1 7b06 	vfma.f64	d7, d1, d6
 80059fa:	ed90 6b0e 	vldr	d6, [r0, #56]	@ 0x38
 80059fe:	eea1 0b06 	vfma.f64	d0, d1, d6
 8005a02:	ed90 6b10 	vldr	d6, [r0, #64]	@ 0x40
 8005a06:	ee21 1b05 	vmul.f64	d1, d1, d5
 8005a0a:	eea5 0b06 	vfma.f64	d0, d5, d6
 8005a0e:	e7e5      	b.n	80059dc <sinf_poly+0x20>

08005a10 <sinf>:
 8005a10:	b537      	push	{r0, r1, r2, r4, r5, lr}
 8005a12:	ee10 4a10 	vmov	r4, s0
 8005a16:	f3c4 530a 	ubfx	r3, r4, #20, #11
 8005a1a:	f5b3 7f7d 	cmp.w	r3, #1012	@ 0x3f4
 8005a1e:	eeb7 6ac0 	vcvt.f64.f32	d6, s0
 8005a22:	eef0 7a40 	vmov.f32	s15, s0
 8005a26:	ea4f 5214 	mov.w	r2, r4, lsr #20
 8005a2a:	d218      	bcs.n	8005a5e <sinf+0x4e>
 8005a2c:	ee26 1b06 	vmul.f64	d1, d6, d6
 8005a30:	f5b3 7f66 	cmp.w	r3, #920	@ 0x398
 8005a34:	d20a      	bcs.n	8005a4c <sinf+0x3c>
 8005a36:	f412 6fff 	tst.w	r2, #2040	@ 0x7f8
 8005a3a:	d103      	bne.n	8005a44 <sinf+0x34>
 8005a3c:	eeb7 1bc1 	vcvt.f32.f64	s2, d1
 8005a40:	ed8d 1a01 	vstr	s2, [sp, #4]
 8005a44:	eeb0 0a67 	vmov.f32	s0, s15
 8005a48:	b003      	add	sp, #12
 8005a4a:	bd30      	pop	{r4, r5, pc}
 8005a4c:	483a      	ldr	r0, [pc, #232]	@ (8005b38 <sinf+0x128>)
 8005a4e:	eeb0 0b46 	vmov.f64	d0, d6
 8005a52:	2100      	movs	r1, #0
 8005a54:	b003      	add	sp, #12
 8005a56:	e8bd 4030 	ldmia.w	sp!, {r4, r5, lr}
 8005a5a:	f7ff bfaf 	b.w	80059bc <sinf_poly>
 8005a5e:	f240 422e 	movw	r2, #1070	@ 0x42e
 8005a62:	4293      	cmp	r3, r2
 8005a64:	d824      	bhi.n	8005ab0 <sinf+0xa0>
 8005a66:	4b34      	ldr	r3, [pc, #208]	@ (8005b38 <sinf+0x128>)
 8005a68:	ed93 7b08 	vldr	d7, [r3, #32]
 8005a6c:	ee26 7b07 	vmul.f64	d7, d6, d7
 8005a70:	eefd 7bc7 	vcvt.s32.f64	s15, d7
 8005a74:	f103 0070 	add.w	r0, r3, #112	@ 0x70
 8005a78:	ee17 1a90 	vmov	r1, s15
 8005a7c:	f501 0100 	add.w	r1, r1, #8388608	@ 0x800000
 8005a80:	1609      	asrs	r1, r1, #24
 8005a82:	ee07 1a90 	vmov	s15, r1
 8005a86:	f001 0203 	and.w	r2, r1, #3
 8005a8a:	eb03 02c2 	add.w	r2, r3, r2, lsl #3
 8005a8e:	eeb8 5be7 	vcvt.f64.s32	d5, s15
 8005a92:	ed92 0b00 	vldr	d0, [r2]
 8005a96:	ed93 7b0a 	vldr	d7, [r3, #40]	@ 0x28
 8005a9a:	f011 0f02 	tst.w	r1, #2
 8005a9e:	eea5 6b47 	vfms.f64	d6, d5, d7
 8005aa2:	bf08      	it	eq
 8005aa4:	4618      	moveq	r0, r3
 8005aa6:	ee26 1b06 	vmul.f64	d1, d6, d6
 8005aaa:	ee20 0b06 	vmul.f64	d0, d0, d6
 8005aae:	e7d1      	b.n	8005a54 <sinf+0x44>
 8005ab0:	f5b3 6fff 	cmp.w	r3, #2040	@ 0x7f8
 8005ab4:	d237      	bcs.n	8005b26 <sinf+0x116>
 8005ab6:	4921      	ldr	r1, [pc, #132]	@ (8005b3c <sinf+0x12c>)
 8005ab8:	f3c4 6083 	ubfx	r0, r4, #26, #4
 8005abc:	eb01 0280 	add.w	r2, r1, r0, lsl #2
 8005ac0:	f3c4 0316 	ubfx	r3, r4, #0, #23
 8005ac4:	f3c4 55c2 	ubfx	r5, r4, #23, #3
 8005ac8:	f851 1020 	ldr.w	r1, [r1, r0, lsl #2]
 8005acc:	6a10      	ldr	r0, [r2, #32]
 8005ace:	6912      	ldr	r2, [r2, #16]
 8005ad0:	f443 0300 	orr.w	r3, r3, #8388608	@ 0x800000
 8005ad4:	40ab      	lsls	r3, r5
 8005ad6:	fba0 5003 	umull	r5, r0, r0, r3
 8005ada:	4359      	muls	r1, r3
 8005adc:	fbe3 0102 	umlal	r0, r1, r3, r2
 8005ae0:	f101 5300 	add.w	r3, r1, #536870912	@ 0x20000000
 8005ae4:	0f9d      	lsrs	r5, r3, #30
 8005ae6:	f003 4340 	and.w	r3, r3, #3221225472	@ 0xc0000000
 8005aea:	1ac9      	subs	r1, r1, r3
 8005aec:	f7fa fd32 	bl	8000554 <__aeabi_l2d>
 8005af0:	eb05 74d4 	add.w	r4, r5, r4, lsr #31
 8005af4:	4b10      	ldr	r3, [pc, #64]	@ (8005b38 <sinf+0x128>)
 8005af6:	f004 0203 	and.w	r2, r4, #3
 8005afa:	eb03 02c2 	add.w	r2, r3, r2, lsl #3
 8005afe:	ed9f 6b0c 	vldr	d6, [pc, #48]	@ 8005b30 <sinf+0x120>
 8005b02:	ed92 0b00 	vldr	d0, [r2]
 8005b06:	ec41 0b17 	vmov	d7, r0, r1
 8005b0a:	f014 0f02 	tst.w	r4, #2
 8005b0e:	ee27 7b06 	vmul.f64	d7, d7, d6
 8005b12:	f103 0070 	add.w	r0, r3, #112	@ 0x70
 8005b16:	4629      	mov	r1, r5
 8005b18:	bf08      	it	eq
 8005b1a:	4618      	moveq	r0, r3
 8005b1c:	ee27 1b07 	vmul.f64	d1, d7, d7
 8005b20:	ee20 0b07 	vmul.f64	d0, d0, d7
 8005b24:	e796      	b.n	8005a54 <sinf+0x44>
 8005b26:	b003      	add	sp, #12
 8005b28:	e8bd 4030 	ldmia.w	sp!, {r4, r5, lr}
 8005b2c:	f000 b8e2 	b.w	8005cf4 <__math_invalidf>
 8005b30:	54442d18 	.word	0x54442d18
 8005b34:	3c1921fb 	.word	0x3c1921fb
 8005b38:	0800e4f8 	.word	0x0800e4f8
 8005b3c:	0800e498 	.word	0x0800e498

08005b40 <sinf_poly>:
 8005b40:	07cb      	lsls	r3, r1, #31
 8005b42:	d412      	bmi.n	8005b6a <sinf_poly+0x2a>
 8005b44:	ee21 5b00 	vmul.f64	d5, d1, d0
 8005b48:	ed90 6b1a 	vldr	d6, [r0, #104]	@ 0x68
 8005b4c:	ed90 7b18 	vldr	d7, [r0, #96]	@ 0x60
 8005b50:	eea6 7b01 	vfma.f64	d7, d6, d1
 8005b54:	ed90 6b16 	vldr	d6, [r0, #88]	@ 0x58
 8005b58:	ee21 1b05 	vmul.f64	d1, d1, d5
 8005b5c:	eea6 0b05 	vfma.f64	d0, d6, d5
 8005b60:	eea7 0b01 	vfma.f64	d0, d7, d1
 8005b64:	eeb7 0bc0 	vcvt.f32.f64	s0, d0
 8005b68:	4770      	bx	lr
 8005b6a:	ed90 6b14 	vldr	d6, [r0, #80]	@ 0x50
 8005b6e:	ee21 5b01 	vmul.f64	d5, d1, d1
 8005b72:	ed90 7b12 	vldr	d7, [r0, #72]	@ 0x48
 8005b76:	ed90 0b0c 	vldr	d0, [r0, #48]	@ 0x30
 8005b7a:	eea1 7b06 	vfma.f64	d7, d1, d6
 8005b7e:	ed90 6b0e 	vldr	d6, [r0, #56]	@ 0x38
 8005b82:	eea1 0b06 	vfma.f64	d0, d1, d6
 8005b86:	ed90 6b10 	vldr	d6, [r0, #64]	@ 0x40
 8005b8a:	ee21 1b05 	vmul.f64	d1, d1, d5
 8005b8e:	eea5 0b06 	vfma.f64	d0, d5, d6
 8005b92:	e7e5      	b.n	8005b60 <sinf_poly+0x20>
 8005b94:	0000      	movs	r0, r0
	...

08005b98 <cosf>:
 8005b98:	b538      	push	{r3, r4, r5, lr}
 8005b9a:	ee10 4a10 	vmov	r4, s0
 8005b9e:	f3c4 530a 	ubfx	r3, r4, #20, #11
 8005ba2:	f5b3 7f7d 	cmp.w	r3, #1012	@ 0x3f4
 8005ba6:	eeb7 7ac0 	vcvt.f64.f32	d7, s0
 8005baa:	d21f      	bcs.n	8005bec <cosf+0x54>
 8005bac:	ee27 7b07 	vmul.f64	d7, d7, d7
 8005bb0:	f5b3 7f66 	cmp.w	r3, #920	@ 0x398
 8005bb4:	f0c0 8082 	bcc.w	8005cbc <cosf+0x124>
 8005bb8:	ee27 4b07 	vmul.f64	d4, d7, d7
 8005bbc:	4b44      	ldr	r3, [pc, #272]	@ (8005cd0 <cosf+0x138>)
 8005bbe:	ed93 5b14 	vldr	d5, [r3, #80]	@ 0x50
 8005bc2:	ed93 6b12 	vldr	d6, [r3, #72]	@ 0x48
 8005bc6:	ed93 0b0c 	vldr	d0, [r3, #48]	@ 0x30
 8005bca:	eea7 6b05 	vfma.f64	d6, d7, d5
 8005bce:	ed93 5b0e 	vldr	d5, [r3, #56]	@ 0x38
 8005bd2:	eea7 0b05 	vfma.f64	d0, d7, d5
 8005bd6:	ed93 5b10 	vldr	d5, [r3, #64]	@ 0x40
 8005bda:	ee27 7b04 	vmul.f64	d7, d7, d4
 8005bde:	eea4 0b05 	vfma.f64	d0, d4, d5
 8005be2:	eea6 0b07 	vfma.f64	d0, d6, d7
 8005be6:	eeb7 0bc0 	vcvt.f32.f64	s0, d0
 8005bea:	bd38      	pop	{r3, r4, r5, pc}
 8005bec:	f240 422e 	movw	r2, #1070	@ 0x42e
 8005bf0:	4293      	cmp	r3, r2
 8005bf2:	d829      	bhi.n	8005c48 <cosf+0xb0>
 8005bf4:	4b36      	ldr	r3, [pc, #216]	@ (8005cd0 <cosf+0x138>)
 8005bf6:	ed93 6b08 	vldr	d6, [r3, #32]
 8005bfa:	ee27 6b06 	vmul.f64	d6, d7, d6
 8005bfe:	eefd 6bc6 	vcvt.s32.f64	s13, d6
 8005c02:	f103 0070 	add.w	r0, r3, #112	@ 0x70
 8005c06:	ee16 1a90 	vmov	r1, s13
 8005c0a:	f501 0100 	add.w	r1, r1, #8388608	@ 0x800000
 8005c0e:	1609      	asrs	r1, r1, #24
 8005c10:	ee06 1a90 	vmov	s13, r1
 8005c14:	f001 0203 	and.w	r2, r1, #3
 8005c18:	eb03 02c2 	add.w	r2, r3, r2, lsl #3
 8005c1c:	eeb8 5be6 	vcvt.f64.s32	d5, s13
 8005c20:	ed92 0b00 	vldr	d0, [r2]
 8005c24:	ed93 6b0a 	vldr	d6, [r3, #40]	@ 0x28
 8005c28:	f011 0f02 	tst.w	r1, #2
 8005c2c:	f081 0101 	eor.w	r1, r1, #1
 8005c30:	eea5 7b46 	vfms.f64	d7, d5, d6
 8005c34:	bf08      	it	eq
 8005c36:	4618      	moveq	r0, r3
 8005c38:	ee27 1b07 	vmul.f64	d1, d7, d7
 8005c3c:	e8bd 4038 	ldmia.w	sp!, {r3, r4, r5, lr}
 8005c40:	ee20 0b07 	vmul.f64	d0, d0, d7
 8005c44:	f7ff bf7c 	b.w	8005b40 <sinf_poly>
 8005c48:	f5b3 6fff 	cmp.w	r3, #2040	@ 0x7f8
 8005c4c:	d232      	bcs.n	8005cb4 <cosf+0x11c>
 8005c4e:	4921      	ldr	r1, [pc, #132]	@ (8005cd4 <cosf+0x13c>)
 8005c50:	f3c4 6083 	ubfx	r0, r4, #26, #4
 8005c54:	eb01 0280 	add.w	r2, r1, r0, lsl #2
 8005c58:	f3c4 0316 	ubfx	r3, r4, #0, #23
 8005c5c:	f3c4 55c2 	ubfx	r5, r4, #23, #3
 8005c60:	f851 1020 	ldr.w	r1, [r1, r0, lsl #2]
 8005c64:	6a10      	ldr	r0, [r2, #32]
 8005c66:	6912      	ldr	r2, [r2, #16]
 8005c68:	f443 0300 	orr.w	r3, r3, #8388608	@ 0x800000
 8005c6c:	40ab      	lsls	r3, r5
 8005c6e:	fba0 5003 	umull	r5, r0, r0, r3
 8005c72:	4359      	muls	r1, r3
 8005c74:	fbe3 0102 	umlal	r0, r1, r3, r2
 8005c78:	f101 5300 	add.w	r3, r1, #536870912	@ 0x20000000
 8005c7c:	0f9d      	lsrs	r5, r3, #30
 8005c7e:	f003 4340 	and.w	r3, r3, #3221225472	@ 0xc0000000
 8005c82:	1ac9      	subs	r1, r1, r3
 8005c84:	f7fa fc66 	bl	8000554 <__aeabi_l2d>
 8005c88:	eb05 74d4 	add.w	r4, r5, r4, lsr #31
 8005c8c:	4b10      	ldr	r3, [pc, #64]	@ (8005cd0 <cosf+0x138>)
 8005c8e:	ed9f 6b0e 	vldr	d6, [pc, #56]	@ 8005cc8 <cosf+0x130>
 8005c92:	ec41 0b17 	vmov	d7, r0, r1
 8005c96:	f004 0203 	and.w	r2, r4, #3
 8005c9a:	eb03 02c2 	add.w	r2, r3, r2, lsl #3
 8005c9e:	ed92 0b00 	vldr	d0, [r2]
 8005ca2:	ee27 7b06 	vmul.f64	d7, d7, d6
 8005ca6:	f103 0070 	add.w	r0, r3, #112	@ 0x70
 8005caa:	f014 0f02 	tst.w	r4, #2
 8005cae:	f085 0101 	eor.w	r1, r5, #1
 8005cb2:	e7bf      	b.n	8005c34 <cosf+0x9c>
 8005cb4:	e8bd 4038 	ldmia.w	sp!, {r3, r4, r5, lr}
 8005cb8:	f000 b81c 	b.w	8005cf4 <__math_invalidf>
 8005cbc:	eeb7 0a00 	vmov.f32	s0, #112	@ 0x3f800000  1.0
 8005cc0:	e793      	b.n	8005bea <cosf+0x52>
 8005cc2:	bf00      	nop
 8005cc4:	f3af 8000 	nop.w
 8005cc8:	54442d18 	.word	0x54442d18
 8005ccc:	3c1921fb 	.word	0x3c1921fb
 8005cd0:	0800e4f8 	.word	0x0800e4f8
 8005cd4:	0800e498 	.word	0x0800e498

08005cd8 <with_errnof>:
 8005cd8:	b510      	push	{r4, lr}
 8005cda:	ed2d 8b02 	vpush	{d8}
 8005cde:	eeb0 8a40 	vmov.f32	s16, s0
 8005ce2:	4604      	mov	r4, r0
 8005ce4:	f7ff fe06 	bl	80058f4 <__errno>
 8005ce8:	eeb0 0a48 	vmov.f32	s0, s16
 8005cec:	ecbd 8b02 	vpop	{d8}
 8005cf0:	6004      	str	r4, [r0, #0]
 8005cf2:	bd10      	pop	{r4, pc}

08005cf4 <__math_invalidf>:
 8005cf4:	eef0 7a40 	vmov.f32	s15, s0
 8005cf8:	ee30 7a40 	vsub.f32	s14, s0, s0
 8005cfc:	eef4 7a67 	vcmp.f32	s15, s15
 8005d00:	eef1 fa10 	vmrs	APSR_nzcv, fpscr
 8005d04:	ee87 0a07 	vdiv.f32	s0, s14, s14
 8005d08:	d602      	bvs.n	8005d10 <__math_invalidf+0x1c>
 8005d0a:	2021      	movs	r0, #33	@ 0x21
 8005d0c:	f7ff bfe4 	b.w	8005cd8 <with_errnof>
 8005d10:	4770      	bx	lr
	...

08005d14 <__ieee754_asinf>:
 8005d14:	b538      	push	{r3, r4, r5, lr}
 8005d16:	ee10 5a10 	vmov	r5, s0
 8005d1a:	f025 4400 	bic.w	r4, r5, #2147483648	@ 0x80000000
 8005d1e:	f1b4 5f7e 	cmp.w	r4, #1065353216	@ 0x3f800000
 8005d22:	ed2d 8b04 	vpush	{d8-d9}
 8005d26:	d10c      	bne.n	8005d42 <__ieee754_asinf+0x2e>
 8005d28:	eddf 7a5d 	vldr	s15, [pc, #372]	@ 8005ea0 <__ieee754_asinf+0x18c>
 8005d2c:	ed9f 7a5d 	vldr	s14, [pc, #372]	@ 8005ea4 <__ieee754_asinf+0x190>
 8005d30:	ee60 7a27 	vmul.f32	s15, s0, s15
 8005d34:	eee0 7a07 	vfma.f32	s15, s0, s14
 8005d38:	eeb0 0a67 	vmov.f32	s0, s15
 8005d3c:	ecbd 8b04 	vpop	{d8-d9}
 8005d40:	bd38      	pop	{r3, r4, r5, pc}
 8005d42:	d904      	bls.n	8005d4e <__ieee754_asinf+0x3a>
 8005d44:	ee70 7a40 	vsub.f32	s15, s0, s0
 8005d48:	ee87 0aa7 	vdiv.f32	s0, s15, s15
 8005d4c:	e7f6      	b.n	8005d3c <__ieee754_asinf+0x28>
 8005d4e:	f1b4 5f7c 	cmp.w	r4, #1056964608	@ 0x3f000000
 8005d52:	eef7 8a00 	vmov.f32	s17, #112	@ 0x3f800000  1.0
 8005d56:	d20b      	bcs.n	8005d70 <__ieee754_asinf+0x5c>
 8005d58:	f1b4 5f48 	cmp.w	r4, #838860800	@ 0x32000000
 8005d5c:	d252      	bcs.n	8005e04 <__ieee754_asinf+0xf0>
 8005d5e:	eddf 7a52 	vldr	s15, [pc, #328]	@ 8005ea8 <__ieee754_asinf+0x194>
 8005d62:	ee70 7a27 	vadd.f32	s15, s0, s15
 8005d66:	eef4 7ae8 	vcmpe.f32	s15, s17
 8005d6a:	eef1 fa10 	vmrs	APSR_nzcv, fpscr
 8005d6e:	dce5      	bgt.n	8005d3c <__ieee754_asinf+0x28>
 8005d70:	f7ff fe16 	bl	80059a0 <fabsf>
 8005d74:	ee38 8ac0 	vsub.f32	s16, s17, s0
 8005d78:	eef6 7a00 	vmov.f32	s15, #96	@ 0x3f000000  0.5
 8005d7c:	ee28 8a27 	vmul.f32	s16, s16, s15
 8005d80:	ed9f 7a4a 	vldr	s14, [pc, #296]	@ 8005eac <__ieee754_asinf+0x198>
 8005d84:	eddf 7a4a 	vldr	s15, [pc, #296]	@ 8005eb0 <__ieee754_asinf+0x19c>
 8005d88:	ed9f 9a4a 	vldr	s18, [pc, #296]	@ 8005eb4 <__ieee754_asinf+0x1a0>
 8005d8c:	eea8 7a27 	vfma.f32	s14, s16, s15
 8005d90:	eddf 7a49 	vldr	s15, [pc, #292]	@ 8005eb8 <__ieee754_asinf+0x1a4>
 8005d94:	eee7 7a08 	vfma.f32	s15, s14, s16
 8005d98:	ed9f 7a48 	vldr	s14, [pc, #288]	@ 8005ebc <__ieee754_asinf+0x1a8>
 8005d9c:	eea7 7a88 	vfma.f32	s14, s15, s16
 8005da0:	eddf 7a47 	vldr	s15, [pc, #284]	@ 8005ec0 <__ieee754_asinf+0x1ac>
 8005da4:	eee7 7a08 	vfma.f32	s15, s14, s16
 8005da8:	ed9f 7a46 	vldr	s14, [pc, #280]	@ 8005ec4 <__ieee754_asinf+0x1b0>
 8005dac:	eea7 9a88 	vfma.f32	s18, s15, s16
 8005db0:	eddf 7a45 	vldr	s15, [pc, #276]	@ 8005ec8 <__ieee754_asinf+0x1b4>
 8005db4:	eee8 7a07 	vfma.f32	s15, s16, s14
 8005db8:	ed9f 7a44 	vldr	s14, [pc, #272]	@ 8005ecc <__ieee754_asinf+0x1b8>
 8005dbc:	eea7 7a88 	vfma.f32	s14, s15, s16
 8005dc0:	eddf 7a43 	vldr	s15, [pc, #268]	@ 8005ed0 <__ieee754_asinf+0x1bc>
 8005dc4:	eee7 7a08 	vfma.f32	s15, s14, s16
 8005dc8:	eeb0 0a48 	vmov.f32	s0, s16
 8005dcc:	eee7 8a88 	vfma.f32	s17, s15, s16
 8005dd0:	f000 f886 	bl	8005ee0 <__ieee754_sqrtf>
 8005dd4:	4b3f      	ldr	r3, [pc, #252]	@ (8005ed4 <__ieee754_asinf+0x1c0>)
 8005dd6:	ee29 9a08 	vmul.f32	s18, s18, s16
 8005dda:	429c      	cmp	r4, r3
 8005ddc:	ee89 6a28 	vdiv.f32	s12, s18, s17
 8005de0:	eef0 6a00 	vmov.f32	s13, #0	@ 0x40000000  2.0
 8005de4:	d93d      	bls.n	8005e62 <__ieee754_asinf+0x14e>
 8005de6:	eea0 0a06 	vfma.f32	s0, s0, s12
 8005dea:	eddf 7a3b 	vldr	s15, [pc, #236]	@ 8005ed8 <__ieee754_asinf+0x1c4>
 8005dee:	eee0 7a26 	vfma.f32	s15, s0, s13
 8005df2:	ed9f 0a2c 	vldr	s0, [pc, #176]	@ 8005ea4 <__ieee754_asinf+0x190>
 8005df6:	ee30 0a67 	vsub.f32	s0, s0, s15
 8005dfa:	2d00      	cmp	r5, #0
 8005dfc:	bfd8      	it	le
 8005dfe:	eeb1 0a40 	vnegle.f32	s0, s0
 8005e02:	e79b      	b.n	8005d3c <__ieee754_asinf+0x28>
 8005e04:	ee60 7a00 	vmul.f32	s15, s0, s0
 8005e08:	eddf 6a29 	vldr	s13, [pc, #164]	@ 8005eb0 <__ieee754_asinf+0x19c>
 8005e0c:	ed9f 7a27 	vldr	s14, [pc, #156]	@ 8005eac <__ieee754_asinf+0x198>
 8005e10:	ed9f 6a2c 	vldr	s12, [pc, #176]	@ 8005ec4 <__ieee754_asinf+0x1b0>
 8005e14:	eea7 7aa6 	vfma.f32	s14, s15, s13
 8005e18:	eddf 6a27 	vldr	s13, [pc, #156]	@ 8005eb8 <__ieee754_asinf+0x1a4>
 8005e1c:	eee7 6a27 	vfma.f32	s13, s14, s15
 8005e20:	ed9f 7a26 	vldr	s14, [pc, #152]	@ 8005ebc <__ieee754_asinf+0x1a8>
 8005e24:	eea6 7aa7 	vfma.f32	s14, s13, s15
 8005e28:	eddf 6a25 	vldr	s13, [pc, #148]	@ 8005ec0 <__ieee754_asinf+0x1ac>
 8005e2c:	eee7 6a27 	vfma.f32	s13, s14, s15
 8005e30:	ed9f 7a20 	vldr	s14, [pc, #128]	@ 8005eb4 <__ieee754_asinf+0x1a0>
 8005e34:	eea6 7aa7 	vfma.f32	s14, s13, s15
 8005e38:	eddf 6a23 	vldr	s13, [pc, #140]	@ 8005ec8 <__ieee754_asinf+0x1b4>
 8005e3c:	eee7 6a86 	vfma.f32	s13, s15, s12
 8005e40:	ed9f 6a22 	vldr	s12, [pc, #136]	@ 8005ecc <__ieee754_asinf+0x1b8>
 8005e44:	eea6 6aa7 	vfma.f32	s12, s13, s15
 8005e48:	eddf 6a21 	vldr	s13, [pc, #132]	@ 8005ed0 <__ieee754_asinf+0x1bc>
 8005e4c:	eee6 6a27 	vfma.f32	s13, s12, s15
 8005e50:	ee27 7a27 	vmul.f32	s14, s14, s15
 8005e54:	eee6 8aa7 	vfma.f32	s17, s13, s15
 8005e58:	eec7 7a28 	vdiv.f32	s15, s14, s17
 8005e5c:	eea0 0a27 	vfma.f32	s0, s0, s15
 8005e60:	e76c      	b.n	8005d3c <__ieee754_asinf+0x28>
 8005e62:	ee10 3a10 	vmov	r3, s0
 8005e66:	f423 637f 	bic.w	r3, r3, #4080	@ 0xff0
 8005e6a:	f023 030f 	bic.w	r3, r3, #15
 8005e6e:	ee07 3a10 	vmov	s14, r3
 8005e72:	eea7 8a47 	vfms.f32	s16, s14, s14
 8005e76:	ee70 5a00 	vadd.f32	s11, s0, s0
 8005e7a:	ee30 0a07 	vadd.f32	s0, s0, s14
 8005e7e:	eddf 7a08 	vldr	s15, [pc, #32]	@ 8005ea0 <__ieee754_asinf+0x18c>
 8005e82:	ee88 5a00 	vdiv.f32	s10, s16, s0
 8005e86:	ed9f 0a15 	vldr	s0, [pc, #84]	@ 8005edc <__ieee754_asinf+0x1c8>
 8005e8a:	eee5 7a66 	vfms.f32	s15, s10, s13
 8005e8e:	eed5 7a86 	vfnms.f32	s15, s11, s12
 8005e92:	eeb0 6a40 	vmov.f32	s12, s0
 8005e96:	eea7 6a66 	vfms.f32	s12, s14, s13
 8005e9a:	ee77 7ac6 	vsub.f32	s15, s15, s12
 8005e9e:	e7aa      	b.n	8005df6 <__ieee754_asinf+0xe2>
 8005ea0:	b33bbd2e 	.word	0xb33bbd2e
 8005ea4:	3fc90fdb 	.word	0x3fc90fdb
 8005ea8:	7149f2ca 	.word	0x7149f2ca
 8005eac:	3a4f7f04 	.word	0x3a4f7f04
 8005eb0:	3811ef08 	.word	0x3811ef08
 8005eb4:	3e2aaaab 	.word	0x3e2aaaab
 8005eb8:	bd241146 	.word	0xbd241146
 8005ebc:	3e4e0aa8 	.word	0x3e4e0aa8
 8005ec0:	bea6b090 	.word	0xbea6b090
 8005ec4:	3d9dc62e 	.word	0x3d9dc62e
 8005ec8:	bf303361 	.word	0xbf303361
 8005ecc:	4001572d 	.word	0x4001572d
 8005ed0:	c019d139 	.word	0xc019d139
 8005ed4:	3f799999 	.word	0x3f799999
 8005ed8:	333bbd2e 	.word	0x333bbd2e
 8005edc:	3f490fdb 	.word	0x3f490fdb

08005ee0 <__ieee754_sqrtf>:
 8005ee0:	eeb1 0ac0 	vsqrt.f32	s0, s0
 8005ee4:	4770      	bx	lr
	...

08005ee8 <_init>:
 8005ee8:	b5f8      	push	{r3, r4, r5, r6, r7, lr}
 8005eea:	bf00      	nop
 8005eec:	bcf8      	pop	{r3, r4, r5, r6, r7}
 8005eee:	bc08      	pop	{r3}
 8005ef0:	469e      	mov	lr, r3
 8005ef2:	4770      	bx	lr

08005ef4 <_fini>:
 8005ef4:	b5f8      	push	{r3, r4, r5, r6, r7, lr}
 8005ef6:	bf00      	nop
 8005ef8:	bcf8      	pop	{r3, r4, r5, r6, r7}
 8005efa:	bc08      	pop	{r3}
 8005efc:	469e      	mov	lr, r3
 8005efe:	4770      	bx	lr

Disassembly of section .ccmram:

08005f00 <pi_aw_calc>:
 *
 * @note This function computes the PI control action with anti-windup.
 */
void pi_aw_calc(volatile pi_aw_struct *v)
{
    if(v->enable)
 8005f00:	8803      	ldrh	r3, [r0, #0]
 8005f02:	b29b      	uxth	r3, r3
 8005f04:	2b00      	cmp	r3, #0
 8005f06:	d037      	beq.n	8005f78 <pi_aw_calc+0x78>
    {
        v->e[0] = v->pi_consig - v->pi_fdb; // Calculate error
 8005f08:	edd0 7a07 	vldr	s15, [r0, #28]
 8005f0c:	ed90 7a08 	vldr	s14, [r0, #32]
 8005f10:	ee77 7ac7 	vsub.f32	s15, s15, s14
 8005f14:	edc0 7a05 	vstr	s15, [r0, #20]

        // PI trapezoidal with feedforward
        v->pi_int[0] =  v->Ki * v->e[0] * v->Ts + v->pi_int[1] + (v->pi_out_postsat - v->pi_out_presat) * v->Kaw * v->Ts;
 8005f18:	ed90 6a03 	vldr	s12, [r0, #12]
 8005f1c:	ed90 7a05 	vldr	s14, [r0, #20]
 8005f20:	ed90 5a01 	vldr	s10, [r0, #4]
 8005f24:	ee26 6a07 	vmul.f32	s12, s12, s14
 8005f28:	edd0 7a0f 	vldr	s15, [r0, #60]	@ 0x3c
 8005f2c:	edd0 6a0c 	vldr	s13, [r0, #48]	@ 0x30
 8005f30:	edd0 4a0b 	vldr	s9, [r0, #44]	@ 0x2c
 8005f34:	eee6 7a05 	vfma.f32	s15, s12, s10
 8005f38:	ed90 7a04 	vldr	s14, [r0, #16]
 8005f3c:	edd0 5a01 	vldr	s11, [r0, #4]
 8005f40:	ee76 6ae4 	vsub.f32	s13, s13, s9
 8005f44:	ee27 7a25 	vmul.f32	s14, s14, s11
 8005f48:	eee6 7a87 	vfma.f32	s15, s13, s14
 8005f4c:	edc0 7a0e 	vstr	s15, [r0, #56]	@ 0x38

        v->pi_out_presat = v->pi_out;
 8005f50:	6b43      	ldr	r3, [r0, #52]	@ 0x34
 8005f52:	62c3      	str	r3, [r0, #44]	@ 0x2c

        // Output voltage saturation
        if (v->pi_out > v->pi_out_max)
 8005f54:	ed90 7a0d 	vldr	s14, [r0, #52]	@ 0x34
 8005f58:	edd0 7a09 	vldr	s15, [r0, #36]	@ 0x24
 8005f5c:	eeb4 7ae7 	vcmpe.f32	s14, s15
 8005f60:	eef1 fa10 	vmrs	APSR_nzcv, fpscr
 8005f64:	dd0e      	ble.n	8005f84 <pi_aw_calc+0x84>
            v->pi_out = v->pi_out_max;
 8005f66:	6a43      	ldr	r3, [r0, #36]	@ 0x24
 8005f68:	6343      	str	r3, [r0, #52]	@ 0x34
        else if (v->pi_out < v->pi_out_min)
            v->pi_out = v->pi_out_min;
        else;

        // Copy previous values
        v->e[1] = v->e[0];                      // Copy previous error
 8005f6a:	6943      	ldr	r3, [r0, #20]
 8005f6c:	6183      	str	r3, [r0, #24]
        v->pi_ffw[1] = v->pi_ffw[0];            // Copy previous feedforward
 8005f6e:	6c03      	ldr	r3, [r0, #64]	@ 0x40
 8005f70:	6443      	str	r3, [r0, #68]	@ 0x44
        v->pi_int[1] = v->pi_int[0];			// Copy previous integrator
 8005f72:	6b83      	ldr	r3, [r0, #56]	@ 0x38
 8005f74:	63c3      	str	r3, [r0, #60]	@ 0x3c
 8005f76:	4770      	bx	lr
    }
    else
    {
        // Reset previous control variables
        v->e[1] = 0.0F;
 8005f78:	2300      	movs	r3, #0
 8005f7a:	6183      	str	r3, [r0, #24]
        v->pi_ffw[1] = 0.0F;
 8005f7c:	6443      	str	r3, [r0, #68]	@ 0x44
        v->pi_int[1] = 0.0F;
 8005f7e:	63c3      	str	r3, [r0, #60]	@ 0x3c
        v->pi_out = 0.0F;
 8005f80:	6343      	str	r3, [r0, #52]	@ 0x34
    }
}
 8005f82:	4770      	bx	lr
        else if (v->pi_out < v->pi_out_min)
 8005f84:	ed90 7a0d 	vldr	s14, [r0, #52]	@ 0x34
 8005f88:	edd0 7a0a 	vldr	s15, [r0, #40]	@ 0x28
 8005f8c:	eeb4 7ae7 	vcmpe.f32	s14, s15
 8005f90:	eef1 fa10 	vmrs	APSR_nzcv, fpscr
 8005f94:	d5e9      	bpl.n	8005f6a <pi_aw_calc+0x6a>
            v->pi_out = v->pi_out_min;
 8005f96:	6a83      	ldr	r3, [r0, #40]	@ 0x28
 8005f98:	6343      	str	r3, [r0, #52]	@ 0x34
 8005f9a:	e7e6      	b.n	8005f6a <pi_aw_calc+0x6a>

08005f9c <pi_init>:
 * @param v Pointer to the PI structure.
 *
 * @note This function initializes the constants used in the PI controller.
 */
void pi_init(volatile pi_struct *v){
    v->K0 = v->Kp + v->Ki * v->Ts * 0.5F;   // K0 = Kp + Ki*Ts/2
 8005f9c:	edd0 7a02 	vldr	s15, [r0, #8]
 8005fa0:	eef6 6a00 	vmov.f32	s13, #96	@ 0x3f000000  0.5
 8005fa4:	ed90 7a03 	vldr	s14, [r0, #12]
 8005fa8:	ed90 6a01 	vldr	s12, [r0, #4]
 8005fac:	ee27 7a06 	vmul.f32	s14, s14, s12
 8005fb0:	eee7 7a26 	vfma.f32	s15, s14, s13
 8005fb4:	edc0 7a04 	vstr	s15, [r0, #16]
    v->K1 = -v->Kp + v->Ki * v->Ts * 0.5F;  // K1 = -Kp + Ki*Ts/2
 8005fb8:	ed90 7a03 	vldr	s14, [r0, #12]
 8005fbc:	ed90 6a01 	vldr	s12, [r0, #4]
 8005fc0:	edd0 7a02 	vldr	s15, [r0, #8]
 8005fc4:	ee27 7a06 	vmul.f32	s14, s14, s12
 8005fc8:	eed7 7a26 	vfnms.f32	s15, s14, s13
 8005fcc:	edc0 7a05 	vstr	s15, [r0, #20]
}
 8005fd0:	4770      	bx	lr
 8005fd2:	bf00      	nop

08005fd4 <pi_calc>:
 *
 * @note This function computes the PI control action with feedforward and saturation.
 */
void pi_calc(volatile pi_struct *v)
{
    if(v->enable)
 8005fd4:	8803      	ldrh	r3, [r0, #0]
 8005fd6:	b29b      	uxth	r3, r3
 8005fd8:	b37b      	cbz	r3, 800603a <pi_calc+0x66>
    {
        v->e[0] = v->pi_consig - v->pi_fdb; // Calculate error
 8005fda:	edd0 7a08 	vldr	s15, [r0, #32]
 8005fde:	ed90 7a09 	vldr	s14, [r0, #36]	@ 0x24
 8005fe2:	ee77 7ac7 	vsub.f32	s15, s15, s14
 8005fe6:	edc0 7a06 	vstr	s15, [r0, #24]
        v->pi_out += v->K0 * v->e[0] + v->K1 * v->e[1] + v->pi_ffw[0] - v->pi_ffw[1];   // PI trapezoidal with feedforward
 8005fea:	ed90 5a04 	vldr	s10, [r0, #16]
 8005fee:	edd0 5a06 	vldr	s11, [r0, #24]
 8005ff2:	ed90 6a05 	vldr	s12, [r0, #20]
 8005ff6:	edd0 6a07 	vldr	s13, [r0, #28]
 8005ffa:	edd0 7a0d 	vldr	s15, [r0, #52]	@ 0x34
 8005ffe:	ed90 7a0e 	vldr	s14, [r0, #56]	@ 0x38
 8006002:	edd0 4a0c 	vldr	s9, [r0, #48]	@ 0x30
 8006006:	ee77 7aa4 	vadd.f32	s15, s15, s9
 800600a:	eee5 7a25 	vfma.f32	s15, s10, s11
 800600e:	eee6 7a26 	vfma.f32	s15, s12, s13
 8006012:	ee77 7ac7 	vsub.f32	s15, s15, s14
 8006016:	edc0 7a0c 	vstr	s15, [r0, #48]	@ 0x30
        // Output voltage saturation
        if (v->pi_out > v->pi_out_max)
 800601a:	ed90 7a0c 	vldr	s14, [r0, #48]	@ 0x30
 800601e:	edd0 7a0a 	vldr	s15, [r0, #40]	@ 0x28
 8006022:	eeb4 7ae7 	vcmpe.f32	s14, s15
 8006026:	eef1 fa10 	vmrs	APSR_nzcv, fpscr
 800602a:	dd0b      	ble.n	8006044 <pi_calc+0x70>
            v->pi_out = v->pi_out_max;
 800602c:	6a83      	ldr	r3, [r0, #40]	@ 0x28
 800602e:	6303      	str	r3, [r0, #48]	@ 0x30
        else if (v->pi_out < v->pi_out_min)
            v->pi_out = v->pi_out_min;
        else;
        // Copy previous values
        v->e[1] = v->e[0];                      // Copy previous error
 8006030:	6983      	ldr	r3, [r0, #24]
 8006032:	61c3      	str	r3, [r0, #28]
        v->pi_ffw[1] = v->pi_ffw[0];            // Copy previous feedforward
 8006034:	6b43      	ldr	r3, [r0, #52]	@ 0x34
 8006036:	6383      	str	r3, [r0, #56]	@ 0x38
 8006038:	4770      	bx	lr
    }
    else
    {
        // Reset previous control variables
        v->e[1] = 0.0F;
 800603a:	2300      	movs	r3, #0
 800603c:	61c3      	str	r3, [r0, #28]
        v->pi_ffw[1] = 0.0F;
 800603e:	6383      	str	r3, [r0, #56]	@ 0x38
        v->pi_out = 0.0F;
 8006040:	6303      	str	r3, [r0, #48]	@ 0x30
    }
}
 8006042:	4770      	bx	lr
        else if (v->pi_out < v->pi_out_min)
 8006044:	ed90 7a0c 	vldr	s14, [r0, #48]	@ 0x30
 8006048:	edd0 7a0b 	vldr	s15, [r0, #44]	@ 0x2c
 800604c:	eeb4 7ae7 	vcmpe.f32	s14, s15
 8006050:	eef1 fa10 	vmrs	APSR_nzcv, fpscr
 8006054:	d5ec      	bpl.n	8006030 <pi_calc+0x5c>
            v->pi_out = v->pi_out_min;
 8006056:	6ac3      	ldr	r3, [r0, #44]	@ 0x2c
 8006058:	6303      	str	r3, [r0, #48]	@ 0x30
 800605a:	e7e9      	b.n	8006030 <pi_calc+0x5c>

0800605c <clarke3F_calc>:
 *
 * @note This function computes the Clarke transformation for three-phase signals.
 */
void clarke3F_calc(volatile clarke3F_struct *v)
{
    v->D = v->a;                                       // Alfa = A
 800605c:	6803      	ldr	r3, [r0, #0]
    v->Q = ISQ3*( v->a + 2.0F * v->b );              // Beta = 1/sqrt(3)*(A + 2*B) = 1/sqrt(3)*(B - C)
 800605e:	eef0 6a00 	vmov.f32	s13, #0	@ 0x40000000  2.0
 8006062:	ed9f 7a07 	vldr	s14, [pc, #28]	@ 8006080 <clarke3F_calc+0x24>
    v->D = v->a;                                       // Alfa = A
 8006066:	6083      	str	r3, [r0, #8]
    v->Q = ISQ3*( v->a + 2.0F * v->b );              // Beta = 1/sqrt(3)*(A + 2*B) = 1/sqrt(3)*(B - C)
 8006068:	edd0 7a00 	vldr	s15, [r0]
 800606c:	ed90 6a01 	vldr	s12, [r0, #4]
 8006070:	eee6 7a26 	vfma.f32	s15, s12, s13
 8006074:	ee67 7a87 	vmul.f32	s15, s15, s14
 8006078:	edc0 7a03 	vstr	s15, [r0, #12]
}
 800607c:	4770      	bx	lr
 800607e:	bf00      	nop
 8006080:	3f13cd3a 	.word	0x3f13cd3a

08006084 <rot_calc>:
 *
 * @note This function computes the rotation transformation (clockwise).
 */
void rot_calc(volatile rot_struct *v)
{
    v->d = v->D*v->cosFi + v->Q*v->sinFi;              // d = Alfa(D)*cos(Fi) + Beta(Q)*sin(Fi)
 8006084:	edd0 6a00 	vldr	s13, [r0]
 8006088:	ed90 7a03 	vldr	s14, [r0, #12]
 800608c:	edd0 7a01 	vldr	s15, [r0, #4]
 8006090:	ed90 6a02 	vldr	s12, [r0, #8]
 8006094:	ee67 7a86 	vmul.f32	s15, s15, s12
 8006098:	eee6 7a87 	vfma.f32	s15, s13, s14
 800609c:	edc0 7a04 	vstr	s15, [r0, #16]
    v->q = v->Q*v->cosFi - v->D*v->sinFi ;             // q = -Alfa(D)*sin(Fi) + Beta(Q)*cos(Fi)
 80060a0:	edd0 6a01 	vldr	s13, [r0, #4]
 80060a4:	ed90 7a03 	vldr	s14, [r0, #12]
 80060a8:	ed90 6a00 	vldr	s12, [r0]
 80060ac:	edd0 7a02 	vldr	s15, [r0, #8]
 80060b0:	ee67 7ac6 	vnmul.f32	s15, s15, s12
 80060b4:	eee6 7a87 	vfma.f32	s15, s13, s14
 80060b8:	edc0 7a05 	vstr	s15, [r0, #20]
}
 80060bc:	4770      	bx	lr
 80060be:	bf00      	nop

080060c0 <irot_calc>:
 *
 * @note This function computes the inverse rotation transformation (counterclockwise).
 */
void irot_calc(volatile irot_struct *v)
{
    v->alpha = v->d*v->cosFi - v->q*v->sinFi;              // Alfa(D) = d*cos(Fi) - q*sin(Fi)
 80060c0:	edd0 6a00 	vldr	s13, [r0]
 80060c4:	ed90 7a03 	vldr	s14, [r0, #12]
 80060c8:	ed90 6a01 	vldr	s12, [r0, #4]
 80060cc:	edd0 7a02 	vldr	s15, [r0, #8]
 80060d0:	ee67 7ac6 	vnmul.f32	s15, s15, s12
 80060d4:	eee6 7a87 	vfma.f32	s15, s13, s14
 80060d8:	edc0 7a04 	vstr	s15, [r0, #16]
    v->beta = v->d*v->sinFi + v->q*v->cosFi;              // Beta(Q) = d*sin(Fi) + q*cos(Fi)
 80060dc:	edd0 6a00 	vldr	s13, [r0]
 80060e0:	ed90 7a02 	vldr	s14, [r0, #8]
 80060e4:	edd0 7a01 	vldr	s15, [r0, #4]
 80060e8:	ed90 6a03 	vldr	s12, [r0, #12]
 80060ec:	ee67 7a86 	vmul.f32	s15, s15, s12
 80060f0:	eee6 7a87 	vfma.f32	s15, s13, s14
 80060f4:	edc0 7a05 	vstr	s15, [r0, #20]
}
 80060f8:	4770      	bx	lr
 80060fa:	bf00      	nop

080060fc <angle_calc>:
 * @note This function generates the angle.
 */
void angle_calc(volatile angle_struct *v)
{
    // Integrator
    v->angle += v->freq*v->Ts*2;
 80060fc:	ed90 7a00 	vldr	s14, [r0]
 8006100:	eef0 6a00 	vmov.f32	s13, #0	@ 0x40000000  2.0
 8006104:	edd0 5a01 	vldr	s11, [r0, #4]
    v->angle = (v->angle > 1) ? (v->angle - 2) : v->angle;
 8006108:	eeb7 6a00 	vmov.f32	s12, #112	@ 0x3f800000  1.0
    v->angle += v->freq*v->Ts*2;
 800610c:	edd0 7a02 	vldr	s15, [r0, #8]
 8006110:	ee27 7a25 	vmul.f32	s14, s14, s11
 8006114:	eee7 7a26 	vfma.f32	s15, s14, s13
 8006118:	edc0 7a02 	vstr	s15, [r0, #8]
    v->angle = (v->angle > 1) ? (v->angle - 2) : v->angle;
 800611c:	edd0 7a02 	vldr	s15, [r0, #8]
 8006120:	eef4 7ac6 	vcmpe.f32	s15, s12
 8006124:	edd0 7a02 	vldr	s15, [r0, #8]
 8006128:	eef1 fa10 	vmrs	APSR_nzcv, fpscr
 800612c:	bfc8      	it	gt
 800612e:	ee77 7ae6 	vsubgt.f32	s15, s15, s13
 8006132:	edc0 7a02 	vstr	s15, [r0, #8]
}
 8006136:	4770      	bx	lr

08006138 <svpwm_calc>:

    // Auxiliary variables for SVPWM
    float Va, Vb, Vc, max, min, h;

    // Calculate Va, Vb, and Vc for three-phase system without neutral
    Va = v->alpha;                                      // A = Alfa
 8006138:	edd0 5a00 	vldr	s11, [r0]
    //Vb = (- v->valfa + SQ3*v->vbeta)*0.5;              // B = -1/2*Alfa + sqrt(3)/2*Beta
    Vb = (- v->alpha + SQ3*v->beta)*DIV2;              // B = -1/2*Alfa + sqrt(3)/2*Beta
 800613c:	eeb6 7a00 	vmov.f32	s14, #96	@ 0x3f000000  0.5
 8006140:	ed90 6a01 	vldr	s12, [r0, #4]
 8006144:	eddf 6a16 	vldr	s13, [pc, #88]	@ 80061a0 <svpwm_calc+0x68>
 8006148:	edd0 7a00 	vldr	s15, [r0]
    // Calculate homopolar component
    h = (max + min)*DIV2;

    // Generate duty cycles (range from 0 to 1)
    // Convert sinusoids ranging up to 0.5 to sinusoids ranging from 0 to 1
    v->Da = (Va - h + 0.5F);
 800614c:	ee35 4a87 	vadd.f32	s8, s11, s14
    Vb = (- v->alpha + SQ3*v->beta)*DIV2;              // B = -1/2*Alfa + sqrt(3)/2*Beta
 8006150:	eed6 7a26 	vfnms.f32	s15, s12, s13
 8006154:	ee67 7a87 	vmul.f32	s15, s15, s14
    Vc = - Va - Vb;                                     // C = - A - B
 8006158:	ee35 6aa7 	vadd.f32	s12, s11, s15
    max = (Vb >= max) ? Vb : max;
 800615c:	fec5 6aa7 	vmaxnm.f32	s13, s11, s15
    v->Db = (Vb - h + 0.5F);
 8006160:	ee77 4a87 	vadd.f32	s9, s15, s14
    min = (Vb <= min) ? Vb : min;
 8006164:	fec5 5ae7 	vminnm.f32	s11, s11, s15
    Vc = - Va - Vb;                                     // C = - A - B
 8006168:	eeb1 5a46 	vneg.f32	s10, s12
    v->Dc = (Vc - h + 0.5F);
 800616c:	ee37 6a46 	vsub.f32	s12, s14, s12
    max = (Vc >= max) ? Vc : max;
 8006170:	fec5 7a26 	vmaxnm.f32	s15, s10, s13
    min = (Vc <= min) ? Vc : min;
 8006174:	fe85 5a65 	vminnm.f32	s10, s10, s11
    v->Db = (Vb - h + 0.5F);
 8006178:	eef0 6a64 	vmov.f32	s13, s9
    h = (max + min)*DIV2;
 800617c:	ee77 7a85 	vadd.f32	s15, s15, s10
    v->Da = (Va - h + 0.5F);
 8006180:	eef0 5a44 	vmov.f32	s11, s8
    v->Db = (Vb - h + 0.5F);
 8006184:	eee7 6ac7 	vfms.f32	s13, s15, s14
    v->Da = (Va - h + 0.5F);
 8006188:	eee7 5ac7 	vfms.f32	s11, s15, s14
    v->Dc = (Vc - h + 0.5F);
 800618c:	eea7 6ac7 	vfms.f32	s12, s15, s14
    v->Da = (Va - h + 0.5F);
 8006190:	edc0 5a02 	vstr	s11, [r0, #8]
    v->Db = (Vb - h + 0.5F);
 8006194:	edc0 6a03 	vstr	s13, [r0, #12]
    v->Dc = (Vc - h + 0.5F);
 8006198:	ed80 6a04 	vstr	s12, [r0, #16]
}
 800619c:	4770      	bx	lr
 800619e:	bf00      	nop
 80061a0:	3fddb3d7 	.word	0x3fddb3d7

080061a4 <rampa_calc>:
 *
 * @note This function calculates the ramp.
 */
void rampa_calc(volatile rampa_struct *v)
{
    if (v->enable)
 80061a4:	7b03      	ldrb	r3, [r0, #12]
 80061a6:	b1e3      	cbz	r3, 80061e2 <rampa_calc+0x3e>
    {
        if(v->out < v->in)
 80061a8:	ed90 7a01 	vldr	s14, [r0, #4]
 80061ac:	edd0 7a00 	vldr	s15, [r0]
 80061b0:	eeb4 7ae7 	vcmpe.f32	s14, s15
 80061b4:	eef1 fa10 	vmrs	APSR_nzcv, fpscr
 80061b8:	d516      	bpl.n	80061e8 <rampa_calc+0x44>
        {
            v->out += v->Incr;
 80061ba:	ed90 7a02 	vldr	s14, [r0, #8]
 80061be:	edd0 7a01 	vldr	s15, [r0, #4]
 80061c2:	ee77 7a87 	vadd.f32	s15, s15, s14
 80061c6:	edc0 7a01 	vstr	s15, [r0, #4]
            if(v->out > v->in)
 80061ca:	ed90 7a01 	vldr	s14, [r0, #4]
 80061ce:	edd0 7a00 	vldr	s15, [r0]
 80061d2:	eeb4 7ae7 	vcmpe.f32	s14, s15
 80061d6:	eef1 fa10 	vmrs	APSR_nzcv, fpscr
 80061da:	dd04      	ble.n	80061e6 <rampa_calc+0x42>
        }
        else if(v->out > v->in)
        {
            v->out -= v->Incr;
            if(v->out < v->in)
                v->out = v->in;
 80061dc:	6803      	ldr	r3, [r0, #0]
 80061de:	6043      	str	r3, [r0, #4]
 80061e0:	4770      	bx	lr
        }
        else;
    }
    else
    {
        v->out = 0.0F;
 80061e2:	2300      	movs	r3, #0
 80061e4:	6043      	str	r3, [r0, #4]
    }
}
 80061e6:	4770      	bx	lr
        else if(v->out > v->in)
 80061e8:	ed90 7a01 	vldr	s14, [r0, #4]
 80061ec:	edd0 7a00 	vldr	s15, [r0]
 80061f0:	eeb4 7ae7 	vcmpe.f32	s14, s15
 80061f4:	eef1 fa10 	vmrs	APSR_nzcv, fpscr
 80061f8:	ddf5      	ble.n	80061e6 <rampa_calc+0x42>
            v->out -= v->Incr;
 80061fa:	ed90 7a02 	vldr	s14, [r0, #8]
 80061fe:	edd0 7a01 	vldr	s15, [r0, #4]
 8006202:	ee77 7ac7 	vsub.f32	s15, s15, s14
 8006206:	edc0 7a01 	vstr	s15, [r0, #4]
            if(v->out < v->in)
 800620a:	ed90 7a01 	vldr	s14, [r0, #4]
 800620e:	edd0 7a00 	vldr	s15, [r0]
 8006212:	eeb4 7ae7 	vcmpe.f32	s14, s15
 8006216:	eef1 fa10 	vmrs	APSR_nzcv, fpscr
 800621a:	d5e4      	bpl.n	80061e6 <rampa_calc+0x42>
 800621c:	e7de      	b.n	80061dc <rampa_calc+0x38>
 800621e:	bf00      	nop

08006220 <rampa_dual_calc>:
 *
 * @note This function calculates the dual ramp.
 */
void rampa_dual_calc(volatile rampa_dual_struct *v)
{
    if (v->enable)
 8006220:	7c03      	ldrb	r3, [r0, #16]
 8006222:	b1e3      	cbz	r3, 800625e <rampa_dual_calc+0x3e>
    {
        if(v->out < v->in)
 8006224:	ed90 7a01 	vldr	s14, [r0, #4]
 8006228:	edd0 7a00 	vldr	s15, [r0]
 800622c:	eeb4 7ae7 	vcmpe.f32	s14, s15
 8006230:	eef1 fa10 	vmrs	APSR_nzcv, fpscr
 8006234:	d516      	bpl.n	8006264 <rampa_dual_calc+0x44>
        {
            v->out += v->Incr;
 8006236:	ed90 7a02 	vldr	s14, [r0, #8]
 800623a:	edd0 7a01 	vldr	s15, [r0, #4]
 800623e:	ee77 7a87 	vadd.f32	s15, s15, s14
 8006242:	edc0 7a01 	vstr	s15, [r0, #4]
            if(v->out > v->in)
 8006246:	ed90 7a01 	vldr	s14, [r0, #4]
 800624a:	edd0 7a00 	vldr	s15, [r0]
 800624e:	eeb4 7ae7 	vcmpe.f32	s14, s15
 8006252:	eef1 fa10 	vmrs	APSR_nzcv, fpscr
 8006256:	dd04      	ble.n	8006262 <rampa_dual_calc+0x42>
        }
        else if(v->out > v->in)
        {
            v->out -= v->Decr;
            if(v->out < v->in)
                v->out = v->in;
 8006258:	6803      	ldr	r3, [r0, #0]
 800625a:	6043      	str	r3, [r0, #4]
 800625c:	4770      	bx	lr
        }
        else;
    }
    else
    {
        v->out = 0;
 800625e:	2300      	movs	r3, #0
 8006260:	6043      	str	r3, [r0, #4]
    }
}
 8006262:	4770      	bx	lr
        else if(v->out > v->in)
 8006264:	ed90 7a01 	vldr	s14, [r0, #4]
 8006268:	edd0 7a00 	vldr	s15, [r0]
 800626c:	eeb4 7ae7 	vcmpe.f32	s14, s15
 8006270:	eef1 fa10 	vmrs	APSR_nzcv, fpscr
 8006274:	ddf5      	ble.n	8006262 <rampa_dual_calc+0x42>
            v->out -= v->Decr;
 8006276:	ed90 7a03 	vldr	s14, [r0, #12]
 800627a:	edd0 7a01 	vldr	s15, [r0, #4]
 800627e:	ee77 7ac7 	vsub.f32	s15, s15, s14
 8006282:	edc0 7a01 	vstr	s15, [r0, #4]
            if(v->out < v->in)
 8006286:	ed90 7a01 	vldr	s14, [r0, #4]
 800628a:	edd0 7a00 	vldr	s15, [r0]
 800628e:	eeb4 7ae7 	vcmpe.f32	s14, s15
 8006292:	eef1 fa10 	vmrs	APSR_nzcv, fpscr
 8006296:	d5e4      	bpl.n	8006262 <rampa_dual_calc+0x42>
 8006298:	e7de      	b.n	8006258 <rampa_dual_calc+0x38>
 800629a:	bf00      	nop

0800629c <RMS_calc>:
 * @note This function calculates the Root Mean Square (RMS).
 */
void RMS_calc(volatile RMS_struct *v){
    // Calculate RMS output current.
    //-----------------------------------------------------------------------------------------
    v->Sq_Sum += (float) (v->Measure * v->Measure)* v->T_exec;
 800629c:	ed90 7a01 	vldr	s14, [r0, #4]
    // Execute calculation at the zero crossing of the angle
    //
    if (v->Freq > 0.0F) {
 80062a0:	2300      	movs	r3, #0
    v->Sq_Sum += (float) (v->Measure * v->Measure)* v->T_exec;
 80062a2:	ed90 6a01 	vldr	s12, [r0, #4]
 80062a6:	edd0 6a00 	vldr	s13, [r0]
 80062aa:	ee27 7a06 	vmul.f32	s14, s14, s12
 80062ae:	edd0 7a02 	vldr	s15, [r0, #8]
 80062b2:	eee7 7a26 	vfma.f32	s15, s14, s13
 80062b6:	edc0 7a02 	vstr	s15, [r0, #8]
    if (v->Freq > 0.0F) {
 80062ba:	edd0 7a04 	vldr	s15, [r0, #16]
 80062be:	eef5 7ac0 	vcmpe.f32	s15, #0.0
 80062c2:	eef1 fa10 	vmrs	APSR_nzcv, fpscr
 80062c6:	dd1e      	ble.n	8006306 <RMS_calc+0x6a>
        if (v->Angle_ant < 0.0F && v->Angle >= 0.0F) {
 80062c8:	edd0 7a06 	vldr	s15, [r0, #24]
 80062cc:	eef5 7ac0 	vcmpe.f32	s15, #0.0
 80062d0:	eef1 fa10 	vmrs	APSR_nzcv, fpscr
 80062d4:	d402      	bmi.n	80062dc <RMS_calc+0x40>
        }
        else;
        //do nothing
    }
    else;
    v->Angle_ant = v->Angle;
 80062d6:	6943      	ldr	r3, [r0, #20]
 80062d8:	6183      	str	r3, [r0, #24]
}
 80062da:	4770      	bx	lr
        if (v->Angle_ant < 0.0F && v->Angle >= 0.0F) {
 80062dc:	edd0 7a05 	vldr	s15, [r0, #20]
 80062e0:	eef5 7ac0 	vcmpe.f32	s15, #0.0
 80062e4:	eef1 fa10 	vmrs	APSR_nzcv, fpscr
 80062e8:	dbf5      	blt.n	80062d6 <RMS_calc+0x3a>
            v->Out_RMS = sqrtf((float) v->Sq_Sum * v->Freq);
 80062ea:	edd0 7a02 	vldr	s15, [r0, #8]
 80062ee:	ed90 7a04 	vldr	s14, [r0, #16]
 80062f2:	ee67 7a87 	vmul.f32	s15, s15, s14
 80062f6:	eeb1 7ae7 	vsqrt.f32	s14, s15
 80062fa:	ed80 7a03 	vstr	s14, [r0, #12]
            v->Sq_Sum = 0;
 80062fe:	6083      	str	r3, [r0, #8]
    v->Angle_ant = v->Angle;
 8006300:	6943      	ldr	r3, [r0, #20]
 8006302:	6183      	str	r3, [r0, #24]
}
 8006304:	4770      	bx	lr
    else if (v->Freq < 0.0F){
 8006306:	edd0 7a04 	vldr	s15, [r0, #16]
 800630a:	eef5 7ac0 	vcmpe.f32	s15, #0.0
 800630e:	eef1 fa10 	vmrs	APSR_nzcv, fpscr
 8006312:	d5e0      	bpl.n	80062d6 <RMS_calc+0x3a>
        if (v->Angle_ant > 0.0F && v->Angle <= 0.0F) {
 8006314:	edd0 7a06 	vldr	s15, [r0, #24]
 8006318:	eef5 7ac0 	vcmpe.f32	s15, #0.0
 800631c:	eef1 fa10 	vmrs	APSR_nzcv, fpscr
 8006320:	ddd9      	ble.n	80062d6 <RMS_calc+0x3a>
 8006322:	edd0 7a05 	vldr	s15, [r0, #20]
 8006326:	eef5 7ac0 	vcmpe.f32	s15, #0.0
 800632a:	eef1 fa10 	vmrs	APSR_nzcv, fpscr
 800632e:	d8d2      	bhi.n	80062d6 <RMS_calc+0x3a>
            v->Out_RMS = sqrtf((float) v->Sq_Sum * v->Freq * (-1.0F));
 8006330:	ed90 7a02 	vldr	s14, [r0, #8]
 8006334:	edd0 7a04 	vldr	s15, [r0, #16]
 8006338:	ee67 7ac7 	vnmul.f32	s15, s15, s14
 800633c:	eeb1 7ae7 	vsqrt.f32	s14, s15
 8006340:	ed80 7a03 	vstr	s14, [r0, #12]
            v->Sq_Sum = 0;
 8006344:	6083      	str	r3, [r0, #8]
 8006346:	e7c6      	b.n	80062d6 <RMS_calc+0x3a>

08006348 <filtreLP_calc>:
    if (v->enable)
 8006348:	8a83      	ldrh	r3, [r0, #20]
 800634a:	b29b      	uxth	r3, r3
 800634c:	b173      	cbz	r3, 800636c <filtreLP_calc+0x24>
        v->out = (v->alfa * (v->in - v->out)) + v->out;    // Filter out(k) = alfa*in(k) + (1-alfa)*out(k-1)
 800634e:	edd0 6a02 	vldr	s13, [r0, #8]
 8006352:	ed90 7a00 	vldr	s14, [r0]
 8006356:	ed90 6a01 	vldr	s12, [r0, #4]
 800635a:	edd0 7a01 	vldr	s15, [r0, #4]
 800635e:	ee37 7a46 	vsub.f32	s14, s14, s12
 8006362:	eee6 7a87 	vfma.f32	s15, s13, s14
 8006366:	edc0 7a01 	vstr	s15, [r0, #4]
 800636a:	4770      	bx	lr
        v->out = v->in;        // Without filter. Out(k) = In(k)
 800636c:	6803      	ldr	r3, [r0, #0]
 800636e:	6043      	str	r3, [r0, #4]
}
 8006370:	4770      	bx	lr
 8006372:	bf00      	nop

08006374 <step_calc>:
 * @note This function calculates the step function.
 */
void step_calc(volatile step_struct *v)
{
    // Calculate step width in pulses to count
    v->Pulses = (uint32_t)((v->fs) * (v->t_step));
 8006374:	edd0 7a00 	vldr	s15, [r0]
 8006378:	ed90 7a04 	vldr	s14, [r0, #16]
 800637c:	ee67 7a87 	vmul.f32	s15, s15, s14
 8006380:	eefc 7ae7 	vcvt.u32.f32	s15, s15
 8006384:	edc0 7a05 	vstr	s15, [r0, #20]

    // If enabled, perform the step and start counting
    if (v->enable == 1 && v->Counter < v->Pulses){
 8006388:	8b83      	ldrh	r3, [r0, #28]
 800638a:	b29b      	uxth	r3, r3
 800638c:	2b01      	cmp	r3, #1
 800638e:	d006      	beq.n	800639e <step_calc+0x2a>
        v->Out = v->In + v->Step;
        v->Counter++;
    }
    // When reaching the time limit, remove step and reset the counter
    else if (v->enable == 1 && v->Counter >= v->Pulses){
 8006390:	8b83      	ldrh	r3, [r0, #28]
 8006392:	b29b      	uxth	r3, r3
 8006394:	2b01      	cmp	r3, #1
 8006396:	d012      	beq.n	80063be <step_calc+0x4a>
        v->Out = v->In;
        v->Counter = 0;
        v->enable = 0;
    }
    // If not enabled
    else v->Out = v->In;
 8006398:	6843      	ldr	r3, [r0, #4]
 800639a:	6083      	str	r3, [r0, #8]
}
 800639c:	4770      	bx	lr
    if (v->enable == 1 && v->Counter < v->Pulses){
 800639e:	6982      	ldr	r2, [r0, #24]
 80063a0:	6943      	ldr	r3, [r0, #20]
 80063a2:	429a      	cmp	r2, r3
 80063a4:	d2f4      	bcs.n	8006390 <step_calc+0x1c>
        v->Out = v->In + v->Step;
 80063a6:	edd0 7a01 	vldr	s15, [r0, #4]
 80063aa:	ed90 7a03 	vldr	s14, [r0, #12]
 80063ae:	ee77 7a87 	vadd.f32	s15, s15, s14
 80063b2:	edc0 7a02 	vstr	s15, [r0, #8]
        v->Counter++;
 80063b6:	6983      	ldr	r3, [r0, #24]
 80063b8:	3301      	adds	r3, #1
 80063ba:	6183      	str	r3, [r0, #24]
 80063bc:	4770      	bx	lr
    else if (v->enable == 1 && v->Counter >= v->Pulses){
 80063be:	6982      	ldr	r2, [r0, #24]
 80063c0:	6943      	ldr	r3, [r0, #20]
 80063c2:	429a      	cmp	r2, r3
 80063c4:	d3e8      	bcc.n	8006398 <step_calc+0x24>
        v->Out = v->In;
 80063c6:	6842      	ldr	r2, [r0, #4]
        v->Counter = 0;
 80063c8:	2300      	movs	r3, #0
        v->Out = v->In;
 80063ca:	6082      	str	r2, [r0, #8]
        v->Counter = 0;
 80063cc:	6183      	str	r3, [r0, #24]
        v->enable = 0;
 80063ce:	8383      	strh	r3, [r0, #28]
 80063d0:	4770      	bx	lr
 80063d2:	bf00      	nop
